                                                                      Page 1
                                                              C:\Users\NIKHIL~1.PAT\AppData\Local\Temp\gh_000aesk1.s
Command Line: C:\ghs\comp_201517\ease850.exe -w -elf -b0 -I..\..\source\peripherals\ -I..\..\device -IC:\Users\nikhil.patil\Documents\renesas\RH850_F1L_sample\source\test5 -IC:\Users\nikhil.patil\Documents\renesas\RH850_F1L_sample\source\subprojtest -IC:\ghs\comp_201517\lib\rh850 -cg_underscore -cpu=rh850g3k -nofpu -no_v850_simd -rh850_fpsimd=none -nomacro -patch_dbo=C:\Users\nikhil.patil\Documents\renesas\RH850_F1L_sample\toolchain\GHS\output\obj\r_display.dbo -source=r_display.c -o output\obj\gh_000aesk1.o -list=output\list\r_display.lst C:\Users\NIKHIL~1.PAT\AppData\Local\Temp\gh_000aesk1.s 
Original File: C:\Users\NIKHIL~1.PAT\AppData\Local\Temp\gh_000aesk1.s
Source File: r_display.c
Directory: C:\Users\nikhil.patil\Documents\renesas\RH850_F1L_sample\toolchain\GHS
Host OS: Windows 7 Service Pack 1
EASE: Copyright (C) 1983-2015 Green Hills Software.  All Rights Reserved.
Release: Compiler v2015.1.7
Build Directory: [Directory] BTOWORKER6:c:/build_2015_1_bto/2015-10-21.2100-2015_1_bto/win32-comp-ecom
Revision: [VCInfo] http://toolsvc/branches/release-branch-70-bto/src@544153 (built by build)
Revision Date: Thu Oct 22 01:50:13 2015

Release Date: Thu Oct 22 03:32:32 2015

                           1 --Driver Command: ccv850 -c -MD -I..\..\source\peripherals\ -I..\..\device
                           2 --		-IC:\Users\nikhil.patil\Documents\renesas\RH850_F1L_sample\source\test5
                           3 --		-IC:\Users\nikhil.patil\Documents\renesas\RH850_F1L_sample\source\subprojtest
                           4 --		-G -object_dir=output\obj -list -list_dir=output/list -passsource
                           5 --		-bsp generic -fsoft -cpu=rh850g3k -D__GHS__ -dwarf2 -large_sda
                           6 --		-sda -filetype.c ..\..\source\modules\display\r_display.c -o
                           7 --		output\obj\r_display.o
                           8 --Source File:   ..\..\source\modules\display\r_display.c
                           9 --Directory:     
                          10 --		C:\Users\nikhil.patil\Documents\renesas\RH850_F1L_sample\toolchain\GHS
                          11 --Compile Date:  Thu Jan 18 08:13:36 2018
                          12 --Host OS:       Win32
                          13 --Version:       C-RH850 2015.1.7 RELEASE VERSION
                          14 --Release:       Compiler v2015.1.7
                          15 --Revision Date: Thu Oct 22 02:06:12 2015
                          16 --Release Date:  Thu Oct 22 03:34:32 2015
                          17 -- ecom  -g -w
                          18 
                          19 --1: /*===========================================================================*/
                          20 --2: /* Project:  F1x StarterKit V3 Sample Software                               */
                          21 --3: /* Module :  r_display.c                                                     */
                          22 --4: /* Version:  V1.00                                                           */
                          23 --5: /*===========================================================================*/
                          24 --6: /*                                  COPYRIGHT                                */
                          25 --7: /*===========================================================================*/
                          26 --8: /* Copyright (c) 2016 by Renesas Electronics Europe GmbH,                    */
                          27 --9: /*               a company of the Renesas Electronics Corporation            */
                          28 --10: /*===========================================================================*/
                          29 --11: /* In case of any question please do not hesitate to contact:                */
                          30 --12: /*                                                                           */
                          31 --13: /*        ABG Software Tool Support                                          */
                          32 --14: /*                                                                           */
                          33 --15: /*        Renesas Electronics Europe GmbH                                    */
                          34 --16: /*        Arcadiastrasse 10                                                  */
                          35 --17: /*        D-40472 Duesseldorf, Germany                                       */
                          36 --18: /*                                                                           */
                          37 --19: /*        e-mail: software_support-eu@lm.renesas.com                         */
                          38 --20: /*        FAX:   +49 - (0)211 / 65 03 - 11 31                                */
                          39 --21: /*                                                                           */
                          40 --22: /*===========================================================================*/
                          41 --23: /* Warranty Disclaimer                                                       */
                          42 --24: /*                                                                           */
                          43 --25: /* Because the Product(s) is licensed free of charge, there is no warranty   */
                          44 --26: /* of any kind whatsoever and expressly disclaimed and excluded by Renesas,  */
                          45 --27: /* either expressed or implied, including but not limited to those for       */
                          46 --28: /* non-infringement of intellectual property, merchantability and/or         */
                          47 --29: /* fitness for the particular purpose.                                       */
                          48 --30: /* Renesas shall not have any obligation to maintain, service or provide bug */
                          49 --31: /* fixes for the supplied Product(s) and/or the Application.                 */
                          50 --32: /*                                                                           */

                                                                      Page 2
                                                              C:\Users\NIKHIL~1.PAT\AppData\Local\Temp\gh_000aesk1.s
                          51 --33: /* Each User is solely responsible for determining the appropriateness of    */
                          52 --34: /* using the Product(s) and assumes all risks associated with its exercise   */
                          53 --35: /* of rights under this Agreement, including, but not limited to the risks   */
                          54 --36: /* and costs of program errors, compliance with applicable laws, damage to   */
                          55 --37: /* or loss of data, programs or equipment, and unavailability or             */
                          56 --38: /* interruption of operations.                                               */
                          57 --39: /*                                                                           */
                          58 --40: /* Limitation of Liability                                                   */
                          59 --41: /*                                                                           */
                          60 --42: /* In no event shall Renesas be liable to the User for any incidental,       */
                          61 --43: /* consequential, indirect, or punitive damage (including but not limited    */
                          62 --44: /* to lost profits) regardless of whether such liability is based on breach  */
                          63 --45: /* of contract, tort, strict liability, breach of warranties, failure of     */
                          64 --46: /* essential purpose or otherwise and even if advised of the possibility of  */
                          65 --47: /* such damages. Renesas shall not be liable for any services or products    */
                          66 --48: /* provided by third party vendors, developers or consultants identified or  */
                          67 --49: /* referred to the User by Renesas in connection with the Product(s) and/or  */
                          68 --50: /* the Application.                                                          */
                          69 --51: /*                                                                           */
                          70 --52: /*===========================================================================*/
                          71 --53: /* History:                                                                  */
                          72 --54: /*              V1.00: Initial version                                       */
                          73 --55: /*                                                                           */
                          74 --56: /*===========================================================================*/
                          75 --57: /*                                                                           */
                          76 --58: /* Source code for the Display Functions.                                    */
                          77 --59: /*                                                                           */
                          78 --60: /*===========================================================================*/
                          79 --62: /*===========================================================================*/
                          80 --63: /* Includes */
                          81 --64: /*===========================================================================*/
                          82 --65: #include "r_device.h"
                          83 --66: #include "r_display.h"
                          84 --67: #include "font5x7.h"
                          85 --69: /* Peripheral Includes */
                          86 --70: #include "adc/r_adc.h"
                          87 --71: #include "csi/r_csi.h"
                          88 --72: #include "port/r_port.h"
                          89 --73: /*===========================================================================*/
                          90 --74: /* Functions */
                          91 --75: /*===========================================================================*/
                          92 --76: void writeCommand(uint8_t Command);
                          93 --77: void writeData(uint16_t Data);
                          94 --78: void writeBuffer(uint16_t* Buffer, uint16_t Length);
                          95 --79: void delay(uint16_t count);
                          96 --80: void drawChar(uint8_t x, uint8_t  y, char_t c, uint16_t  color, uint16_t  bg, uint8_t  size);
                          97 --81: void goTo(uint8_t x, uint8_t y);
                          98 --82: void drawPixel(uint8_t x, uint8_t y, uint16_t color);
                          99 --84: /*****************************************************************************
                         100 --85: ** Function:    R_DISPLAY_SDCard_Test
                         101 --86: ** Description: Checks whether a SD Card is inserted in the dispay module.
                         102 --87: ** Parameter:   None
                         103 --88: ** Return:      None
                         104 --89: ******************************************************************************/
                         105 --90: r_Error_t R_DISPLAY_SDCard_Test(void)
                         106 	.text
                         107 ..bof.C.3A.5CUsers.5Cnikhil.2Epatil.5CDocuments.5Crenesas.5CRH850_F1L_sample.5Ctoolchain.5CGHS.5Coutput.5Cobj.5Cr_display...43.3A.5CUsers.5Cnikhil.2Epatil.5CDocuments.5Crenesas.5CRH850_F1L_sample.5Ctoolchain.5CGHS..5A609D80..0::
                         108 	.align	2
                         109 	.global	_R_DISPLAY_SDCard_Test
                         110 _R_DISPLAY_SDCard_Test:
00000000 5c1a            111 	add	-4,sp

                                                                      Page 3
                                                              C:\Users\NIKHIL~1.PAT\AppData\Local\Temp\gh_000aesk1.s
00000002 63ff0100        112 	st.w	lp,0[sp]
                         113 --	    .bf
                         114 .LDW01:
                         115 --91: {
                         116 --92:     if(R_PORT_GetLevel(Port11,5)==0)
00000006 0632            117 	mov	6,r6
00000008 053a            118 	mov	5,r7
                         119 	jarl	_R_PORT_GetLevel,lp
                         119 <EXPANSION BEGIN>
                         119 jarl22 _R_PORT_GetLevel , lp 
0000000a 80ff0000*       119 <EXPANSION END>
0000000e e051            120 	cmp	zero,r10
00000010 ba05*           121 	bne	.L4
                         122 --93:     {
                         123 --94:         return R_OK;
                         124 --line94
                         125 ..lin.C.3A.5CUsers.5Cnikhil.2Epatil.5CDocuments.5Crenesas.5CRH850_F1L_sample.5Ctoolchain.5CGHS.5Coutput.5Cobj.5Cr_display.1::
                         126 .LDWlin1:
00000012 0052            127 	mov	0,r10
00000014 a505*           128 	br	.L2
                         129 .L4:
                         130 --95:     }
                         131 --96:     else
                         132 --97:     {
                         133 --98:         return R_ERROR;
                         134 --line98
                         135 ..lin.C.3A.5CUsers.5Cnikhil.2Epatil.5CDocuments.5Crenesas.5CRH850_F1L_sample.5Ctoolchain.5CGHS.5Coutput.5Cobj.5Cr_display.2::
                         136 .LDWlin2:
00000016 0152            137 	mov	1,r10
                         138 .L2:
                         139 --	    .ef
                         140 .LDW11:
00000018 23ff0100        141 	ld.w	0[sp],lp
0000001c 441a            142 	add	4,sp
0000001e 7f00            143 	jmp	[lp]
                         144 	.global	___ghs_eofn_R_DISPLAY_SDCard_Test
                         145 ___ghs_eofn_R_DISPLAY_SDCard_Test:
                         146 	.type	_R_DISPLAY_SDCard_Test,@function
                         147 	.size	_R_DISPLAY_SDCard_Test,.-_R_DISPLAY_SDCard_Test
                         148 	.align	2
                         149 
                         150 	.section ".bss","awb"
                         151 .L38:
                         152 	.type	.L38,@object
                         153 	.size	.L38,0
                         154 	.data
                         155 	.text
                         156 
                         157 --99:     }
                         158 --100: }
                         159 
                         160 --101:     
                         161 --102: /*****************************************************************************
                         162 --103: ** Function:    R_DISPLAY_Deinit
                         163 --104: ** Description: Configures used pins back to default.
                         164 --105: ** Parameter:   None
                         165 --106: ** Return:      None
                         166 --107: ******************************************************************************/
                         167 --108: void R_DISPLAY_Deinit(void)
                         168 	.align	2
                         169 	.align	2

                                                                      Page 4
                                                              C:\Users\NIKHIL~1.PAT\AppData\Local\Temp\gh_000aesk1.s
                         170 	.global	_R_DISPLAY_Deinit
                         171 _R_DISPLAY_Deinit:
00000020 5c1a            172 	add	-4,sp
00000022 63ff0100        173 	st.w	lp,0[sp]
                         174 --	    .bf
                         175 .LDW21:
                         176 --109: {
                         177 --110:     R_PORT_SetGpioHighZ(Port10, 12);
00000026 0532            178 	mov	5,r6
00000028 0c3a            179 	mov	12,r7
                         180 	jarl	_R_PORT_SetGpioHighZ,lp
                         180 <EXPANSION BEGIN>
                         180 jarl22 _R_PORT_SetGpioHighZ , lp 
0000002a 80ff0000*       180 <EXPANSION END>
                         181 --111:     R_PORT_SetGpioHighZ(Port11, 0);
                         182 --line111
                         183 ..lin.C.3A.5CUsers.5Cnikhil.2Epatil.5CDocuments.5Crenesas.5CRH850_F1L_sample.5Ctoolchain.5CGHS.5Coutput.5Cobj.5Cr_display.3::
                         184 .LDWlin3:
0000002e 0632            185 	mov	6,r6
00000030 003a            186 	mov	0,r7
                         187 	jarl	_R_PORT_SetGpioHighZ,lp
                         187 <EXPANSION BEGIN>
                         187 jarl22 _R_PORT_SetGpioHighZ , lp 
00000032 80ff0000*       187 <EXPANSION END>
                         188 --112:     R_PORT_SetGpioHighZ(Port11, 2);
                         189 --line112
                         190 ..lin.C.3A.5CUsers.5Cnikhil.2Epatil.5CDocuments.5Crenesas.5CRH850_F1L_sample.5Ctoolchain.5CGHS.5Coutput.5Cobj.5Cr_display.4::
                         191 .LDWlin4:
00000036 0632            192 	mov	6,r6
00000038 023a            193 	mov	2,r7
                         194 	jarl	_R_PORT_SetGpioHighZ,lp
                         194 <EXPANSION BEGIN>
                         194 jarl22 _R_PORT_SetGpioHighZ , lp 
0000003a 80ff0000*       194 <EXPANSION END>
                         195 --113:     R_PORT_SetGpioHighZ(Port11, 3);
                         196 --line113
                         197 ..lin.C.3A.5CUsers.5Cnikhil.2Epatil.5CDocuments.5Crenesas.5CRH850_F1L_sample.5Ctoolchain.5CGHS.5Coutput.5Cobj.5Cr_display.5::
                         198 .LDWlin5:
0000003e 0632            199 	mov	6,r6
00000040 033a            200 	mov	3,r7
                         201 	jarl	_R_PORT_SetGpioHighZ,lp
                         201 <EXPANSION BEGIN>
                         201 jarl22 _R_PORT_SetGpioHighZ , lp 
00000042 80ff0000*       201 <EXPANSION END>
                         202 --114:     R_PORT_SetGpioHighZ(Port11, 4);
                         203 --line114
                         204 ..lin.C.3A.5CUsers.5Cnikhil.2Epatil.5CDocuments.5Crenesas.5CRH850_F1L_sample.5Ctoolchain.5CGHS.5Coutput.5Cobj.5Cr_display.6::
                         205 .LDWlin6:
00000046 0632            206 	mov	6,r6
00000048 043a            207 	mov	4,r7
                         208 	jarl	_R_PORT_SetGpioHighZ,lp
                         208 <EXPANSION BEGIN>
                         208 jarl22 _R_PORT_SetGpioHighZ , lp 
0000004a 80ff0000*       208 <EXPANSION END>
                         209 --115:     R_PORT_SetGpioHighZ(Port11, 5);
                         210 --line115
                         211 ..lin.C.3A.5CUsers.5Cnikhil.2Epatil.5CDocuments.5Crenesas.5CRH850_F1L_sample.5Ctoolchain.5CGHS.5Coutput.5Cobj.5Cr_display.7::
                         212 .LDWlin7:
0000004e 0632            213 	mov	6,r6
00000050 053a            214 	mov	5,r7
                         215 	jarl	_R_PORT_SetGpioHighZ,lp

                                                                      Page 5
                                                              C:\Users\NIKHIL~1.PAT\AppData\Local\Temp\gh_000aesk1.s
                         215 <EXPANSION BEGIN>
                         215 jarl22 _R_PORT_SetGpioHighZ , lp 
00000052 80ff0000*       215 <EXPANSION END>
                         216 --116:     R_PORT_SetGpioHighZ(Port11, 15);
                         217 --line116
                         218 ..lin.C.3A.5CUsers.5Cnikhil.2Epatil.5CDocuments.5Crenesas.5CRH850_F1L_sample.5Ctoolchain.5CGHS.5Coutput.5Cobj.5Cr_display.8::
                         219 .LDWlin8:
00000056 0632            220 	mov	6,r6
00000058 0f3a            221 	mov	15,r7
                         222 	jarl	_R_PORT_SetGpioHighZ,lp
                         222 <EXPANSION BEGIN>
                         222 jarl22 _R_PORT_SetGpioHighZ , lp 
0000005a 80ff0000*       222 <EXPANSION END>
                         223 --117:     R_PORT_SetGpioHighZ(Port12, 1);
                         224 --line117
                         225 ..lin.C.3A.5CUsers.5Cnikhil.2Epatil.5CDocuments.5Crenesas.5CRH850_F1L_sample.5Ctoolchain.5CGHS.5Coutput.5Cobj.5Cr_display.9::
                         226 .LDWlin9:
0000005e 0732            227 	mov	7,r6
00000060 013a            228 	mov	1,r7
                         229 	jarl	_R_PORT_SetGpioHighZ,lp
                         229 <EXPANSION BEGIN>
                         229 jarl22 _R_PORT_SetGpioHighZ , lp 
00000062 80ff0000*       229 <EXPANSION END>
                         230 --118: }
                         231 --	    .ef
                         232 .LDW31:
                         233 --line118
                         234 ..lin.C.3A.5CUsers.5Cnikhil.2Epatil.5CDocuments.5Crenesas.5CRH850_F1L_sample.5Ctoolchain.5CGHS.5Coutput.5Cobj.5Cr_display.10::
                         235 .LDWlin10:
00000066 23ff0100        236 	ld.w	0[sp],lp
0000006a 441a            237 	add	4,sp
0000006c 7f00            238 	jmp	[lp]
                         239 	.global	___ghs_eofn_R_DISPLAY_Deinit
                         240 ___ghs_eofn_R_DISPLAY_Deinit:
                         241 	.type	_R_DISPLAY_Deinit,@function
                         242 	.size	_R_DISPLAY_Deinit,.-_R_DISPLAY_Deinit
                         243 	.align	2
                         244 
                         245 	.section ".bss","awb"
                         246 .L110:
                         247 	.type	.L110,@object
                         248 	.size	.L110,0
                         249 	.data
                         250 	.text
                         251 
                         252 
                         253 --120: /*****************************************************************************
                         254 --121: ** Function:    R_DISPLAY_ResetRelease
                         255 --122: ** Description: Set display reset pin to high->operation mode.
                         256 --123: ** Parameter:   None
                         257 --124: ** Return:      None
                         258 --125: ******************************************************************************/
                         259 --126: void R_DISPLAY_ResetRelease(void)
                         260 	.align	2
                         261 	.align	2
                         262 	.global	_R_DISPLAY_ResetRelease
                         263 _R_DISPLAY_ResetRelease:
0000006e 5c1a            264 	add	-4,sp
00000070 63ff0100        265 	st.w	lp,0[sp]
                         266 --	    .bf
                         267 .LDW41:

                                                                      Page 6
                                                              C:\Users\NIKHIL~1.PAT\AppData\Local\Temp\gh_000aesk1.s
                         268 --127: {
                         269 --128:     R_PORT_SetGpioOutput(Port10, 12, High);
00000074 0532            270 	mov	5,r6
00000076 0c3a            271 	mov	12,r7
00000078 0142            272 	mov	1,r8
                         273 	jarl	_R_PORT_SetGpioOutput,lp
                         273 <EXPANSION BEGIN>
                         273 jarl22 _R_PORT_SetGpioOutput , lp 
0000007a 80ff0000*       273 <EXPANSION END>
                         274 --129: }
                         275 --	    .ef
                         276 .LDW51:
                         277 --line129
                         278 ..lin.C.3A.5CUsers.5Cnikhil.2Epatil.5CDocuments.5Crenesas.5CRH850_F1L_sample.5Ctoolchain.5CGHS.5Coutput.5Cobj.5Cr_display.11::
                         279 .LDWlin11:
0000007e 23ff0100        280 	ld.w	0[sp],lp
00000082 441a            281 	add	4,sp
00000084 7f00            282 	jmp	[lp]
                         283 	.global	___ghs_eofn_R_DISPLAY_ResetRelease
                         284 ___ghs_eofn_R_DISPLAY_ResetRelease:
                         285 	.type	_R_DISPLAY_ResetRelease,@function
                         286 	.size	_R_DISPLAY_ResetRelease,.-_R_DISPLAY_ResetRelease
                         287 	.align	2
                         288 
                         289 	.section ".bss","awb"
                         290 .L178:
                         291 	.type	.L178,@object
                         292 	.size	.L178,0
                         293 	.data
                         294 	.text
                         295 
                         296 
                         297 --131: /*****************************************************************************
                         298 --132: ** Function:    R_DISPLAY_Init
                         299 --133: ** Description: Configures pins, SPI and the display if connected.
                         300 --134: ** Parameter:   None
                         301 --135: ** Return:      R_OK - Configuration complete
                         302 --136: **              R_ERROR - No display connected.
                         303 --137: ******************************************************************************/
                         304 --138: r_Error_t R_DISPLAY_Init(void)
                         305 	.align	2
                         306 	.align	2
                         307 	.global	_R_DISPLAY_Init
                         308 _R_DISPLAY_Init:
00000086 581a            309 	add	-8,sp
00000088 63ff0500        310 	st.w	lp,4[sp]
                         311 --	    .bf
                         312 .LDW61:
                         313 --139: {
                         314 --140:     /* Check if display is available */
                         315 --141:     R_ADCA0_ConnectPullDown(AP0_4);       /* Connect internal Pull Down */
0000008c 0432            316 	mov	4,r6
                         317 	jarl	_R_ADCA0_ConnectPullDown,lp
                         317 <EXPANSION BEGIN>
                         317 jarl22 _R_ADCA0_ConnectPullDown , lp 
0000008e 80ff0000*       317 <EXPANSION END>
                         318 --142:     delay(100); 
                         319 --line142
                         320 ..lin.C.3A.5CUsers.5Cnikhil.2Epatil.5CDocuments.5Crenesas.5CRH850_F1L_sample.5Ctoolchain.5CGHS.5Coutput.5Cobj.5Cr_display.12::
                         321 .LDWlin12:
00000092 20366400        322 	movea	100,zero,r6

                                                                      Page 7
                                                              C:\Users\NIKHIL~1.PAT\AppData\Local\Temp\gh_000aesk1.s
                         323 	jarl	_delay,lp
                         323 <EXPANSION BEGIN>
                         323 jarl22 _delay , lp 
00000096 80ff2607*       323 <EXPANSION END>
                         324 --143:     if(R_ADCA0_PinRead(AP0_4)<2600) /* If display is connected, 3.3V = ~2700 should be measured */
                         325 --line143
                         326 ..lin.C.3A.5CUsers.5Cnikhil.2Epatil.5CDocuments.5Crenesas.5CRH850_F1L_sample.5Ctoolchain.5CGHS.5Coutput.5Cobj.5Cr_display.13::
                         327 .LDWlin13:
0000009a 0432            328 	mov	4,r6
                         329 	jarl	_R_ADCA0_PinRead,lp
                         329 <EXPANSION BEGIN>
                         329 jarl22 _R_ADCA0_PinRead , lp 
0000009c 80ff0000*       329 <EXPANSION END>
000000a0 0a06d8f5        330 	addi	-2600,r10,zero
000000a4 c105*           331 	bl	.L195
                         332 --144:     {
                         333 --145:         return R_ERROR;
                         334 --line145
                         335 ..lin.C.3A.5CUsers.5Cnikhil.2Epatil.5CDocuments.5Crenesas.5CRH850_F1L_sample.5Ctoolchain.5CGHS.5Coutput.5Cobj.5Cr_display.14::
                         336 .LDWlin14:
000000a6 0152            337 	mov	1,r10
000000a8 8007f401*       338 	br	.L193
                         339 .L195:
                         340 --146:     }
                         341 --147:     R_ADCA0_DisconnectPullDown(AP0_4);      /* Disconnect internal Pull Down */
                         342 --line147
                         343 ..lin.C.3A.5CUsers.5Cnikhil.2Epatil.5CDocuments.5Crenesas.5CRH850_F1L_sample.5Ctoolchain.5CGHS.5Coutput.5Cobj.5Cr_display.15::
                         344 .LDWlin15:
000000ac 0432            345 	mov	4,r6
                         346 	jarl	_R_ADCA0_DisconnectPullDown,lp
                         346 <EXPANSION BEGIN>
                         346 jarl22 _R_ADCA0_DisconnectPullDown , lp 
000000ae 80ff0000*       346 <EXPANSION END>
                         347 --148:     
                         348 --149:     /* Reset - Low: Reset, High: Operation */
                         349 --150:     R_PORT_SetGpioOutput(Port10, 12, High);
                         350 --line150
                         351 ..lin.C.3A.5CUsers.5Cnikhil.2Epatil.5CDocuments.5Crenesas.5CRH850_F1L_sample.5Ctoolchain.5CGHS.5Coutput.5Cobj.5Cr_display.16::
                         352 .LDWlin16:
000000b2 0532            353 	mov	5,r6
000000b4 0c3a            354 	mov	12,r7
000000b6 0142            355 	mov	1,r8
                         356 	jarl	_R_PORT_SetGpioOutput,lp
                         356 <EXPANSION BEGIN>
                         356 jarl22 _R_PORT_SetGpioOutput , lp 
000000b8 80ff0000*       356 <EXPANSION END>
                         357 --151:     delay(500);       
                         358 --line151
                         359 ..lin.C.3A.5CUsers.5Cnikhil.2Epatil.5CDocuments.5Crenesas.5CRH850_F1L_sample.5Ctoolchain.5CGHS.5Coutput.5Cobj.5Cr_display.17::
                         360 .LDWlin17:
000000bc 2036f401        361 	movea	500,zero,r6
                         362 	jarl	_delay,lp
                         362 <EXPANSION BEGIN>
                         362 jarl22 _delay , lp 
000000c0 80fffc06*       362 <EXPANSION END>
                         363 --152:     R_PORT_SetGpioOutput(Port10, 12, Low);
                         364 --line152
                         365 ..lin.C.3A.5CUsers.5Cnikhil.2Epatil.5CDocuments.5Crenesas.5CRH850_F1L_sample.5Ctoolchain.5CGHS.5Coutput.5Cobj.5Cr_display.18::
                         366 .LDWlin18:
000000c4 0532            367 	mov	5,r6
000000c6 0c3a            368 	mov	12,r7

                                                                      Page 8
                                                              C:\Users\NIKHIL~1.PAT\AppData\Local\Temp\gh_000aesk1.s
000000c8 0042            369 	mov	0,r8
                         370 	jarl	_R_PORT_SetGpioOutput,lp
                         370 <EXPANSION BEGIN>
                         370 jarl22 _R_PORT_SetGpioOutput , lp 
000000ca 80ff0000*       370 <EXPANSION END>
                         371 --153:     delay(500);
                         372 --line153
                         373 ..lin.C.3A.5CUsers.5Cnikhil.2Epatil.5CDocuments.5Crenesas.5CRH850_F1L_sample.5Ctoolchain.5CGHS.5Coutput.5Cobj.5Cr_display.19::
                         374 .LDWlin19:
000000ce 2036f401        375 	movea	500,zero,r6
                         376 	jarl	_delay,lp
                         376 <EXPANSION BEGIN>
                         376 jarl22 _delay , lp 
000000d2 80ffea06*       376 <EXPANSION END>
                         377 --154:     R_PORT_SetGpioOutput(Port10, 12, High);
                         378 --line154
                         379 ..lin.C.3A.5CUsers.5Cnikhil.2Epatil.5CDocuments.5Crenesas.5CRH850_F1L_sample.5Ctoolchain.5CGHS.5Coutput.5Cobj.5Cr_display.20::
                         380 .LDWlin20:
000000d6 0532            381 	mov	5,r6
000000d8 0c3a            382 	mov	12,r7
000000da 0142            383 	mov	1,r8
                         384 	jarl	_R_PORT_SetGpioOutput,lp
                         384 <EXPANSION BEGIN>
                         384 jarl22 _R_PORT_SetGpioOutput , lp 
000000dc 80ff0000*       384 <EXPANSION END>
                         385 --155:     delay(500);
                         386 --line155
                         387 ..lin.C.3A.5CUsers.5Cnikhil.2Epatil.5CDocuments.5Crenesas.5CRH850_F1L_sample.5Ctoolchain.5CGHS.5Coutput.5Cobj.5Cr_display.21::
                         388 .LDWlin21:
000000e0 2036f401        389 	movea	500,zero,r6
                         390 	jarl	_delay,lp
                         390 <EXPANSION BEGIN>
                         390 jarl22 _delay , lp 
000000e4 80ffd806*       390 <EXPANSION END>
                         391 --156:     
                         392 --157:     /* Data/Command - Low: Data interpreted as Command, High: Data interpreted as Data  */ 
                         393 --158:     R_PORT_SetGpioOutput(Port11, 0, Low);
                         394 --line158
                         395 ..lin.C.3A.5CUsers.5Cnikhil.2Epatil.5CDocuments.5Crenesas.5CRH850_F1L_sample.5Ctoolchain.5CGHS.5Coutput.5Cobj.5Cr_display.22::
                         396 .LDWlin22:
000000e8 0632            397 	mov	6,r6
000000ea 003a            398 	mov	0,r7
000000ec 0042            399 	mov	0,r8
                         400 	jarl	_R_PORT_SetGpioOutput,lp
                         400 <EXPANSION BEGIN>
                         400 jarl22 _R_PORT_SetGpioOutput , lp 
000000ee 80ff0000*       400 <EXPANSION END>
                         401 --159:                
                         402 --160:     /* Card Detect - Low: SD Card inserted, High: No SD Card inserted */ 
                         403 --161:     R_PORT_SetGpioInput(Port11, 5);
                         404 --line161
                         405 ..lin.C.3A.5CUsers.5Cnikhil.2Epatil.5CDocuments.5Crenesas.5CRH850_F1L_sample.5Ctoolchain.5CGHS.5Coutput.5Cobj.5Cr_display.23::
                         406 .LDWlin23:
000000f2 0632            407 	mov	6,r6
000000f4 053a            408 	mov	5,r7
                         409 	jarl	_R_PORT_SetGpioInput,lp
                         409 <EXPANSION BEGIN>
                         409 jarl22 _R_PORT_SetGpioInput , lp 
000000f6 80ff0000*       409 <EXPANSION END>
                         410 --162:     
                         411 --163:     /* CSIH2 Port Configuration */

                                                                      Page 9
                                                              C:\Users\NIKHIL~1.PAT\AppData\Local\Temp\gh_000aesk1.s
                         412 --164:     R_PORT_SetAltFunc(Port11, 2, Alt1, Output);        /* CSIH2O - MOSI */
                         413 --line164
                         414 ..lin.C.3A.5CUsers.5Cnikhil.2Epatil.5CDocuments.5Crenesas.5CRH850_F1L_sample.5Ctoolchain.5CGHS.5Coutput.5Cobj.5Cr_display.24::
                         415 .LDWlin24:
000000fa 0632            416 	mov	6,r6
000000fc 023a            417 	mov	2,r7
000000fe 0042            418 	mov	0,r8
00000100 014a            419 	mov	1,r9
                         420 	jarl	_R_PORT_SetAltFunc,lp
                         420 <EXPANSION BEGIN>
                         420 jarl22 _R_PORT_SetAltFunc , lp 
00000102 80ff0000*       420 <EXPANSION END>
                         421 --165:     R_PORT_SetAltFunc(Port11, 3, Alt1, Output);        /* CSI2SC - CLK  */
                         422 --line165
                         423 ..lin.C.3A.5CUsers.5Cnikhil.2Epatil.5CDocuments.5Crenesas.5CRH850_F1L_sample.5Ctoolchain.5CGHS.5Coutput.5Cobj.5Cr_display.25::
                         424 .LDWlin25:
00000106 0632            425 	mov	6,r6
00000108 033a            426 	mov	3,r7
0000010a 0042            427 	mov	0,r8
0000010c 014a            428 	mov	1,r9
                         429 	jarl	_R_PORT_SetAltFunc,lp
                         429 <EXPANSION BEGIN>
                         429 jarl22 _R_PORT_SetAltFunc , lp 
0000010e 80ff0000*       429 <EXPANSION END>
                         430 --166:     R_PORT_SetAltFunc(Port11, 15, Alt1, Output);       /* CSIH2CSS4 - Chip Select Signal 4 */
                         431 --line166
                         432 ..lin.C.3A.5CUsers.5Cnikhil.2Epatil.5CDocuments.5Crenesas.5CRH850_F1L_sample.5Ctoolchain.5CGHS.5Coutput.5Cobj.5Cr_display.26::
                         433 .LDWlin26:
00000112 0632            434 	mov	6,r6
00000114 0f3a            435 	mov	15,r7
00000116 0042            436 	mov	0,r8
00000118 014a            437 	mov	1,r9
                         438 	jarl	_R_PORT_SetAltFunc,lp
                         438 <EXPANSION BEGIN>
                         438 jarl22 _R_PORT_SetAltFunc , lp 
0000011a 80ff0000*       438 <EXPANSION END>
                         439 --167:     
                         440 --168:     R_PORT_SetAltFunc(Port11, 4, Alt1, Input);         /* CISH2I - MISO  */
                         441 --line168
                         442 ..lin.C.3A.5CUsers.5Cnikhil.2Epatil.5CDocuments.5Crenesas.5CRH850_F1L_sample.5Ctoolchain.5CGHS.5Coutput.5Cobj.5Cr_display.27::
                         443 .LDWlin27:
0000011e 0632            444 	mov	6,r6
00000120 043a            445 	mov	4,r7
00000122 0042            446 	mov	0,r8
00000124 004a            447 	mov	0,r9
                         448 	jarl	_R_PORT_SetAltFunc,lp
                         448 <EXPANSION BEGIN>
                         448 jarl22 _R_PORT_SetAltFunc , lp 
00000126 80ff0000*       448 <EXPANSION END>
                         449 --170:     R_CSIH2_Init();
                         450 --line170
                         451 ..lin.C.3A.5CUsers.5Cnikhil.2Epatil.5CDocuments.5Crenesas.5CRH850_F1L_sample.5Ctoolchain.5CGHS.5Coutput.5Cobj.5Cr_display.28::
                         452 .LDWlin28:
                         453 	jarl	_R_CSIH2_Init,lp
                         453 <EXPANSION BEGIN>
                         453 jarl22 _R_CSIH2_Init , lp 
0000012a 80ff0000*       453 <EXPANSION END>
                         454 --171:     R_CSIH2_C4_SetTxSize(8);
                         455 --line171
                         456 ..lin.C.3A.5CUsers.5Cnikhil.2Epatil.5CDocuments.5Crenesas.5CRH850_F1L_sample.5Ctoolchain.5CGHS.5Coutput.5Cobj.5Cr_display.29::
                         457 .LDWlin29:

                                                                      Page 10
                                                              C:\Users\NIKHIL~1.PAT\AppData\Local\Temp\gh_000aesk1.s
0000012e 0832            458 	mov	8,r6
                         459 	jarl	_R_CSIH2_C4_SetTxSize,lp
                         459 <EXPANSION BEGIN>
                         459 jarl22 _R_CSIH2_C4_SetTxSize , lp 
00000130 80ff0000*       459 <EXPANSION END>
                         460 --172:     
                         461 --173:       /* Initialization Sequence */
                         462 --174:     writeCommand(SSD1351_CMD_COMMANDLOCK);  /* set command lock */
                         463 --line174
                         464 ..lin.C.3A.5CUsers.5Cnikhil.2Epatil.5CDocuments.5Crenesas.5CRH850_F1L_sample.5Ctoolchain.5CGHS.5Coutput.5Cobj.5Cr_display.30::
                         465 .LDWlin30:
00000134 2036fd00        466 	movea	253,zero,r6
                         467 	jarl	_writeCommand,lp
                         467 <EXPANSION BEGIN>
                         467 jarl22 _writeCommand , lp 
00000138 80fffa05*       467 <EXPANSION END>
                         468 --175:     writeData(0x12u);  
                         469 --line175
                         470 ..lin.C.3A.5CUsers.5Cnikhil.2Epatil.5CDocuments.5Crenesas.5CRH850_F1L_sample.5Ctoolchain.5CGHS.5Coutput.5Cobj.5Cr_display.31::
                         471 .LDWlin31:
0000013c 20361200        472 	movea	18,zero,r6
                         473 	jarl	_writeData,lp
                         473 <EXPANSION BEGIN>
                         473 jarl22 _writeData , lp 
00000140 80ff1c06*       473 <EXPANSION END>
                         474 --176:     writeCommand(SSD1351_CMD_COMMANDLOCK);  /* set command lock */
                         475 --line176
                         476 ..lin.C.3A.5CUsers.5Cnikhil.2Epatil.5CDocuments.5Crenesas.5CRH850_F1L_sample.5Ctoolchain.5CGHS.5Coutput.5Cobj.5Cr_display.32::
                         477 .LDWlin32:
00000144 2036fd00        478 	movea	253,zero,r6
                         479 	jarl	_writeCommand,lp
                         479 <EXPANSION BEGIN>
                         479 jarl22 _writeCommand , lp 
00000148 80ffea05*       479 <EXPANSION END>
                         480 --177:     writeData(0xB1u);
                         481 --line177
                         482 ..lin.C.3A.5CUsers.5Cnikhil.2Epatil.5CDocuments.5Crenesas.5CRH850_F1L_sample.5Ctoolchain.5CGHS.5Coutput.5Cobj.5Cr_display.33::
                         483 .LDWlin33:
0000014c 2036b100        484 	movea	177,zero,r6
                         485 	jarl	_writeData,lp
                         485 <EXPANSION BEGIN>
                         485 jarl22 _writeData , lp 
00000150 80ff0c06*       485 <EXPANSION END>
                         486 --178:    
                         487 --179:     writeCommand(SSD1351_CMD_DISPLAYOFF);   /* 0xAE */
                         488 --line179
                         489 ..lin.C.3A.5CUsers.5Cnikhil.2Epatil.5CDocuments.5Crenesas.5CRH850_F1L_sample.5Ctoolchain.5CGHS.5Coutput.5Cobj.5Cr_display.34::
                         490 .LDWlin34:
00000154 2036ae00        491 	movea	174,zero,r6
                         492 	jarl	_writeCommand,lp
                         492 <EXPANSION BEGIN>
                         492 jarl22 _writeCommand , lp 
00000158 80ffda05*       492 <EXPANSION END>
                         493 --180:     writeCommand(SSD1351_CMD_CLOCKDIV);     /* 0xB3 */
                         494 --line180
                         495 ..lin.C.3A.5CUsers.5Cnikhil.2Epatil.5CDocuments.5Crenesas.5CRH850_F1L_sample.5Ctoolchain.5CGHS.5Coutput.5Cobj.5Cr_display.35::
                         496 .LDWlin35:
0000015c 2036b300        497 	movea	179,zero,r6
                         498 	jarl	_writeCommand,lp
                         498 <EXPANSION BEGIN>
                         498 jarl22 _writeCommand , lp 

                                                                      Page 11
                                                              C:\Users\NIKHIL~1.PAT\AppData\Local\Temp\gh_000aesk1.s
00000160 80ffd205*       498 <EXPANSION END>
                         499 --181:     writeData(0xF1u);                       /* 7:4 = Oscillator Frequency, 3:0 = CLK Div Ratio (A[3:0]+1 = 1..16) */
                         500 --line181
                         501 ..lin.C.3A.5CUsers.5Cnikhil.2Epatil.5CDocuments.5Crenesas.5CRH850_F1L_sample.5Ctoolchain.5CGHS.5Coutput.5Cobj.5Cr_display.36::
                         502 .LDWlin36:
00000164 2036f100        503 	movea	241,zero,r6
                         504 	jarl	_writeData,lp
                         504 <EXPANSION BEGIN>
                         504 jarl22 _writeData , lp 
00000168 80fff405*       504 <EXPANSION END>
                         505 --182:       
                         506 --183:     writeCommand(SSD1351_CMD_MUXRATIO);
                         507 --line183
                         508 ..lin.C.3A.5CUsers.5Cnikhil.2Epatil.5CDocuments.5Crenesas.5CRH850_F1L_sample.5Ctoolchain.5CGHS.5Coutput.5Cobj.5Cr_display.37::
                         509 .LDWlin37:
0000016c 2036ca00        510 	movea	202,zero,r6
                         511 	jarl	_writeCommand,lp
                         511 <EXPANSION BEGIN>
                         511 jarl22 _writeCommand , lp 
00000170 80ffc205*       511 <EXPANSION END>
                         512 --184:     writeData(127u);
                         513 --line184
                         514 ..lin.C.3A.5CUsers.5Cnikhil.2Epatil.5CDocuments.5Crenesas.5CRH850_F1L_sample.5Ctoolchain.5CGHS.5Coutput.5Cobj.5Cr_display.38::
                         515 .LDWlin38:
00000174 20367f00        516 	movea	127,zero,r6
                         517 	jarl	_writeData,lp
                         517 <EXPANSION BEGIN>
                         517 jarl22 _writeData , lp 
00000178 80ffe405*       517 <EXPANSION END>
                         518 --185:       
                         519 --186:     writeCommand(SSD1351_CMD_SETREMAP);
                         520 --line186
                         521 ..lin.C.3A.5CUsers.5Cnikhil.2Epatil.5CDocuments.5Crenesas.5CRH850_F1L_sample.5Ctoolchain.5CGHS.5Coutput.5Cobj.5Cr_display.39::
                         522 .LDWlin39:
0000017c 2036a000        523 	movea	160,zero,r6
                         524 	jarl	_writeCommand,lp
                         524 <EXPANSION BEGIN>
                         524 jarl22 _writeCommand , lp 
00000180 80ffb205*       524 <EXPANSION END>
                         525 --187:     writeData(0x74u);
                         526 --line187
                         527 ..lin.C.3A.5CUsers.5Cnikhil.2Epatil.5CDocuments.5Crenesas.5CRH850_F1L_sample.5Ctoolchain.5CGHS.5Coutput.5Cobj.5Cr_display.40::
                         528 .LDWlin40:
00000184 20367400        529 	movea	116,zero,r6
                         530 	jarl	_writeData,lp
                         530 <EXPANSION BEGIN>
                         530 jarl22 _writeData , lp 
00000188 80ffd405*       530 <EXPANSION END>
                         531 --188:     
                         532 --189:     writeCommand(SSD1351_CMD_SETCOLUMN);
                         533 --line189
                         534 ..lin.C.3A.5CUsers.5Cnikhil.2Epatil.5CDocuments.5Crenesas.5CRH850_F1L_sample.5Ctoolchain.5CGHS.5Coutput.5Cobj.5Cr_display.41::
                         535 .LDWlin41:
0000018c 20361500        536 	movea	21,zero,r6
                         537 	jarl	_writeCommand,lp
                         537 <EXPANSION BEGIN>
                         537 jarl22 _writeCommand , lp 
00000190 80ffa205*       537 <EXPANSION END>
                         538 --190:     writeData(0x00u);
                         539 --line190
                         540 ..lin.C.3A.5CUsers.5Cnikhil.2Epatil.5CDocuments.5Crenesas.5CRH850_F1L_sample.5Ctoolchain.5CGHS.5Coutput.5Cobj.5Cr_display.42::

                                                                      Page 12
                                                              C:\Users\NIKHIL~1.PAT\AppData\Local\Temp\gh_000aesk1.s
                         541 .LDWlin42:
00000194 0032            542 	mov	0,r6
                         543 	jarl	_writeData,lp
                         543 <EXPANSION BEGIN>
                         543 jarl22 _writeData , lp 
00000196 80ffc605*       543 <EXPANSION END>
                         544 --191:     writeData(0x7Fu);
                         545 --line191
                         546 ..lin.C.3A.5CUsers.5Cnikhil.2Epatil.5CDocuments.5Crenesas.5CRH850_F1L_sample.5Ctoolchain.5CGHS.5Coutput.5Cobj.5Cr_display.43::
                         547 .LDWlin43:
0000019a 20367f00        548 	movea	127,zero,r6
                         549 	jarl	_writeData,lp
                         549 <EXPANSION BEGIN>
                         549 jarl22 _writeData , lp 
0000019e 80ffbe05*       549 <EXPANSION END>
                         550 --192:     writeCommand(SSD1351_CMD_SETROW);
                         551 --line192
                         552 ..lin.C.3A.5CUsers.5Cnikhil.2Epatil.5CDocuments.5Crenesas.5CRH850_F1L_sample.5Ctoolchain.5CGHS.5Coutput.5Cobj.5Cr_display.44::
                         553 .LDWlin44:
000001a2 20367500        554 	movea	117,zero,r6
                         555 	jarl	_writeCommand,lp
                         555 <EXPANSION BEGIN>
                         555 jarl22 _writeCommand , lp 
000001a6 80ff8c05*       555 <EXPANSION END>
                         556 --193:     writeData(0x00u);
                         557 --line193
                         558 ..lin.C.3A.5CUsers.5Cnikhil.2Epatil.5CDocuments.5Crenesas.5CRH850_F1L_sample.5Ctoolchain.5CGHS.5Coutput.5Cobj.5Cr_display.45::
                         559 .LDWlin45:
000001aa 0032            560 	mov	0,r6
                         561 	jarl	_writeData,lp
                         561 <EXPANSION BEGIN>
                         561 jarl22 _writeData , lp 
000001ac 80ffb005*       561 <EXPANSION END>
                         562 --194:     writeData(0x7Fu);
                         563 --line194
                         564 ..lin.C.3A.5CUsers.5Cnikhil.2Epatil.5CDocuments.5Crenesas.5CRH850_F1L_sample.5Ctoolchain.5CGHS.5Coutput.5Cobj.5Cr_display.46::
                         565 .LDWlin46:
000001b0 20367f00        566 	movea	127,zero,r6
                         567 	jarl	_writeData,lp
                         567 <EXPANSION BEGIN>
                         567 jarl22 _writeData , lp 
000001b4 80ffa805*       567 <EXPANSION END>
                         568 --195:     
                         569 --196:     writeCommand(SSD1351_CMD_STARTLINE);        /* 0xA1 */
                         570 --line196
                         571 ..lin.C.3A.5CUsers.5Cnikhil.2Epatil.5CDocuments.5Crenesas.5CRH850_F1L_sample.5Ctoolchain.5CGHS.5Coutput.5Cobj.5Cr_display.47::
                         572 .LDWlin47:
000001b8 2036a100        573 	movea	161,zero,r6
                         574 	jarl	_writeCommand,lp
                         574 <EXPANSION BEGIN>
                         574 jarl22 _writeCommand , lp 
000001bc 80ff7605*       574 <EXPANSION END>
                         575 --197:     writeData(96u);
                         576 --line197
                         577 ..lin.C.3A.5CUsers.5Cnikhil.2Epatil.5CDocuments.5Crenesas.5CRH850_F1L_sample.5Ctoolchain.5CGHS.5Coutput.5Cobj.5Cr_display.48::
                         578 .LDWlin48:
000001c0 20366000        579 	movea	96,zero,r6
                         580 	jarl	_writeData,lp
                         580 <EXPANSION BEGIN>
                         580 jarl22 _writeData , lp 
000001c4 80ff9805*       580 <EXPANSION END>

                                                                      Page 13
                                                              C:\Users\NIKHIL~1.PAT\AppData\Local\Temp\gh_000aesk1.s
                         581 --198:     
                         582 --199:     writeCommand(SSD1351_CMD_DISPLAYOFFSET);    /* 0xA2 */
                         583 --line199
                         584 ..lin.C.3A.5CUsers.5Cnikhil.2Epatil.5CDocuments.5Crenesas.5CRH850_F1L_sample.5Ctoolchain.5CGHS.5Coutput.5Cobj.5Cr_display.49::
                         585 .LDWlin49:
000001c8 2036a200        586 	movea	162,zero,r6
                         587 	jarl	_writeCommand,lp
                         587 <EXPANSION BEGIN>
                         587 jarl22 _writeCommand , lp 
000001cc 80ff6605*       587 <EXPANSION END>
                         588 --200:     writeData(0x00u);
                         589 --line200
                         590 ..lin.C.3A.5CUsers.5Cnikhil.2Epatil.5CDocuments.5Crenesas.5CRH850_F1L_sample.5Ctoolchain.5CGHS.5Coutput.5Cobj.5Cr_display.50::
                         591 .LDWlin50:
000001d0 0032            592 	mov	0,r6
                         593 	jarl	_writeData,lp
                         593 <EXPANSION BEGIN>
                         593 jarl22 _writeData , lp 
000001d2 80ff8a05*       593 <EXPANSION END>
                         594 --201:     
                         595 --202:     writeCommand(SSD1351_CMD_SETGPIO);
                         596 --line202
                         597 ..lin.C.3A.5CUsers.5Cnikhil.2Epatil.5CDocuments.5Crenesas.5CRH850_F1L_sample.5Ctoolchain.5CGHS.5Coutput.5Cobj.5Cr_display.51::
                         598 .LDWlin51:
000001d6 2036b500        599 	movea	181,zero,r6
                         600 	jarl	_writeCommand,lp
                         600 <EXPANSION BEGIN>
                         600 jarl22 _writeCommand , lp 
000001da 80ff5805*       600 <EXPANSION END>
                         601 --203:     writeData(0x00u);
                         602 --line203
                         603 ..lin.C.3A.5CUsers.5Cnikhil.2Epatil.5CDocuments.5Crenesas.5CRH850_F1L_sample.5Ctoolchain.5CGHS.5Coutput.5Cobj.5Cr_display.52::
                         604 .LDWlin52:
000001de 0032            605 	mov	0,r6
                         606 	jarl	_writeData,lp
                         606 <EXPANSION BEGIN>
                         606 jarl22 _writeData , lp 
000001e0 80ff7c05*       606 <EXPANSION END>
                         607 --204:       
                         608 --205:     writeCommand(SSD1351_CMD_FUNCTIONSELECT);
                         609 --line205
                         610 ..lin.C.3A.5CUsers.5Cnikhil.2Epatil.5CDocuments.5Crenesas.5CRH850_F1L_sample.5Ctoolchain.5CGHS.5Coutput.5Cobj.5Cr_display.53::
                         611 .LDWlin53:
000001e4 2036ab00        612 	movea	171,zero,r6
                         613 	jarl	_writeCommand,lp
                         613 <EXPANSION BEGIN>
                         613 jarl22 _writeCommand , lp 
000001e8 80ff4a05*       613 <EXPANSION END>
                         614 --206:     writeData(0x41u);                           /* internal (diode drop) */
                         615 --line206
                         616 ..lin.C.3A.5CUsers.5Cnikhil.2Epatil.5CDocuments.5Crenesas.5CRH850_F1L_sample.5Ctoolchain.5CGHS.5Coutput.5Cobj.5Cr_display.54::
                         617 .LDWlin54:
000001ec 20364100        618 	movea	65,zero,r6
                         619 	jarl	_writeData,lp
                         619 <EXPANSION BEGIN>
                         619 jarl22 _writeData , lp 
000001f0 80ff6c05*       619 <EXPANSION END>
                         620 --207:     
                         621 --208:     writeCommand(SSD1351_CMD_PRECHARGE);        /* 0xB1 */
                         622 --line208
                         623 ..lin.C.3A.5CUsers.5Cnikhil.2Epatil.5CDocuments.5Crenesas.5CRH850_F1L_sample.5Ctoolchain.5CGHS.5Coutput.5Cobj.5Cr_display.55::

                                                                      Page 14
                                                              C:\Users\NIKHIL~1.PAT\AppData\Local\Temp\gh_000aesk1.s
                         624 .LDWlin55:
000001f4 2036b100        625 	movea	177,zero,r6
                         626 	jarl	_writeCommand,lp
                         626 <EXPANSION BEGIN>
                         626 jarl22 _writeCommand , lp 
000001f8 80ff3a05*       626 <EXPANSION END>
                         627 --209:     writeData(0x32u);
                         628 --line209
                         629 ..lin.C.3A.5CUsers.5Cnikhil.2Epatil.5CDocuments.5Crenesas.5CRH850_F1L_sample.5Ctoolchain.5CGHS.5Coutput.5Cobj.5Cr_display.56::
                         630 .LDWlin56:
000001fc 20363200        631 	movea	50,zero,r6
                         632 	jarl	_writeData,lp
                         632 <EXPANSION BEGIN>
                         632 jarl22 _writeData , lp 
00000200 80ff5c05*       632 <EXPANSION END>
                         633 --210:     
                         634 --211:     writeCommand(SSD1351_CMD_VCOMH);            /* 0xBE */
                         635 --line211
                         636 ..lin.C.3A.5CUsers.5Cnikhil.2Epatil.5CDocuments.5Crenesas.5CRH850_F1L_sample.5Ctoolchain.5CGHS.5Coutput.5Cobj.5Cr_display.57::
                         637 .LDWlin57:
00000204 2036be00        638 	movea	190,zero,r6
                         639 	jarl	_writeCommand,lp
                         639 <EXPANSION BEGIN>
                         639 jarl22 _writeCommand , lp 
00000208 80ff2a05*       639 <EXPANSION END>
                         640 --212:     writeData(0x05u);
                         641 --line212
                         642 ..lin.C.3A.5CUsers.5Cnikhil.2Epatil.5CDocuments.5Crenesas.5CRH850_F1L_sample.5Ctoolchain.5CGHS.5Coutput.5Cobj.5Cr_display.58::
                         643 .LDWlin58:
0000020c 0532            644 	mov	5,r6
                         645 	jarl	_writeData,lp
                         645 <EXPANSION BEGIN>
                         645 jarl22 _writeData , lp 
0000020e 80ff4e05*       645 <EXPANSION END>
                         646 --213:     
                         647 --214:     writeCommand(SSD1351_CMD_NORMALDISPLAY);    /* 0xA6 */
                         648 --line214
                         649 ..lin.C.3A.5CUsers.5Cnikhil.2Epatil.5CDocuments.5Crenesas.5CRH850_F1L_sample.5Ctoolchain.5CGHS.5Coutput.5Cobj.5Cr_display.59::
                         650 .LDWlin59:
00000212 2036a600        651 	movea	166,zero,r6
                         652 	jarl	_writeCommand,lp
                         652 <EXPANSION BEGIN>
                         652 jarl22 _writeCommand , lp 
00000216 80ff1c05*       652 <EXPANSION END>
                         653 --215:     
                         654 --216:     writeCommand(SSD1351_CMD_CONTRASTABC);
                         655 --line216
                         656 ..lin.C.3A.5CUsers.5Cnikhil.2Epatil.5CDocuments.5Crenesas.5CRH850_F1L_sample.5Ctoolchain.5CGHS.5Coutput.5Cobj.5Cr_display.60::
                         657 .LDWlin60:
0000021a 2036c100        658 	movea	193,zero,r6
                         659 	jarl	_writeCommand,lp
                         659 <EXPANSION BEGIN>
                         659 jarl22 _writeCommand , lp 
0000021e 80ff1405*       659 <EXPANSION END>
                         660 --217:     writeData(0x8Au);
                         661 --line217
                         662 ..lin.C.3A.5CUsers.5Cnikhil.2Epatil.5CDocuments.5Crenesas.5CRH850_F1L_sample.5Ctoolchain.5CGHS.5Coutput.5Cobj.5Cr_display.61::
                         663 .LDWlin61:
00000222 20368a00        664 	movea	138,zero,r6
                         665 	jarl	_writeData,lp
                         665 <EXPANSION BEGIN>

                                                                      Page 15
                                                              C:\Users\NIKHIL~1.PAT\AppData\Local\Temp\gh_000aesk1.s
                         665 jarl22 _writeData , lp 
00000226 80ff3605*       665 <EXPANSION END>
                         666 --218:     writeData(0x41u);
                         667 --line218
                         668 ..lin.C.3A.5CUsers.5Cnikhil.2Epatil.5CDocuments.5Crenesas.5CRH850_F1L_sample.5Ctoolchain.5CGHS.5Coutput.5Cobj.5Cr_display.62::
                         669 .LDWlin62:
0000022a 20364100        670 	movea	65,zero,r6
                         671 	jarl	_writeData,lp
                         671 <EXPANSION BEGIN>
                         671 jarl22 _writeData , lp 
0000022e 80ff2e05*       671 <EXPANSION END>
                         672 --219:     writeData(0x8Au);
                         673 --line219
                         674 ..lin.C.3A.5CUsers.5Cnikhil.2Epatil.5CDocuments.5Crenesas.5CRH850_F1L_sample.5Ctoolchain.5CGHS.5Coutput.5Cobj.5Cr_display.63::
                         675 .LDWlin63:
00000232 20368a00        676 	movea	138,zero,r6
                         677 	jarl	_writeData,lp
                         677 <EXPANSION BEGIN>
                         677 jarl22 _writeData , lp 
00000236 80ff2605*       677 <EXPANSION END>
                         678 --220:     
                         679 --221:     writeCommand(SSD1351_CMD_CONTRASTMASTER);
                         680 --line221
                         681 ..lin.C.3A.5CUsers.5Cnikhil.2Epatil.5CDocuments.5Crenesas.5CRH850_F1L_sample.5Ctoolchain.5CGHS.5Coutput.5Cobj.5Cr_display.64::
                         682 .LDWlin64:
0000023a 2036c700        683 	movea	199,zero,r6
                         684 	jarl	_writeCommand,lp
                         684 <EXPANSION BEGIN>
                         684 jarl22 _writeCommand , lp 
0000023e 80fff404*       684 <EXPANSION END>
                         685 --222:     writeData(0x07u);
                         686 --line222
                         687 ..lin.C.3A.5CUsers.5Cnikhil.2Epatil.5CDocuments.5Crenesas.5CRH850_F1L_sample.5Ctoolchain.5CGHS.5Coutput.5Cobj.5Cr_display.65::
                         688 .LDWlin65:
00000242 0732            689 	mov	7,r6
                         690 	jarl	_writeData,lp
                         690 <EXPANSION BEGIN>
                         690 jarl22 _writeData , lp 
00000244 80ff1805*       690 <EXPANSION END>
                         691 --223:     
                         692 --224:     writeCommand(SSD1351_CMD_SETVSL );
                         693 --line224
                         694 ..lin.C.3A.5CUsers.5Cnikhil.2Epatil.5CDocuments.5Crenesas.5CRH850_F1L_sample.5Ctoolchain.5CGHS.5Coutput.5Cobj.5Cr_display.66::
                         695 .LDWlin66:
00000248 2036b400        696 	movea	180,zero,r6
                         697 	jarl	_writeCommand,lp
                         697 <EXPANSION BEGIN>
                         697 jarl22 _writeCommand , lp 
0000024c 80ffe604*       697 <EXPANSION END>
                         698 --225:     writeData(0xA0u);
                         699 --line225
                         700 ..lin.C.3A.5CUsers.5Cnikhil.2Epatil.5CDocuments.5Crenesas.5CRH850_F1L_sample.5Ctoolchain.5CGHS.5Coutput.5Cobj.5Cr_display.67::
                         701 .LDWlin67:
00000250 2036a000        702 	movea	160,zero,r6
                         703 	jarl	_writeData,lp
                         703 <EXPANSION BEGIN>
                         703 jarl22 _writeData , lp 
00000254 80ff0805*       703 <EXPANSION END>
                         704 --226:     writeData(0xB5u);
                         705 --line226
                         706 ..lin.C.3A.5CUsers.5Cnikhil.2Epatil.5CDocuments.5Crenesas.5CRH850_F1L_sample.5Ctoolchain.5CGHS.5Coutput.5Cobj.5Cr_display.68::

                                                                      Page 16
                                                              C:\Users\NIKHIL~1.PAT\AppData\Local\Temp\gh_000aesk1.s
                         707 .LDWlin68:
00000258 2036b500        708 	movea	181,zero,r6
                         709 	jarl	_writeData,lp
                         709 <EXPANSION BEGIN>
                         709 jarl22 _writeData , lp 
0000025c 80ff0005*       709 <EXPANSION END>
                         710 --227:     writeData(0x55u);
                         711 --line227
                         712 ..lin.C.3A.5CUsers.5Cnikhil.2Epatil.5CDocuments.5Crenesas.5CRH850_F1L_sample.5Ctoolchain.5CGHS.5Coutput.5Cobj.5Cr_display.69::
                         713 .LDWlin69:
00000260 20365500        714 	movea	85,zero,r6
                         715 	jarl	_writeData,lp
                         715 <EXPANSION BEGIN>
                         715 jarl22 _writeData , lp 
00000264 80fff804*       715 <EXPANSION END>
                         716 --228:      
                         717 --229:     writeCommand(SSD1351_CMD_PRECHARGE2);
                         718 --line229
                         719 ..lin.C.3A.5CUsers.5Cnikhil.2Epatil.5CDocuments.5Crenesas.5CRH850_F1L_sample.5Ctoolchain.5CGHS.5Coutput.5Cobj.5Cr_display.70::
                         720 .LDWlin70:
00000268 2036b600        721 	movea	182,zero,r6
                         722 	jarl	_writeCommand,lp
                         722 <EXPANSION BEGIN>
                         722 jarl22 _writeCommand , lp 
0000026c 80ffc604*       722 <EXPANSION END>
                         723 --230:     writeData(0x01u);
                         724 --line230
                         725 ..lin.C.3A.5CUsers.5Cnikhil.2Epatil.5CDocuments.5Crenesas.5CRH850_F1L_sample.5Ctoolchain.5CGHS.5Coutput.5Cobj.5Cr_display.71::
                         726 .LDWlin71:
00000270 0132            727 	mov	1,r6
                         728 	jarl	_writeData,lp
                         728 <EXPANSION BEGIN>
                         728 jarl22 _writeData , lp 
00000272 80ffea04*       728 <EXPANSION END>
                         729 --231:     
                         730 --232:     R_DISPLAY_DrawRect(0,0,128,96,0);           /* Fill up */
                         731 --line232
                         732 ..lin.C.3A.5CUsers.5Cnikhil.2Epatil.5CDocuments.5Crenesas.5CRH850_F1L_sample.5Ctoolchain.5CGHS.5Coutput.5Cobj.5Cr_display.72::
                         733 .LDWlin72:
00000276 63070100        734 	st.w	zero,0[sp]
0000027a 0032            735 	mov	0,r6
0000027c 003a            736 	mov	0,r7
0000027e 20468000        737 	movea	128,zero,r8
00000282 204e6000        738 	movea	96,zero,r9
                         739 	jarl	_R_DISPLAY_DrawRect,lp
                         739 <EXPANSION BEGIN>
                         739 jarl22 _R_DISPLAY_DrawRect , lp 
00000286 80ff2a01*       739 <EXPANSION END>
                         740 --233:       
                         741 --234:     writeCommand(SSD1351_CMD_DISPLAYON);		/*--turn on oled panel */   
                         742 --line234
                         743 ..lin.C.3A.5CUsers.5Cnikhil.2Epatil.5CDocuments.5Crenesas.5CRH850_F1L_sample.5Ctoolchain.5CGHS.5Coutput.5Cobj.5Cr_display.73::
                         744 .LDWlin73:
0000028a 2036af00        745 	movea	175,zero,r6
                         746 	jarl	_writeCommand,lp
                         746 <EXPANSION BEGIN>
                         746 jarl22 _writeCommand , lp 
0000028e 80ffa404*       746 <EXPANSION END>
                         747 --235:     delay(200); 
                         748 --line235
                         749 ..lin.C.3A.5CUsers.5Cnikhil.2Epatil.5CDocuments.5Crenesas.5CRH850_F1L_sample.5Ctoolchain.5CGHS.5Coutput.5Cobj.5Cr_display.74::

                                                                      Page 17
                                                              C:\Users\NIKHIL~1.PAT\AppData\Local\Temp\gh_000aesk1.s
                         750 .LDWlin74:
00000292 2036c800        751 	movea	200,zero,r6
                         752 	jarl	_delay,lp
                         752 <EXPANSION BEGIN>
                         752 jarl22 _delay , lp 
00000296 80ff2605*       752 <EXPANSION END>
                         753 --236:     
                         754 --237:     return R_OK;
                         755 --line237
                         756 ..lin.C.3A.5CUsers.5Cnikhil.2Epatil.5CDocuments.5Crenesas.5CRH850_F1L_sample.5Ctoolchain.5CGHS.5Coutput.5Cobj.5Cr_display.75::
                         757 .LDWlin75:
0000029a 0052            758 	mov	0,r10
                         759 .L193:
                         760 --	    .ef
                         761 .LDW71:
0000029c 23ff0500        762 	ld.w	4[sp],lp
000002a0 481a            763 	add	8,sp
000002a2 7f00            764 	jmp	[lp]
                         765 	.global	___ghs_eofn_R_DISPLAY_Init
                         766 ___ghs_eofn_R_DISPLAY_Init:
                         767 	.type	_R_DISPLAY_Init,@function
                         768 	.size	_R_DISPLAY_Init,.-_R_DISPLAY_Init
                         769 	.align	2
                         770 
                         771 	.section ".bss","awb"
                         772 .L478:
                         773 	.type	.L478,@object
                         774 	.size	.L478,0
                         775 	.data
                         776 	.text
                         777 
                         778 --238: }
                         779 
                         780 --240: /*****************************************************************************
                         781 --241: ** Function:    R_DISPLAY_DrawImg
                         782 --242: ** Description: Draws rectangular image data on the display.
                         783 --243: ** Parameter:   x - Start coordinate x (pixels)
                         784 --244: **              y - Start coordimate y (pixels)
                         785 --245: **              width - Width of image (pixels)
                         786 --246: **              height - Height of image (pixels)
                         787 --247: **              *data - Pointer to image data
                         788 --248: ** Return:      None
                         789 --249: ******************************************************************************/
                         790 --250: void R_DISPLAY_DrawImg(uint8_t x, uint8_t y, uint8_t width, uint8_t height, uint16_t* data)
                         791 	.align	2
                         792 	.align	2
                         793 	.global	_R_DISPLAY_DrawImg
                         794 _R_DISPLAY_DrawImg:
000002a4 031ee4ff        795 	addi	-28,sp,sp
000002a8 63ff1900        796 	st.w	lp,24[sp]
000002ac 63ef0100        797 	st.w	r29,0[sp]
000002b0 63e70500        798 	st.w	r28,4[sp]
000002b4 63df0900        799 	st.w	r27,8[sp]
000002b8 63d70d00        800 	st.w	r26,12[sp]
000002bc 63cf1100        801 	st.w	r25,16[sp]
000002c0 63c71500        802 	st.w	r24,20[sp]
000002c4 23c71d00        803 	ld.w	28[sp],r24
000002c8 c8deff00        804 	andi	255,r8,r27
000002cc c7e6ff00        805 	andi	255,r7,r28
000002d0 c6eeff00        806 	andi	255,r6,r29
000002d4 c9d6ff00        807 	andi	255,r9,r26

                                                                      Page 18
                                                              C:\Users\NIKHIL~1.PAT\AppData\Local\Temp\gh_000aesk1.s
                         808 --	    .bf
                         809 .LDW81:
                         810 --251: {
                         811 --252:    uint32_t i;
                         812 --253:    
                         813 --254:   /* Bounds check */
                         814 --255:   while(x >= SSD1351WIDTH)
000002d8 c505*           815 	br	.L684
                         816 .L686:
                         817 --256:   {
                         818 --257:       x -= SSD1351WIDTH;
                         819 --line257
                         820 ..lin.C.3A.5CUsers.5Cnikhil.2Epatil.5CDocuments.5Crenesas.5CRH850_F1L_sample.5Ctoolchain.5CGHS.5Coutput.5Cobj.5Cr_display.76::
                         821 .LDWlin76:
000002da 1dee80ff        822 	addi	-128,r29,r29
000002de 9d00            823 	zxb	r29
                         824 .L684:
000002e0 1d0680ff        825 	addi	-128,r29,zero
000002e4 b1fd*           826 	bl	.L686
                         827 --258:   }
                         828 --259:   while(y >= SSD1351HEIGHT)
                         829 --line259
                         830 ..lin.C.3A.5CUsers.5Cnikhil.2Epatil.5CDocuments.5Crenesas.5CRH850_F1L_sample.5Ctoolchain.5CGHS.5Coutput.5Cobj.5Cr_display.77::
                         831 .LDWlin77:
000002e6 c505*           832 	br	.L687
                         833 .L689:
                         834 --260:   {
                         835 --261:       y -= SSD1351HEIGHT;
                         836 --line261
                         837 ..lin.C.3A.5CUsers.5Cnikhil.2Epatil.5CDocuments.5Crenesas.5CRH850_F1L_sample.5Ctoolchain.5CGHS.5Coutput.5Cobj.5Cr_display.78::
                         838 .LDWlin78:
000002e8 1ce6a0ff        839 	addi	-96,r28,r28
000002ec 9c00            840 	zxb	r28
                         841 .L687:
000002ee 1c06a0ff        842 	addi	-96,r28,zero
000002f2 b1fd*           843 	bl	.L689
                         844 --262:   }
                         845 --263:   
                         846 --265:   /* Y bounds check */
                         847 --266:   if (y+height > SSD1351HEIGHT)
                         848 --line266
                         849 ..lin.C.3A.5CUsers.5Cnikhil.2Epatil.5CDocuments.5Crenesas.5CRH850_F1L_sample.5Ctoolchain.5CGHS.5Coutput.5Cobj.5Cr_display.79::
                         850 .LDWlin79:
000002f4 1a08            851 	mov	r26,r1
000002f6 dc09            852 	add	r28,r1
000002f8 0106a0ff        853 	addi	-96,r1,zero
000002fc f705*           854 	ble	.L690
                         855 --267:   {
                         856 --268:     height = SSD1351HEIGHT - y - 1;
                         857 --line268
                         858 ..lin.C.3A.5CUsers.5Cnikhil.2Epatil.5CDocuments.5Crenesas.5CRH850_F1L_sample.5Ctoolchain.5CGHS.5Coutput.5Cobj.5Cr_display.80::
                         859 .LDWlin80:
000002fe 200e5f00        860 	movea	95,zero,r1
00000302 bc09            861 	sub	r28,r1
00000304 c1d6ff00        862 	andi	255,r1,r26
00000308 9a00            863 	zxb	r26
                         864 .L690:
                         865 --269:   }
                         866 --271:   /* X bounds check */
                         867 --272:   if (x+width > SSD1351WIDTH)
0000030a 1b08            868 	mov	r27,r1

                                                                      Page 19
                                                              C:\Users\NIKHIL~1.PAT\AppData\Local\Temp\gh_000aesk1.s
0000030c dd09            869 	add	r29,r1
0000030e 010680ff        870 	addi	-128,r1,zero
00000312 f705*           871 	ble	.L692
                         872 --273:   {
                         873 --274:     width = SSD1351WIDTH - x - 1;
                         874 --line274
                         875 ..lin.C.3A.5CUsers.5Cnikhil.2Epatil.5CDocuments.5Crenesas.5CRH850_F1L_sample.5Ctoolchain.5CGHS.5Coutput.5Cobj.5Cr_display.81::
                         876 .LDWlin81:
00000314 200e7f00        877 	movea	127,zero,r1
00000318 bd09            878 	sub	r29,r1
0000031a c1deff00        879 	andi	255,r1,r27
0000031e 9b00            880 	zxb	r27
                         881 .L692:
                         882 --275:   }
                         883 --276:   
                         884 --277:   R_CSIH2_C4_SetTxSize(8);
00000320 0832            885 	mov	8,r6
                         886 	jarl	_R_CSIH2_C4_SetTxSize,lp
                         886 <EXPANSION BEGIN>
                         886 jarl22 _R_CSIH2_C4_SetTxSize , lp 
00000322 80ff0000*       886 <EXPANSION END>
                         887 --278:   
                         888 --279:   /* Set X-Y-Coordinates */
                         889 --280:   writeCommand(SSD1351_CMD_SETCOLUMN);
                         890 --line280
                         891 ..lin.C.3A.5CUsers.5Cnikhil.2Epatil.5CDocuments.5Crenesas.5CRH850_F1L_sample.5Ctoolchain.5CGHS.5Coutput.5Cobj.5Cr_display.82::
                         892 .LDWlin82:
00000326 20361500        893 	movea	21,zero,r6
                         894 	jarl	_writeCommand,lp
                         894 <EXPANSION BEGIN>
                         894 jarl22 _writeCommand , lp 
0000032a 80ff0804*       894 <EXPANSION END>
                         895 --281:   writeData(x);
                         896 --line281
                         897 ..lin.C.3A.5CUsers.5Cnikhil.2Epatil.5CDocuments.5Crenesas.5CRH850_F1L_sample.5Ctoolchain.5CGHS.5Coutput.5Cobj.5Cr_display.83::
                         898 .LDWlin83:
0000032e 1d30            899 	mov	r29,r6
                         900 	jarl	_writeData,lp
                         900 <EXPANSION BEGIN>
                         900 jarl22 _writeData , lp 
00000330 80ff2c04*       900 <EXPANSION END>
                         901 --282:   writeData(x+width-1);
                         902 --line282
                         903 ..lin.C.3A.5CUsers.5Cnikhil.2Epatil.5CDocuments.5Crenesas.5CRH850_F1L_sample.5Ctoolchain.5CGHS.5Coutput.5Cobj.5Cr_display.84::
                         904 .LDWlin84:
00000334 1b08            905 	mov	r27,r1
00000336 dd09            906 	add	r29,r1
00000338 0136ffff        907 	addi	-1,r1,r6
0000033c c600            908 	zxh	r6
                         909 	jarl	_writeData,lp
                         909 <EXPANSION BEGIN>
                         909 jarl22 _writeData , lp 
0000033e 80ff1e04*       909 <EXPANSION END>
                         910 --283:   writeCommand(SSD1351_CMD_SETROW);
                         911 --line283
                         912 ..lin.C.3A.5CUsers.5Cnikhil.2Epatil.5CDocuments.5Crenesas.5CRH850_F1L_sample.5Ctoolchain.5CGHS.5Coutput.5Cobj.5Cr_display.85::
                         913 .LDWlin85:
00000342 20367500        914 	movea	117,zero,r6
                         915 	jarl	_writeCommand,lp
                         915 <EXPANSION BEGIN>
                         915 jarl22 _writeCommand , lp 

                                                                      Page 20
                                                              C:\Users\NIKHIL~1.PAT\AppData\Local\Temp\gh_000aesk1.s
00000346 80ffec03*       915 <EXPANSION END>
                         916 --284:   writeData(y);
                         917 --line284
                         918 ..lin.C.3A.5CUsers.5Cnikhil.2Epatil.5CDocuments.5Crenesas.5CRH850_F1L_sample.5Ctoolchain.5CGHS.5Coutput.5Cobj.5Cr_display.86::
                         919 .LDWlin86:
0000034a 1c30            920 	mov	r28,r6
                         921 	jarl	_writeData,lp
                         921 <EXPANSION BEGIN>
                         921 jarl22 _writeData , lp 
0000034c 80ff1004*       921 <EXPANSION END>
                         922 --285:   writeData(y+height-1);
                         923 --line285
                         924 ..lin.C.3A.5CUsers.5Cnikhil.2Epatil.5CDocuments.5Crenesas.5CRH850_F1L_sample.5Ctoolchain.5CGHS.5Coutput.5Cobj.5Cr_display.87::
                         925 .LDWlin87:
00000350 1a08            926 	mov	r26,r1
00000352 dc09            927 	add	r28,r1
00000354 0136ffff        928 	addi	-1,r1,r6
00000358 c600            929 	zxh	r6
                         930 	jarl	_writeData,lp
                         930 <EXPANSION BEGIN>
                         930 jarl22 _writeData , lp 
0000035a 80ff0204*       930 <EXPANSION END>
                         931 --286:   /* fill! */
                         932 --287:   writeCommand(SSD1351_CMD_WRITERAM);
                         933 --line287
                         934 ..lin.C.3A.5CUsers.5Cnikhil.2Epatil.5CDocuments.5Crenesas.5CRH850_F1L_sample.5Ctoolchain.5CGHS.5Coutput.5Cobj.5Cr_display.88::
                         935 .LDWlin88:
0000035e 20365c00        936 	movea	92,zero,r6
                         937 	jarl	_writeCommand,lp
                         937 <EXPANSION BEGIN>
                         937 jarl22 _writeCommand , lp 
00000362 80ffd003*       937 <EXPANSION END>
                         938 --288:   delay(20);
                         939 --line288
                         940 ..lin.C.3A.5CUsers.5Cnikhil.2Epatil.5CDocuments.5Crenesas.5CRH850_F1L_sample.5Ctoolchain.5CGHS.5Coutput.5Cobj.5Cr_display.89::
                         941 .LDWlin89:
00000366 20361400        942 	movea	20,zero,r6
                         943 	jarl	_delay,lp
                         943 <EXPANSION BEGIN>
                         943 jarl22 _delay , lp 
0000036a 80ff5204*       943 <EXPANSION END>
                         944 --289:   
                         945 --290:   R_CSIH2_C4_SetTxSize(16);
                         946 --line290
                         947 ..lin.C.3A.5CUsers.5Cnikhil.2Epatil.5CDocuments.5Crenesas.5CRH850_F1L_sample.5Ctoolchain.5CGHS.5Coutput.5Cobj.5Cr_display.90::
                         948 .LDWlin90:
0000036e 20361000        949 	movea	16,zero,r6
                         950 	jarl	_R_CSIH2_C4_SetTxSize,lp
                         950 <EXPANSION BEGIN>
                         950 jarl22 _R_CSIH2_C4_SetTxSize , lp 
00000372 80ff0000*       950 <EXPANSION END>
                         951 --291:   for (i=0; i < height*width; i++) 
                         952 --line291
                         953 ..lin.C.3A.5CUsers.5Cnikhil.2Epatil.5CDocuments.5Crenesas.5CRH850_F1L_sample.5Ctoolchain.5CGHS.5Coutput.5Cobj.5Cr_display.91::
                         954 .LDWlin91:
00000376 00ca            955 	mov	0,r25
00000378 f505*           956 	br	.L697
                         957 .L696:
                         958 --292:   {
                         959 --293:     writeData(*data);
                         960 --line293

                                                                      Page 21
                                                              C:\Users\NIKHIL~1.PAT\AppData\Local\Temp\gh_000aesk1.s
                         961 ..lin.C.3A.5CUsers.5Cnikhil.2Epatil.5CDocuments.5Crenesas.5CRH850_F1L_sample.5Ctoolchain.5CGHS.5Coutput.5Cobj.5Cr_display.92::
                         962 .LDWlin92:
0000037a f8370100        963 	ld.hu	0[r24],r6
                         964 	jarl	_writeData,lp
                         964 <EXPANSION BEGIN>
                         964 jarl22 _writeData , lp 
0000037e 80ffde03*       964 <EXPANSION END>
                         965 --294:     data++;
                         966 --line294
                         967 ..lin.C.3A.5CUsers.5Cnikhil.2Epatil.5CDocuments.5Crenesas.5CRH850_F1L_sample.5Ctoolchain.5CGHS.5Coutput.5Cobj.5Cr_display.93::
                         968 .LDWlin93:
00000382 42c2            969 	add	2,r24
00000384 41ca            970 	add	1,r25
                         971 .L697:
00000386 1a08            972 	mov	r26,r1
00000388 fb08            973 	mulh	r27,r1
0000038a e1c9            974 	cmp	r1,r25
0000038c f1f5*           975 	bl	.L696
                         976 --295:   }
                         977 --296: }
                         978 --	    .ef
                         979 .LDW91:
                         980 --line296
                         981 ..lin.C.3A.5CUsers.5Cnikhil.2Epatil.5CDocuments.5Crenesas.5CRH850_F1L_sample.5Ctoolchain.5CGHS.5Coutput.5Cobj.5Cr_display.94::
                         982 .LDWlin94:
0000038e 23ff1900        983 	ld.w	24[sp],lp
00000392 23ef0100        984 	ld.w	0[sp],r29
00000396 23e70500        985 	ld.w	4[sp],r28
0000039a 23df0900        986 	ld.w	8[sp],r27
0000039e 23d70d00        987 	ld.w	12[sp],r26
000003a2 23cf1100        988 	ld.w	16[sp],r25
000003a6 23c71500        989 	ld.w	20[sp],r24
000003aa 031e1c00        990 	addi	28,sp,sp
000003ae 7f00            991 	jmp	[lp]
                         992 	.global	___ghs_eofn_R_DISPLAY_DrawImg
                         993 ___ghs_eofn_R_DISPLAY_DrawImg:
                         994 	.type	_R_DISPLAY_DrawImg,@function
                         995 	.size	_R_DISPLAY_DrawImg,.-_R_DISPLAY_DrawImg
                         996 	.align	2
                         997 --_i	r25	local
                         998 
                         999 --_x	r29	param
                        1000 --_y	r28	param
                        1001 --_width	r27	param
                        1002 --_height	r26	param
                        1003 --_data	r24	param
                        1004 
                        1005 	.section ".bss","awb"
                        1006 .L830:
                        1007 	.type	.L830,@object
                        1008 	.size	.L830,0
                        1009 	.data
                        1010 	.text
                        1011 
                        1012 
                        1013 --298: /*****************************************************************************
                        1014 --299: ** Function:    R_DISPLAY_DrawRect
                        1015 --300: ** Description: Draw a rectangle on the display.
                        1016 --301: ** Parameter:   x - Start coordinate x (pixels)
                        1017 --302: **              y - Start coordimate y (pixels)
                        1018 --303: **              width - Width of image (pixels)

                                                                      Page 22
                                                              C:\Users\NIKHIL~1.PAT\AppData\Local\Temp\gh_000aesk1.s
                        1019 --304: **              height - Height of image (pixels)
                        1020 --305: **              color - Color of rectangle
                        1021 --306: ** Return:      None
                        1022 --307: ******************************************************************************/
                        1023 --308: void R_DISPLAY_DrawRect(uint8_t x, uint8_t y, uint8_t width, uint8_t height, uint16_t color)
                        1024 	.align	2
                        1025 	.align	2
                        1026 	.global	_R_DISPLAY_DrawRect
                        1027 _R_DISPLAY_DrawRect:
000003b0 031ee4ff       1028 	addi	-28,sp,sp
000003b4 63ff1900       1029 	st.w	lp,24[sp]
000003b8 63ef0100       1030 	st.w	r29,0[sp]
000003bc 63e70500       1031 	st.w	r28,4[sp]
000003c0 63df0900       1032 	st.w	r27,8[sp]
000003c4 63d70d00       1033 	st.w	r26,12[sp]
000003c8 63cf1100       1034 	st.w	r25,16[sp]
000003cc 63c71500       1035 	st.w	r24,20[sp]
000003d0 e3c71d00       1036 	ld.hu	28[sp],r24
000003d4 c8deff00       1037 	andi	255,r8,r27
000003d8 c7e6ff00       1038 	andi	255,r7,r28
000003dc c6eeff00       1039 	andi	255,r6,r29
000003e0 c9d6ff00       1040 	andi	255,r9,r26
                        1041 --	    .bf
                        1042 .LDW02:
                        1043 --309: {
                        1044 --310:   uint32_t i;
                        1045 --311:     
                        1046 --312:     /* Bounds check */
                        1047 --313:   while(x >= SSD1351WIDTH)
000003e4 c505*          1048 	br	.L928
                        1049 .L930:
                        1050 --314:   {
                        1051 --315:       x -= SSD1351WIDTH;
                        1052 --line315
                        1053 ..lin.C.3A.5CUsers.5Cnikhil.2Epatil.5CDocuments.5Crenesas.5CRH850_F1L_sample.5Ctoolchain.5CGHS.5Coutput.5Cobj.5Cr_display.95::
                        1054 .LDWlin95:
000003e6 1dee80ff       1055 	addi	-128,r29,r29
000003ea 9d00           1056 	zxb	r29
                        1057 .L928:
000003ec 1d0680ff       1058 	addi	-128,r29,zero
000003f0 b1fd*          1059 	bl	.L930
                        1060 --316:   }
                        1061 --317:   while(y >= SSD1351HEIGHT)
                        1062 --line317
                        1063 ..lin.C.3A.5CUsers.5Cnikhil.2Epatil.5CDocuments.5Crenesas.5CRH850_F1L_sample.5Ctoolchain.5CGHS.5Coutput.5Cobj.5Cr_display.96::
                        1064 .LDWlin96:
000003f2 c505*          1065 	br	.L931
                        1066 .L933:
                        1067 --318:   {
                        1068 --319:       y -= SSD1351HEIGHT;
                        1069 --line319
                        1070 ..lin.C.3A.5CUsers.5Cnikhil.2Epatil.5CDocuments.5Crenesas.5CRH850_F1L_sample.5Ctoolchain.5CGHS.5Coutput.5Cobj.5Cr_display.97::
                        1071 .LDWlin97:
000003f4 1ce6a0ff       1072 	addi	-96,r28,r28
000003f8 9c00           1073 	zxb	r28
                        1074 .L931:
000003fa 1c06a0ff       1075 	addi	-96,r28,zero
000003fe b1fd*          1076 	bl	.L933
                        1077 --320:   }
                        1078 --321:   
                        1079 --323:   /* Y bounds check */

                                                                      Page 23
                                                              C:\Users\NIKHIL~1.PAT\AppData\Local\Temp\gh_000aesk1.s
                        1080 --324:   if (y+height > SSD1351HEIGHT)
                        1081 --line324
                        1082 ..lin.C.3A.5CUsers.5Cnikhil.2Epatil.5CDocuments.5Crenesas.5CRH850_F1L_sample.5Ctoolchain.5CGHS.5Coutput.5Cobj.5Cr_display.98::
                        1083 .LDWlin98:
00000400 1a08           1084 	mov	r26,r1
00000402 dc09           1085 	add	r28,r1
00000404 0106a0ff       1086 	addi	-96,r1,zero
00000408 f705*          1087 	ble	.L934
                        1088 --325:   {
                        1089 --326:     height = SSD1351HEIGHT - y - 1;
                        1090 --line326
                        1091 ..lin.C.3A.5CUsers.5Cnikhil.2Epatil.5CDocuments.5Crenesas.5CRH850_F1L_sample.5Ctoolchain.5CGHS.5Coutput.5Cobj.5Cr_display.99::
                        1092 .LDWlin99:
0000040a 200e5f00       1093 	movea	95,zero,r1
0000040e bc09           1094 	sub	r28,r1
00000410 c1d6ff00       1095 	andi	255,r1,r26
00000414 9a00           1096 	zxb	r26
                        1097 .L934:
                        1098 --327:   }
                        1099 --329:   /* X bounds check */
                        1100 --330:   if (x+width > SSD1351WIDTH)
00000416 1b08           1101 	mov	r27,r1
00000418 dd09           1102 	add	r29,r1
0000041a 010680ff       1103 	addi	-128,r1,zero
0000041e f705*          1104 	ble	.L936
                        1105 --331:   {
                        1106 --332:     width = SSD1351WIDTH - x - 1;
                        1107 --line332
                        1108 ..lin.C.3A.5CUsers.5Cnikhil.2Epatil.5CDocuments.5Crenesas.5CRH850_F1L_sample.5Ctoolchain.5CGHS.5Coutput.5Cobj.5Cr_display.100::
                        1109 .LDWlin100:
00000420 200e7f00       1110 	movea	127,zero,r1
00000424 bd09           1111 	sub	r29,r1
00000426 c1deff00       1112 	andi	255,r1,r27
0000042a 9b00           1113 	zxb	r27
                        1114 .L936:
                        1115 --333:   }
                        1116 --334:   
                        1117 --335:   R_CSIH2_C4_SetTxSize(8);
0000042c 0832           1118 	mov	8,r6
                        1119 	jarl	_R_CSIH2_C4_SetTxSize,lp
                        1119 <EXPANSION BEGIN>
                        1119 jarl22 _R_CSIH2_C4_SetTxSize , lp 
0000042e 80ff0000*      1119 <EXPANSION END>
                        1120 --336:   
                        1121 --337:   /* Set X-Y-Coordinates */
                        1122 --338:   writeCommand(SSD1351_CMD_SETCOLUMN);
                        1123 --line338
                        1124 ..lin.C.3A.5CUsers.5Cnikhil.2Epatil.5CDocuments.5Crenesas.5CRH850_F1L_sample.5Ctoolchain.5CGHS.5Coutput.5Cobj.5Cr_display.101::
                        1125 .LDWlin101:
00000432 20361500       1126 	movea	21,zero,r6
                        1127 	jarl	_writeCommand,lp
                        1127 <EXPANSION BEGIN>
                        1127 jarl22 _writeCommand , lp 
00000436 80fffc02*      1127 <EXPANSION END>
                        1128 --339:   writeData(x);
                        1129 --line339
                        1130 ..lin.C.3A.5CUsers.5Cnikhil.2Epatil.5CDocuments.5Crenesas.5CRH850_F1L_sample.5Ctoolchain.5CGHS.5Coutput.5Cobj.5Cr_display.102::
                        1131 .LDWlin102:
0000043a 1d30           1132 	mov	r29,r6
                        1133 	jarl	_writeData,lp
                        1133 <EXPANSION BEGIN>

                                                                      Page 24
                                                              C:\Users\NIKHIL~1.PAT\AppData\Local\Temp\gh_000aesk1.s
                        1133 jarl22 _writeData , lp 
0000043c 80ff2003*      1133 <EXPANSION END>
                        1134 --340:   writeData(x+width-1);
                        1135 --line340
                        1136 ..lin.C.3A.5CUsers.5Cnikhil.2Epatil.5CDocuments.5Crenesas.5CRH850_F1L_sample.5Ctoolchain.5CGHS.5Coutput.5Cobj.5Cr_display.103::
                        1137 .LDWlin103:
00000440 1b08           1138 	mov	r27,r1
00000442 dd09           1139 	add	r29,r1
00000444 0136ffff       1140 	addi	-1,r1,r6
00000448 c600           1141 	zxh	r6
                        1142 	jarl	_writeData,lp
                        1142 <EXPANSION BEGIN>
                        1142 jarl22 _writeData , lp 
0000044a 80ff1203*      1142 <EXPANSION END>
                        1143 --341:   writeCommand(SSD1351_CMD_SETROW);
                        1144 --line341
                        1145 ..lin.C.3A.5CUsers.5Cnikhil.2Epatil.5CDocuments.5Crenesas.5CRH850_F1L_sample.5Ctoolchain.5CGHS.5Coutput.5Cobj.5Cr_display.104::
                        1146 .LDWlin104:
0000044e 20367500       1147 	movea	117,zero,r6
                        1148 	jarl	_writeCommand,lp
                        1148 <EXPANSION BEGIN>
                        1148 jarl22 _writeCommand , lp 
00000452 80ffe002*      1148 <EXPANSION END>
                        1149 --342:   writeData(y);
                        1150 --line342
                        1151 ..lin.C.3A.5CUsers.5Cnikhil.2Epatil.5CDocuments.5Crenesas.5CRH850_F1L_sample.5Ctoolchain.5CGHS.5Coutput.5Cobj.5Cr_display.105::
                        1152 .LDWlin105:
00000456 1c30           1153 	mov	r28,r6
                        1154 	jarl	_writeData,lp
                        1154 <EXPANSION BEGIN>
                        1154 jarl22 _writeData , lp 
00000458 80ff0403*      1154 <EXPANSION END>
                        1155 --343:   writeData(y+height-1);
                        1156 --line343
                        1157 ..lin.C.3A.5CUsers.5Cnikhil.2Epatil.5CDocuments.5Crenesas.5CRH850_F1L_sample.5Ctoolchain.5CGHS.5Coutput.5Cobj.5Cr_display.106::
                        1158 .LDWlin106:
0000045c 1a08           1159 	mov	r26,r1
0000045e dc09           1160 	add	r28,r1
00000460 0136ffff       1161 	addi	-1,r1,r6
00000464 c600           1162 	zxh	r6
                        1163 	jarl	_writeData,lp
                        1163 <EXPANSION BEGIN>
                        1163 jarl22 _writeData , lp 
00000466 80fff602*      1163 <EXPANSION END>
                        1164 --344:   /* fill! */
                        1165 --345:   writeCommand(SSD1351_CMD_WRITERAM);
                        1166 --line345
                        1167 ..lin.C.3A.5CUsers.5Cnikhil.2Epatil.5CDocuments.5Crenesas.5CRH850_F1L_sample.5Ctoolchain.5CGHS.5Coutput.5Cobj.5Cr_display.107::
                        1168 .LDWlin107:
0000046a 20365c00       1169 	movea	92,zero,r6
                        1170 	jarl	_writeCommand,lp
                        1170 <EXPANSION BEGIN>
                        1170 jarl22 _writeCommand , lp 
0000046e 80ffc402*      1170 <EXPANSION END>
                        1171 --346:   delay(20);
                        1172 --line346
                        1173 ..lin.C.3A.5CUsers.5Cnikhil.2Epatil.5CDocuments.5Crenesas.5CRH850_F1L_sample.5Ctoolchain.5CGHS.5Coutput.5Cobj.5Cr_display.108::
                        1174 .LDWlin108:
00000472 20361400       1175 	movea	20,zero,r6
                        1176 	jarl	_delay,lp
                        1176 <EXPANSION BEGIN>

                                                                      Page 25
                                                              C:\Users\NIKHIL~1.PAT\AppData\Local\Temp\gh_000aesk1.s
                        1176 jarl22 _delay , lp 
00000476 80ff4603*      1176 <EXPANSION END>
                        1177 --347:   
                        1178 --348:   R_CSIH2_C4_SetTxSize(16);
                        1179 --line348
                        1180 ..lin.C.3A.5CUsers.5Cnikhil.2Epatil.5CDocuments.5Crenesas.5CRH850_F1L_sample.5Ctoolchain.5CGHS.5Coutput.5Cobj.5Cr_display.109::
                        1181 .LDWlin109:
0000047a 20361000       1182 	movea	16,zero,r6
                        1183 	jarl	_R_CSIH2_C4_SetTxSize,lp
                        1183 <EXPANSION BEGIN>
                        1183 jarl22 _R_CSIH2_C4_SetTxSize , lp 
0000047e 80ff0000*      1183 <EXPANSION END>
                        1184 --349:   for (i=0; i < height*width; i++) 
                        1185 --line349
                        1186 ..lin.C.3A.5CUsers.5Cnikhil.2Epatil.5CDocuments.5Crenesas.5CRH850_F1L_sample.5Ctoolchain.5CGHS.5Coutput.5Cobj.5Cr_display.110::
                        1187 .LDWlin110:
00000482 00ca           1188 	mov	0,r25
00000484 d505*          1189 	br	.L941
                        1190 .L940:
                        1191 --350:   {
                        1192 --351:     writeData(color);
                        1193 --line351
                        1194 ..lin.C.3A.5CUsers.5Cnikhil.2Epatil.5CDocuments.5Crenesas.5CRH850_F1L_sample.5Ctoolchain.5CGHS.5Coutput.5Cobj.5Cr_display.111::
                        1195 .LDWlin111:
00000486 1830           1196 	mov	r24,r6
                        1197 	jarl	_writeData,lp
                        1197 <EXPANSION BEGIN>
                        1197 jarl22 _writeData , lp 
00000488 80ffd402*      1197 <EXPANSION END>
                        1198 --line349
                        1199 ..lin.C.3A.5CUsers.5Cnikhil.2Epatil.5CDocuments.5Crenesas.5CRH850_F1L_sample.5Ctoolchain.5CGHS.5Coutput.5Cobj.5Cr_display.112::
                        1200 .LDWlin112:
0000048c 41ca           1201 	add	1,r25
                        1202 .L941:
0000048e 1a08           1203 	mov	r26,r1
00000490 fb08           1204 	mulh	r27,r1
00000492 e1c9           1205 	cmp	r1,r25
00000494 91fd*          1206 	bl	.L940
                        1207 --352:   }
                        1208 --353: }
                        1209 --	    .ef
                        1210 .LDW12:
                        1211 --line353
                        1212 ..lin.C.3A.5CUsers.5Cnikhil.2Epatil.5CDocuments.5Crenesas.5CRH850_F1L_sample.5Ctoolchain.5CGHS.5Coutput.5Cobj.5Cr_display.113::
                        1213 .LDWlin113:
00000496 23ff1900       1214 	ld.w	24[sp],lp
0000049a 23ef0100       1215 	ld.w	0[sp],r29
0000049e 23e70500       1216 	ld.w	4[sp],r28
000004a2 23df0900       1217 	ld.w	8[sp],r27
000004a6 23d70d00       1218 	ld.w	12[sp],r26
000004aa 23cf1100       1219 	ld.w	16[sp],r25
000004ae 23c71500       1220 	ld.w	20[sp],r24
000004b2 031e1c00       1221 	addi	28,sp,sp
000004b6 7f00           1222 	jmp	[lp]
                        1223 	.global	___ghs_eofn_R_DISPLAY_DrawRect
                        1224 ___ghs_eofn_R_DISPLAY_DrawRect:
                        1225 	.type	_R_DISPLAY_DrawRect,@function
                        1226 	.size	_R_DISPLAY_DrawRect,.-_R_DISPLAY_DrawRect
                        1227 	.align	2
                        1228 --_i	r25	local
                        1229 

                                                                      Page 26
                                                              C:\Users\NIKHIL~1.PAT\AppData\Local\Temp\gh_000aesk1.s
                        1230 --_x	r29	param
                        1231 --_y	r28	param
                        1232 --_width	r27	param
                        1233 --_height	r26	param
                        1234 --_color	r24	param
                        1235 
                        1236 	.section ".bss","awb"
                        1237 .L1066:
                        1238 	.type	.L1066,@object
                        1239 	.size	.L1066,0
                        1240 	.data
                        1241 	.text
                        1242 
                        1243 
                        1244 --355: /*****************************************************************************
                        1245 --356: ** Function:    drawChar
                        1246 --357: ** Description: Draw single character.
                        1247 --358: ** Parameter:   x - Start coordinate x (pixels)
                        1248 --359: **              y - Start coordimate y (pixels)
                        1249 --360: **              c - character
                        1250 --361: **              color - Color of character
                        1251 --362: **              bg - nackground color
                        1252 --363: **              size - font size
                        1253 --364: ** Return:      None
                        1254 --365: ******************************************************************************/
                        1255 --366: void drawChar(uint8_t x, uint8_t  y, char_t c, uint16_t  color, uint16_t  bg, uint8_t  size)
                        1256 	.align	2
                        1257 	.align	2
                        1258 	.align	2
                        1259 	.global	_drawChar
                        1260 _drawChar:
000004b8 031ed4ff       1261 	addi	-44,sp,sp
000004bc 63ff2900       1262 	st.w	lp,40[sp]
000004c0 63ef0500       1263 	st.w	r29,4[sp]
000004c4 63e70900       1264 	st.w	r28,8[sp]
000004c8 63df0d00       1265 	st.w	r27,12[sp]
000004cc 63d71100       1266 	st.w	r26,16[sp]
000004d0 63cf1500       1267 	st.w	r25,20[sp]
000004d4 63c71900       1268 	st.w	r24,24[sp]
000004d8 63bf1d00       1269 	st.w	r23,28[sp]
000004dc 63b72100       1270 	st.w	r22,32[sp]
000004e0 63af2500       1271 	st.w	r21,36[sp]
000004e4 83df3100       1272 	ld.bu	48[sp],r27
000004e8 e3b72d00       1273 	ld.hu	44[sp],r22
000004ec c9beffff       1274 	andi	65535,r9,r23
000004f0 08a8           1275 	mov	r8,r21
000004f2 c7c6ff00       1276 	andi	255,r7,r24
000004f6 c6ceff00       1277 	andi	255,r6,r25
000004fa b500           1278 	sxb	r21
                        1279 --	    .bf
                        1280 .LDW22:
                        1281 --367: {
                        1282 --368:   uint8_t line,i,j;
                        1283 --369:   for (i=0; i<6; i++ ) 
000004fc 00ea           1284 	mov	0,r29
000004fe 0000           1285 	nop
                        1286 .L1163:
                        1287 --370:   {
                        1288 --371:     
                        1289 --372:     if (i == 5) 
00000500 65ea           1290 	cmp	5,r29

                                                                      Page 27
                                                              C:\Users\NIKHIL~1.PAT\AppData\Local\Temp\gh_000aesk1.s
00000502 ba05*          1291 	bne	.L1164
                        1292 --373:     {
                        1293 --374:       line = 0x0;
                        1294 --line374
                        1295 ..lin.C.3A.5CUsers.5Cnikhil.2Epatil.5CDocuments.5Crenesas.5CRH850_F1L_sample.5Ctoolchain.5CGHS.5Coutput.5Cobj.5Cr_display.114::
                        1296 .LDWlin114:
00000504 00d2           1297 	mov	0,r26
00000506 950d*          1298 	br	.L1166
                        1299 .L1164:
                        1300 --375:     }
                        1301 --376:     else 
                        1302 --377:     {
                        1303 --378:       line = font[c*5+i];
                        1304 --line378
                        1305 ..lin.C.3A.5CUsers.5Cnikhil.2Epatil.5CDocuments.5Crenesas.5CRH850_F1L_sample.5Ctoolchain.5CGHS.5Coutput.5Cobj.5Cr_display.115::
                        1306 .LDWlin115:
00000508 f5f60500       1307 	mulhi	5,r21,ep
0000050c 220600000000*  1308 	mov	_font,r2
00000512 ddf1           1309 	add	r29,ep
00000514 c2f1           1310 	add	r2,ep
00000516 60d0           1311 	sld.bu	0[ep],r26
                        1312 .L1166:
                        1313 --379:     }
                        1314 --380:       
                        1315 --381:     for (j = 0; j<8; j++)
00000518 00e2           1316 	mov	0,r28
0000051a 0000           1317 	nop
                        1318 .L1169:
                        1319 --382:       {
                        1320 --383:         if (line & 0x1) 
0000051c da060100       1321 	andi	1,r26,zero
00000520 e21d*          1322 	be	.L1170
                        1323 --384:         {
                        1324 --385:            if (size == 1) /* default size */
                        1325 --line385
                        1326 ..lin.C.3A.5CUsers.5Cnikhil.2Epatil.5CDocuments.5Crenesas.5CRH850_F1L_sample.5Ctoolchain.5CGHS.5Coutput.5Cobj.5Cr_display.116::
                        1327 .LDWlin116:
00000522 61da           1328 	cmp	1,r27
00000524 ba0d*          1329 	bne	.L1172
                        1330 --386:            drawPixel(x+i, y+j, color);
                        1331 --line386
                        1332 ..lin.C.3A.5CUsers.5Cnikhil.2Epatil.5CDocuments.5Crenesas.5CRH850_F1L_sample.5Ctoolchain.5CGHS.5Coutput.5Cobj.5Cr_display.117::
                        1333 .LDWlin117:
00000526 1d30           1334 	mov	r29,r6
00000528 1c38           1335 	mov	r28,r7
0000052a d931           1336 	add	r25,r6
0000052c d839           1337 	add	r24,r7
0000052e 8600           1338 	zxb	r6
00000530 8700           1339 	zxb	r7
00000532 1740           1340 	mov	r23,r8
                        1341 	jarl	_drawPixel,lp
                        1341 <EXPANSION BEGIN>
                        1341 jarl22 _drawPixel , lp 
00000534 80ff1201*      1341 <EXPANSION END>
00000538 8535*          1342 	br	.L1175
                        1343 .L1172:
                        1344 --387:            
                        1345 --388:            else  /*big size*/ 
                        1346 --389:            {  
                        1347 --390:              R_DISPLAY_DrawRect(x+(i*size), y+(j*size), size, size, color);
                        1348 --line390

                                                                      Page 28
                                                              C:\Users\NIKHIL~1.PAT\AppData\Local\Temp\gh_000aesk1.s
                        1349 ..lin.C.3A.5CUsers.5Cnikhil.2Epatil.5CDocuments.5Crenesas.5CRH850_F1L_sample.5Ctoolchain.5CGHS.5Coutput.5Cobj.5Cr_display.118::
                        1350 .LDWlin118:
0000053a 1d08           1351 	mov	r29,r1
0000053c fb08           1352 	mulh	r27,r1
0000053e 1b40           1353 	mov	r27,r8
00000540 1b48           1354 	mov	r27,r9
00000542 63bf0100       1355 	st.w	r23,0[sp]
00000546 d909           1356 	add	r25,r1
00000548 0130           1357 	mov	r1,r6
0000054a 1c08           1358 	mov	r28,r1
0000054c fb08           1359 	mulh	r27,r1
0000054e 8600           1360 	zxb	r6
00000550 d809           1361 	add	r24,r1
00000552 c13eff00       1362 	andi	255,r1,r7
                        1363 	jarl	_R_DISPLAY_DrawRect,lp
                        1363 <EXPANSION BEGIN>
                        1363 jarl22 _R_DISPLAY_DrawRect , lp 
00000556 bfff5afe*      1363 <EXPANSION END>
0000055a f51d*          1364 	br	.L1175
                        1365 .L1170:
                        1366 --391:            } 
                        1367 --392:        } 
                        1368 --393:        
                        1369 --394:        else if (bg != color) 
                        1370 --line394
                        1371 ..lin.C.3A.5CUsers.5Cnikhil.2Epatil.5CDocuments.5Crenesas.5CRH850_F1L_sample.5Ctoolchain.5CGHS.5Coutput.5Cobj.5Cr_display.119::
                        1372 .LDWlin119:
0000055c f7b1           1373 	cmp	r23,r22
0000055e d21d*          1374 	be	.L1175
                        1375 --395:         {
                        1376 --396:          if (size == 1) /* default size */
                        1377 --line396
                        1378 ..lin.C.3A.5CUsers.5Cnikhil.2Epatil.5CDocuments.5Crenesas.5CRH850_F1L_sample.5Ctoolchain.5CGHS.5Coutput.5Cobj.5Cr_display.120::
                        1379 .LDWlin120:
00000560 61da           1380 	cmp	1,r27
00000562 ba0d*          1381 	bne	.L1178
                        1382 --397:          drawPixel(x+i, y+j, bg);
                        1383 --line397
                        1384 ..lin.C.3A.5CUsers.5Cnikhil.2Epatil.5CDocuments.5Crenesas.5CRH850_F1L_sample.5Ctoolchain.5CGHS.5Coutput.5Cobj.5Cr_display.121::
                        1385 .LDWlin121:
00000564 1d30           1386 	mov	r29,r6
00000566 1c38           1387 	mov	r28,r7
00000568 d931           1388 	add	r25,r6
0000056a d839           1389 	add	r24,r7
0000056c 8600           1390 	zxb	r6
0000056e 8700           1391 	zxb	r7
00000570 1640           1392 	mov	r22,r8
                        1393 	jarl	_drawPixel,lp
                        1393 <EXPANSION BEGIN>
                        1393 jarl22 _drawPixel , lp 
00000572 80ffd400*      1393 <EXPANSION END>
00000576 9515*          1394 	br	.L1175
                        1395 .L1178:
                        1396 --398:          
                        1397 --399:          else /* big size*/
                        1398 --400:          {  
                        1399 --401:            R_DISPLAY_DrawRect(x+i*size, y+j*size, size, size, bg);
                        1400 --line401
                        1401 ..lin.C.3A.5CUsers.5Cnikhil.2Epatil.5CDocuments.5Crenesas.5CRH850_F1L_sample.5Ctoolchain.5CGHS.5Coutput.5Cobj.5Cr_display.122::
                        1402 .LDWlin122:
00000578 1d08           1403 	mov	r29,r1

                                                                      Page 29
                                                              C:\Users\NIKHIL~1.PAT\AppData\Local\Temp\gh_000aesk1.s
0000057a fb08           1404 	mulh	r27,r1
0000057c 1b40           1405 	mov	r27,r8
0000057e 1b48           1406 	mov	r27,r9
00000580 63b70100       1407 	st.w	r22,0[sp]
00000584 d909           1408 	add	r25,r1
00000586 0130           1409 	mov	r1,r6
00000588 1c08           1410 	mov	r28,r1
0000058a fb08           1411 	mulh	r27,r1
0000058c 8600           1412 	zxb	r6
0000058e d809           1413 	add	r24,r1
00000590 c13eff00       1414 	andi	255,r1,r7
                        1415 	jarl	_R_DISPLAY_DrawRect,lp
                        1415 <EXPANSION BEGIN>
                        1415 jarl22 _R_DISPLAY_DrawRect , lp 
00000594 bfff1cfe*      1415 <EXPANSION END>
                        1416 .L1175:
                        1417 --402:          }
                        1418 --403:        }
                        1419 --404:         line >>= 1;
                        1420 --line404
                        1421 ..lin.C.3A.5CUsers.5Cnikhil.2Epatil.5CDocuments.5Crenesas.5CRH850_F1L_sample.5Ctoolchain.5CGHS.5Coutput.5Cobj.5Cr_display.123::
                        1422 .LDWlin123:
00000598 81d2           1423 	shr	1,r26
0000059a 41e2           1424 	add	1,r28
0000059c 9c00           1425 	zxb	r28
0000059e 68e2           1426 	cmp	8,r28
000005a0 e1bd*          1427 	bl	.L1169
                        1428 --line369
                        1429 ..lin.C.3A.5CUsers.5Cnikhil.2Epatil.5CDocuments.5Crenesas.5CRH850_F1L_sample.5Ctoolchain.5CGHS.5Coutput.5Cobj.5Cr_display.124::
                        1430 .LDWlin124:
000005a2 41ea           1431 	add	1,r29
000005a4 9d00           1432 	zxb	r29
000005a6 66ea           1433 	cmp	6,r29
000005a8 c1ad*          1434 	bl	.L1163
                        1435 --405:      }
                        1436 --406:   
                        1437 --407:   }
                        1438 --409: }
                        1439 --	    .ef
                        1440 .LDW32:
                        1441 --line409
                        1442 ..lin.C.3A.5CUsers.5Cnikhil.2Epatil.5CDocuments.5Crenesas.5CRH850_F1L_sample.5Ctoolchain.5CGHS.5Coutput.5Cobj.5Cr_display.125::
                        1443 .LDWlin125:
000005aa 23ff2900       1444 	ld.w	40[sp],lp
000005ae 23ef0500       1445 	ld.w	4[sp],r29
000005b2 23e70900       1446 	ld.w	8[sp],r28
000005b6 23df0d00       1447 	ld.w	12[sp],r27
000005ba 23d71100       1448 	ld.w	16[sp],r26
000005be 23cf1500       1449 	ld.w	20[sp],r25
000005c2 23c71900       1450 	ld.w	24[sp],r24
000005c6 23bf1d00       1451 	ld.w	28[sp],r23
000005ca 23b72100       1452 	ld.w	32[sp],r22
000005ce 23af2500       1453 	ld.w	36[sp],r21
000005d2 031e2c00       1454 	addi	44,sp,sp
000005d6 7f00           1455 	jmp	[lp]
                        1456 	.global	___ghs_eofn_drawChar
                        1457 ___ghs_eofn_drawChar:
                        1458 	.type	_drawChar,@function
                        1459 	.size	_drawChar,.-_drawChar
                        1460 	.align	2
                        1461 --_line	r26	local

                                                                      Page 30
                                                              C:\Users\NIKHIL~1.PAT\AppData\Local\Temp\gh_000aesk1.s
                        1462 --_i	r29	local
                        1463 --_j	r28	local
                        1464 
                        1465 --_x	r25	param
                        1466 --_y	r24	param
                        1467 --_c	r21	param
                        1468 --_color	r23	param
                        1469 --_bg	r22	param
                        1470 --_size	r27	param
                        1471 
                        1472 	.section ".bss","awb"
                        1473 .L1278:
                        1474 	.type	.L1278,@object
                        1475 	.size	.L1278,0
                        1476 	.data
                        1477 	.text
                        1478 
                        1479 
                        1480 --411: /*****************************************************************************
                        1481 --412: ** Function:    goTo
                        1482 --413: ** Description: Go to specified display coordinates.
                        1483 --414: ** Parameter:   x - Start coordinate x (pixels)
                        1484 --415: **              y - Start coordimate y (pixels)
                        1485 --416: ** Return:      None
                        1486 --417: ******************************************************************************/
                        1487 --418: void goTo(uint8_t x, uint8_t y)
                        1488 	.align	2
                        1489 	.align	2
                        1490 	.global	_goTo
                        1491 _goTo:
000005d8 541a           1492 	add	-12,sp
000005da 63ff0900       1493 	st.w	lp,8[sp]
000005de 63e70500       1494 	st.w	r28,4[sp]
000005e2 63ef0100       1495 	st.w	r29,0[sp]
000005e6 c6eeff00       1496 	andi	255,r6,r29
000005ea c7e6ff00       1497 	andi	255,r7,r28
                        1498 --	    .bf
                        1499 .LDW42:
                        1500 --419: {
                        1501 --420:   if ((x >= SSD1351WIDTH) || (y >= SSD1351HEIGHT)) 
000005ee 1d0680ff       1502 	addi	-128,r29,zero
000005f2 c105*          1503 	bl	.L1353
000005f4 1c06a0ff       1504 	addi	-96,r28,zero
000005f8 a905*          1505 	bnl	.L1352
                        1506 .L1353:
                        1507 --421:   return;
                        1508 --line421
                        1509 ..lin.C.3A.5CUsers.5Cnikhil.2Epatil.5CDocuments.5Crenesas.5CRH850_F1L_sample.5Ctoolchain.5CGHS.5Coutput.5Cobj.5Cr_display.126::
                        1510 .LDWlin126:
000005fa e51d*          1511 	br	.L1350
                        1512 .L1352:
                        1513 --422:   
                        1514 --423:   R_CSIH2_C4_SetTxSize(8);
                        1515 --line423
                        1516 ..lin.C.3A.5CUsers.5Cnikhil.2Epatil.5CDocuments.5Crenesas.5CRH850_F1L_sample.5Ctoolchain.5CGHS.5Coutput.5Cobj.5Cr_display.127::
                        1517 .LDWlin127:
000005fc 0832           1518 	mov	8,r6
                        1519 	jarl	_R_CSIH2_C4_SetTxSize,lp
                        1519 <EXPANSION BEGIN>
                        1519 jarl22 _R_CSIH2_C4_SetTxSize , lp 
000005fe 80ff0000*      1519 <EXPANSION END>

                                                                      Page 31
                                                              C:\Users\NIKHIL~1.PAT\AppData\Local\Temp\gh_000aesk1.s
                        1520 --424:   /* set x and y coordinate */
                        1521 --425:   writeCommand(SSD1351_CMD_SETCOLUMN);
                        1522 --line425
                        1523 ..lin.C.3A.5CUsers.5Cnikhil.2Epatil.5CDocuments.5Crenesas.5CRH850_F1L_sample.5Ctoolchain.5CGHS.5Coutput.5Cobj.5Cr_display.128::
                        1524 .LDWlin128:
00000602 20361500       1525 	movea	21,zero,r6
                        1526 	jarl	_writeCommand,lp
                        1526 <EXPANSION BEGIN>
                        1526 jarl22 _writeCommand , lp 
00000606 80ff2c01*      1526 <EXPANSION END>
                        1527 --426:   writeData(x);
                        1528 --line426
                        1529 ..lin.C.3A.5CUsers.5Cnikhil.2Epatil.5CDocuments.5Crenesas.5CRH850_F1L_sample.5Ctoolchain.5CGHS.5Coutput.5Cobj.5Cr_display.129::
                        1530 .LDWlin129:
0000060a 1d30           1531 	mov	r29,r6
                        1532 	jarl	_writeData,lp
                        1532 <EXPANSION BEGIN>
                        1532 jarl22 _writeData , lp 
0000060c 80ff5001*      1532 <EXPANSION END>
                        1533 --427:   writeData(SSD1351WIDTH-1);
                        1534 --line427
                        1535 ..lin.C.3A.5CUsers.5Cnikhil.2Epatil.5CDocuments.5Crenesas.5CRH850_F1L_sample.5Ctoolchain.5CGHS.5Coutput.5Cobj.5Cr_display.130::
                        1536 .LDWlin130:
00000610 20367f00       1537 	movea	127,zero,r6
                        1538 	jarl	_writeData,lp
                        1538 <EXPANSION BEGIN>
                        1538 jarl22 _writeData , lp 
00000614 80ff4801*      1538 <EXPANSION END>
                        1539 --429:   writeCommand(SSD1351_CMD_SETROW);
                        1540 --line429
                        1541 ..lin.C.3A.5CUsers.5Cnikhil.2Epatil.5CDocuments.5Crenesas.5CRH850_F1L_sample.5Ctoolchain.5CGHS.5Coutput.5Cobj.5Cr_display.131::
                        1542 .LDWlin131:
00000618 20367500       1543 	movea	117,zero,r6
                        1544 	jarl	_writeCommand,lp
                        1544 <EXPANSION BEGIN>
                        1544 jarl22 _writeCommand , lp 
0000061c 80ff1601*      1544 <EXPANSION END>
                        1545 --430:   writeData(y);
                        1546 --line430
                        1547 ..lin.C.3A.5CUsers.5Cnikhil.2Epatil.5CDocuments.5Crenesas.5CRH850_F1L_sample.5Ctoolchain.5CGHS.5Coutput.5Cobj.5Cr_display.132::
                        1548 .LDWlin132:
00000620 1c30           1549 	mov	r28,r6
                        1550 	jarl	_writeData,lp
                        1550 <EXPANSION BEGIN>
                        1550 jarl22 _writeData , lp 
00000622 80ff3a01*      1550 <EXPANSION END>
                        1551 --431:   writeData(SSD1351HEIGHT-1);
                        1552 --line431
                        1553 ..lin.C.3A.5CUsers.5Cnikhil.2Epatil.5CDocuments.5Crenesas.5CRH850_F1L_sample.5Ctoolchain.5CGHS.5Coutput.5Cobj.5Cr_display.133::
                        1554 .LDWlin133:
00000626 20365f00       1555 	movea	95,zero,r6
                        1556 	jarl	_writeData,lp
                        1556 <EXPANSION BEGIN>
                        1556 jarl22 _writeData , lp 
0000062a 80ff3201*      1556 <EXPANSION END>
                        1557 --433:   writeCommand(SSD1351_CMD_WRITERAM);  
                        1558 --line433
                        1559 ..lin.C.3A.5CUsers.5Cnikhil.2Epatil.5CDocuments.5Crenesas.5CRH850_F1L_sample.5Ctoolchain.5CGHS.5Coutput.5Cobj.5Cr_display.134::
                        1560 .LDWlin134:
0000062e 20365c00       1561 	movea	92,zero,r6
                        1562 	jarl	_writeCommand,lp

                                                                      Page 32
                                                              C:\Users\NIKHIL~1.PAT\AppData\Local\Temp\gh_000aesk1.s
                        1562 <EXPANSION BEGIN>
                        1562 jarl22 _writeCommand , lp 
00000632 80ff0001*      1562 <EXPANSION END>
                        1563 --434: }
                        1564 .L1350:
                        1565 --	    .ef
                        1566 .LDW52:
                        1567 --line434
                        1568 ..lin.C.3A.5CUsers.5Cnikhil.2Epatil.5CDocuments.5Crenesas.5CRH850_F1L_sample.5Ctoolchain.5CGHS.5Coutput.5Cobj.5Cr_display.135::
                        1569 .LDWlin135:
00000636 23ff0900       1570 	ld.w	8[sp],lp
0000063a 23ef0100       1571 	ld.w	0[sp],r29
0000063e 23e70500       1572 	ld.w	4[sp],r28
00000642 4c1a           1573 	add	12,sp
00000644 7f00           1574 	jmp	[lp]
                        1575 	.global	___ghs_eofn_goTo
                        1576 ___ghs_eofn_goTo:
                        1577 	.type	_goTo,@function
                        1578 	.size	_goTo,.-_goTo
                        1579 	.align	2
                        1580 
                        1581 --_x	r29	param
                        1582 --_y	r28	param
                        1583 
                        1584 	.section ".bss","awb"
                        1585 .L1418:
                        1586 	.type	.L1418,@object
                        1587 	.size	.L1418,0
                        1588 	.data
                        1589 	.text
                        1590 
                        1591 
                        1592 --436: /*****************************************************************************
                        1593 --437: ** Function:    drawPixel
                        1594 --438: ** Description: Draw a rectangle on the display.
                        1595 --439: ** Parameter:   x - Start coordinate x (pixels)
                        1596 --440: **              y - Start coordimate y (pixels)
                        1597 --441: **              color - Color of pixel
                        1598 --442: ** Return:      None
                        1599 --443: ******************************************************************************/
                        1600 --444: void drawPixel(uint8_t x, uint8_t y, uint16_t color)
                        1601 	.align	2
                        1602 	.align	2
                        1603 	.global	_drawPixel
                        1604 _drawPixel:
00000646 501a           1605 	add	-16,sp
00000648 63ff0d00       1606 	st.w	lp,12[sp]
0000064c 63df0900       1607 	st.w	r27,8[sp]
00000650 63e70500       1608 	st.w	r28,4[sp]
00000654 63ef0100       1609 	st.w	r29,0[sp]
00000658 c6eeff00       1610 	andi	255,r6,r29
0000065c c7e6ff00       1611 	andi	255,r7,r28
00000660 c8deffff       1612 	andi	65535,r8,r27
                        1613 --	    .bf
                        1614 .LDW62:
                        1615 --445: {
                        1616 --447:   /* Bounds check */
                        1617 --448:   if ((x >= SSD1351WIDTH) || (y >= SSD1351HEIGHT)) 
00000664 1d0680ff       1618 	addi	-128,r29,zero
00000668 c105*          1619 	bl	.L1466
0000066a 1c06a0ff       1620 	addi	-96,r28,zero

                                                                      Page 33
                                                              C:\Users\NIKHIL~1.PAT\AppData\Local\Temp\gh_000aesk1.s
0000066e a905*          1621 	bnl	.L1465
                        1622 .L1466:
                        1623 --449:   return;
                        1624 --line449
                        1625 ..lin.C.3A.5CUsers.5Cnikhil.2Epatil.5CDocuments.5Crenesas.5CRH850_F1L_sample.5Ctoolchain.5CGHS.5Coutput.5Cobj.5Cr_display.136::
                        1626 .LDWlin136:
00000670 c50d*          1627 	br	.L1463
                        1628 .L1465:
                        1629 --451:   goTo(x, y);
                        1630 --line451
                        1631 ..lin.C.3A.5CUsers.5Cnikhil.2Epatil.5CDocuments.5Crenesas.5CRH850_F1L_sample.5Ctoolchain.5CGHS.5Coutput.5Cobj.5Cr_display.137::
                        1632 .LDWlin137:
00000672 1d30           1633 	mov	r29,r6
00000674 1c38           1634 	mov	r28,r7
                        1635 	jarl	_goTo,lp
                        1635 <EXPANSION BEGIN>
                        1635 jarl22 _goTo , lp 
00000676 bfff62ff*      1635 <EXPANSION END>
                        1636 --452:   
                        1637 --453:   //writeData(color >> 8); 
                        1638 --454:   R_CSIH2_C4_SetTxSize(16);   
                        1639 --line454
                        1640 ..lin.C.3A.5CUsers.5Cnikhil.2Epatil.5CDocuments.5Crenesas.5CRH850_F1L_sample.5Ctoolchain.5CGHS.5Coutput.5Cobj.5Cr_display.138::
                        1641 .LDWlin138:
0000067a 20361000       1642 	movea	16,zero,r6
                        1643 	jarl	_R_CSIH2_C4_SetTxSize,lp
                        1643 <EXPANSION BEGIN>
                        1643 jarl22 _R_CSIH2_C4_SetTxSize , lp 
0000067e 80ff0000*      1643 <EXPANSION END>
                        1644 --455:   writeData(color);
                        1645 --line455
                        1646 ..lin.C.3A.5CUsers.5Cnikhil.2Epatil.5CDocuments.5Crenesas.5CRH850_F1L_sample.5Ctoolchain.5CGHS.5Coutput.5Cobj.5Cr_display.139::
                        1647 .LDWlin139:
00000682 1b30           1648 	mov	r27,r6
                        1649 	jarl	_writeData,lp
                        1649 <EXPANSION BEGIN>
                        1649 jarl22 _writeData , lp 
00000684 80ffd800*      1649 <EXPANSION END>
                        1650 --456:   
                        1651 --457: }
                        1652 .L1463:
                        1653 --	    .ef
                        1654 .LDW72:
                        1655 --line457
                        1656 ..lin.C.3A.5CUsers.5Cnikhil.2Epatil.5CDocuments.5Crenesas.5CRH850_F1L_sample.5Ctoolchain.5CGHS.5Coutput.5Cobj.5Cr_display.140::
                        1657 .LDWlin140:
00000688 23ff0d00       1658 	ld.w	12[sp],lp
0000068c 23ef0100       1659 	ld.w	0[sp],r29
00000690 23e70500       1660 	ld.w	4[sp],r28
00000694 23df0900       1661 	ld.w	8[sp],r27
00000698 031e1000       1662 	addi	16,sp,sp
0000069c 7f00           1663 	jmp	[lp]
                        1664 	.global	___ghs_eofn_drawPixel
                        1665 ___ghs_eofn_drawPixel:
                        1666 	.type	_drawPixel,@function
                        1667 	.size	_drawPixel,.-_drawPixel
                        1668 	.align	2
                        1669 
                        1670 --_x	r29	param
                        1671 --_y	r28	param
                        1672 --_color	r27	param

                                                                      Page 34
                                                              C:\Users\NIKHIL~1.PAT\AppData\Local\Temp\gh_000aesk1.s
                        1673 
                        1674 	.section ".bss","awb"
                        1675 .L1510:
                        1676 	.type	.L1510,@object
                        1677 	.size	.L1510,0
                        1678 	.data
                        1679 	.text
                        1680 
                        1681 
                        1682 --459: /*****************************************************************************
                        1683 --460: ** Function:    drawText
                        1684 --461: ** Description: Draw a rectangle on the display.
                        1685 --462: ** Parameter:   x - Start coordinate x (pixels)
                        1686 --463: **              y - Start coordimate y (pixels)
                        1687 --464: **              *c - Pointer to text
                        1688 --465: **              color - Color of text
                        1689 --466: **              bg - Color of background
                        1690 --467: **              size - Font size 
                        1691 --468: ** Return:      None
                        1692 --469: ******************************************************************************/
                        1693 --470: void R_DISPLAY_DrawText(uint8_t x, uint8_t  y, char_t* c,  uint16_t color, uint16_t bg, uint8_t size) 
                        1694 	.align	2
                        1695 	.align	2
                        1696 	.global	_R_DISPLAY_DrawText
                        1697 _R_DISPLAY_DrawText:
0000069e 031ed8ff       1698 	addi	-40,sp,sp
000006a2 63ff2500       1699 	st.w	lp,36[sp]
000006a6 63ef0900       1700 	st.w	r29,8[sp]
000006aa 63e70d00       1701 	st.w	r28,12[sp]
000006ae 63df1100       1702 	st.w	r27,16[sp]
000006b2 63d71500       1703 	st.w	r26,20[sp]
000006b6 63cf1900       1704 	st.w	r25,24[sp]
000006ba 63c71d00       1705 	st.w	r24,28[sp]
000006be 63bf2100       1706 	st.w	r23,32[sp]
000006c2 83df2d00       1707 	ld.bu	44[sp],r27
000006c6 e3bf2900       1708 	ld.hu	40[sp],r23
000006ca c9c6ffff       1709 	andi	65535,r9,r24
000006ce 08e0           1710 	mov	r8,r28
000006d0 c7ceff00       1711 	andi	255,r7,r25
000006d4 c6d6ff00       1712 	andi	255,r6,r26
                        1713 --	    .bf
                        1714 .LDW82:
                        1715 --471: {
                        1716 --472:   uint8_t i=0;
000006d8 00ea           1717 	mov	0,r29
                        1718 --474:   while(*c != 0)
000006da d515*          1719 	br	.L1542
                        1720 .L1544:
                        1721 --475:     {  
                        1722 --476:       drawChar(x+(i*size*6),y,*c,color,bg,size);
                        1723 --line476
                        1724 ..lin.C.3A.5CUsers.5Cnikhil.2Epatil.5CDocuments.5Crenesas.5CRH850_F1L_sample.5Ctoolchain.5CGHS.5Coutput.5Cobj.5Cr_display.141::
                        1725 .LDWlin141:
000006dc 1d08           1726 	mov	r29,r1
000006de fb08           1727 	mulh	r27,r1
000006e0 1c470000       1728 	ld.b	0[r28],r8
000006e4 1938           1729 	mov	r25,r7
000006e6 1848           1730 	mov	r24,r9
000006e8 e60f4002       1731 	mul	6,r1,zero
000006ec 63bf0100       1732 	st.w	r23,0[sp]
000006f0 63df0500       1733 	st.w	r27,4[sp]

                                                                      Page 35
                                                              C:\Users\NIKHIL~1.PAT\AppData\Local\Temp\gh_000aesk1.s
000006f4 da09           1734 	add	r26,r1
000006f6 0130           1735 	mov	r1,r6
000006f8 8600           1736 	zxb	r6
                        1737 	jarl	_drawChar,lp
                        1737 <EXPANSION BEGIN>
                        1737 jarl22 _drawChar , lp 
000006fa bfffbefd*      1737 <EXPANSION END>
                        1738 --477:       c++;
                        1739 --line477
                        1740 ..lin.C.3A.5CUsers.5Cnikhil.2Epatil.5CDocuments.5Crenesas.5CRH850_F1L_sample.5Ctoolchain.5CGHS.5Coutput.5Cobj.5Cr_display.142::
                        1741 .LDWlin142:
000006fe 41e2           1742 	add	1,r28
                        1743 --478:       i++;
00000700 41ea           1744 	add	1,r29
00000702 9d00           1745 	zxb	r29
                        1746 .L1542:
00000704 1c0f0000       1747 	ld.b	0[r28],r1
00000708 e009           1748 	cmp	zero,r1
0000070a 9aed*          1749 	bne	.L1544
                        1750 --479:     }
                        1751 --480: }
                        1752 --	    .ef
                        1753 .LDW92:
                        1754 --line480
                        1755 ..lin.C.3A.5CUsers.5Cnikhil.2Epatil.5CDocuments.5Crenesas.5CRH850_F1L_sample.5Ctoolchain.5CGHS.5Coutput.5Cobj.5Cr_display.143::
                        1756 .LDWlin143:
0000070c 23ff2500       1757 	ld.w	36[sp],lp
00000710 23ef0900       1758 	ld.w	8[sp],r29
00000714 23e70d00       1759 	ld.w	12[sp],r28
00000718 23df1100       1760 	ld.w	16[sp],r27
0000071c 23d71500       1761 	ld.w	20[sp],r26
00000720 23cf1900       1762 	ld.w	24[sp],r25
00000724 23c71d00       1763 	ld.w	28[sp],r24
00000728 23bf2100       1764 	ld.w	32[sp],r23
0000072c 031e2800       1765 	addi	40,sp,sp
00000730 7f00           1766 	jmp	[lp]
                        1767 	.global	___ghs_eofn_R_DISPLAY_DrawText
                        1768 ___ghs_eofn_R_DISPLAY_DrawText:
                        1769 	.type	_R_DISPLAY_DrawText,@function
                        1770 	.size	_R_DISPLAY_DrawText,.-_R_DISPLAY_DrawText
                        1771 	.align	2
                        1772 --_i	r29	local
                        1773 
                        1774 --_x	r26	param
                        1775 --_y	r25	param
                        1776 --_c	r28	param
                        1777 --_color	r24	param
                        1778 --_bg	r23	param
                        1779 --_size	r27	param
                        1780 
                        1781 	.section ".bss","awb"
                        1782 .L1594:
                        1783 	.type	.L1594,@object
                        1784 	.size	.L1594,0
                        1785 	.data
                        1786 	.text
                        1787 
                        1788 
                        1789 --482: /*****************************************************************************
                        1790 --483: ** Function:    writeCommand
                        1791 --484: ** Description: Set D/C to command and transmit command. 

                                                                      Page 36
                                                              C:\Users\NIKHIL~1.PAT\AppData\Local\Temp\gh_000aesk1.s
                        1792 --485: ** Parameter:   Command - Display controller command. 
                        1793 --486: ** Return:      None
                        1794 --487: ******************************************************************************/
                        1795 --488: void writeCommand(uint8_t Command) 
                        1796 	.align	2
                        1797 	.align	2
                        1798 	.global	_writeCommand
                        1799 _writeCommand:
00000732 581a           1800 	add	-8,sp
00000734 63ff0500       1801 	st.w	lp,4[sp]
00000738 63ef0100       1802 	st.w	r29,0[sp]
0000073c c6eeff00       1803 	andi	255,r6,r29
                        1804 --	    .bf
                        1805 .LDW03:
                        1806 --489: {
                        1807 --490:    R_PORT_SetGpioOutput(Port11, 0, Low);       /* Set D/C to Command */  
00000740 0632           1808 	mov	6,r6
00000742 003a           1809 	mov	0,r7
00000744 0042           1810 	mov	0,r8
                        1811 	jarl	_R_PORT_SetGpioOutput,lp
                        1811 <EXPANSION BEGIN>
                        1811 jarl22 _R_PORT_SetGpioOutput , lp 
00000746 80ff0000*      1811 <EXPANSION END>
                        1812 --491:    R_CSIH2_TransmitData(Command);
                        1813 --line491
                        1814 ..lin.C.3A.5CUsers.5Cnikhil.2Epatil.5CDocuments.5Crenesas.5CRH850_F1L_sample.5Ctoolchain.5CGHS.5Coutput.5Cobj.5Cr_display.144::
                        1815 .LDWlin144:
0000074a 1d30           1816 	mov	r29,r6
                        1817 	jarl	_R_CSIH2_TransmitData,lp
                        1817 <EXPANSION BEGIN>
                        1817 jarl22 _R_CSIH2_TransmitData , lp 
0000074c 80ff0000*      1817 <EXPANSION END>
                        1818 --492: }
                        1819 --	    .ef
                        1820 .LDW13:
                        1821 --line492
                        1822 ..lin.C.3A.5CUsers.5Cnikhil.2Epatil.5CDocuments.5Crenesas.5CRH850_F1L_sample.5Ctoolchain.5CGHS.5Coutput.5Cobj.5Cr_display.145::
                        1823 .LDWlin145:
00000750 23ff0500       1824 	ld.w	4[sp],lp
00000754 23ef0100       1825 	ld.w	0[sp],r29
00000758 481a           1826 	add	8,sp
0000075a 7f00           1827 	jmp	[lp]
                        1828 	.global	___ghs_eofn_writeCommand
                        1829 ___ghs_eofn_writeCommand:
                        1830 	.type	_writeCommand,@function
                        1831 	.size	_writeCommand,.-_writeCommand
                        1832 	.align	2
                        1833 
                        1834 --_Command	r29	param
                        1835 
                        1836 	.section ".bss","awb"
                        1837 .L1654:
                        1838 	.type	.L1654,@object
                        1839 	.size	.L1654,0
                        1840 	.data
                        1841 	.text
                        1842 
                        1843 
                        1844 --494: /*****************************************************************************
                        1845 --495: ** Function:    writeData
                        1846 --496: ** Description: Set D/C to data and transmit single data. 

                                                                      Page 37
                                                              C:\Users\NIKHIL~1.PAT\AppData\Local\Temp\gh_000aesk1.s
                        1847 --497: ** Parameter:   Data - 16bit data
                        1848 --498: ** Return:      None
                        1849 --499: ******************************************************************************/
                        1850 --500: void writeData(uint16_t Data) 
                        1851 	.align	2
                        1852 	.align	2
                        1853 	.global	_writeData
                        1854 _writeData:
0000075c 581a           1855 	add	-8,sp
0000075e 63ff0500       1856 	st.w	lp,4[sp]
00000762 63ef0100       1857 	st.w	r29,0[sp]
00000766 c6eeffff       1858 	andi	65535,r6,r29
                        1859 --	    .bf
                        1860 .LDW23:
                        1861 --501: {
                        1862 --502:    R_PORT_SetGpioOutput(Port11, 0, High);      /* Set D/C to Data */
0000076a 0632           1863 	mov	6,r6
0000076c 003a           1864 	mov	0,r7
0000076e 0142           1865 	mov	1,r8
                        1866 	jarl	_R_PORT_SetGpioOutput,lp
                        1866 <EXPANSION BEGIN>
                        1866 jarl22 _R_PORT_SetGpioOutput , lp 
00000770 80ff0000*      1866 <EXPANSION END>
                        1867 --503:    R_CSIH2_TransmitData(Data);
                        1868 --line503
                        1869 ..lin.C.3A.5CUsers.5Cnikhil.2Epatil.5CDocuments.5Crenesas.5CRH850_F1L_sample.5Ctoolchain.5CGHS.5Coutput.5Cobj.5Cr_display.146::
                        1870 .LDWlin146:
00000774 1d30           1871 	mov	r29,r6
                        1872 	jarl	_R_CSIH2_TransmitData,lp
                        1872 <EXPANSION BEGIN>
                        1872 jarl22 _R_CSIH2_TransmitData , lp 
00000776 80ff0000*      1872 <EXPANSION END>
                        1873 --504: }
                        1874 --	    .ef
                        1875 .LDW33:
                        1876 --line504
                        1877 ..lin.C.3A.5CUsers.5Cnikhil.2Epatil.5CDocuments.5Crenesas.5CRH850_F1L_sample.5Ctoolchain.5CGHS.5Coutput.5Cobj.5Cr_display.147::
                        1878 .LDWlin147:
0000077a 23ff0500       1879 	ld.w	4[sp],lp
0000077e 23ef0100       1880 	ld.w	0[sp],r29
00000782 481a           1881 	add	8,sp
00000784 7f00           1882 	jmp	[lp]
                        1883 	.global	___ghs_eofn_writeData
                        1884 ___ghs_eofn_writeData:
                        1885 	.type	_writeData,@function
                        1886 	.size	_writeData,.-_writeData
                        1887 	.align	2
                        1888 
                        1889 --_Data	r29	param
                        1890 
                        1891 	.section ".bss","awb"
                        1892 .L1702:
                        1893 	.type	.L1702,@object
                        1894 	.size	.L1702,0
                        1895 	.data
                        1896 	.text
                        1897 
                        1898 
                        1899 --506: /*****************************************************************************
                        1900 --507: ** Function:    writeBuffer
                        1901 --508: ** Description: Set D/C to data and transmit data buffer. 

                                                                      Page 38
                                                              C:\Users\NIKHIL~1.PAT\AppData\Local\Temp\gh_000aesk1.s
                        1902 --509: ** Parameter:   *Buffer - pointer to data
                        1903 --510: **              Length - length of data buffer
                        1904 --511: ** Return:      None
                        1905 --512: ******************************************************************************/
                        1906 --513: void writeBuffer(uint16_t* Buffer, uint16_t Length) 
                        1907 	.align	2
                        1908 	.align	2
                        1909 	.global	_writeBuffer
                        1910 _writeBuffer:
00000786 541a           1911 	add	-12,sp
00000788 63ff0900       1912 	st.w	lp,8[sp]
0000078c 63e70500       1913 	st.w	r28,4[sp]
00000790 63ef0100       1914 	st.w	r29,0[sp]
00000794 06e8           1915 	mov	r6,r29
00000796 c7e6ffff       1916 	andi	65535,r7,r28
                        1917 --	    .bf
                        1918 .LDW43:
                        1919 --514: {
                        1920 --515:    R_PORT_SetGpioOutput(Port11, 0, High);      /* Set D/C to Data */
0000079a 0632           1921 	mov	6,r6
0000079c 003a           1922 	mov	0,r7
0000079e 0142           1923 	mov	1,r8
                        1924 	jarl	_R_PORT_SetGpioOutput,lp
                        1924 <EXPANSION BEGIN>
                        1924 jarl22 _R_PORT_SetGpioOutput , lp 
000007a0 80ff0000*      1924 <EXPANSION END>
                        1925 --516:    R_CSIH2_TransmitBuffer(Buffer, Length);
                        1926 --line516
                        1927 ..lin.C.3A.5CUsers.5Cnikhil.2Epatil.5CDocuments.5Crenesas.5CRH850_F1L_sample.5Ctoolchain.5CGHS.5Coutput.5Cobj.5Cr_display.148::
                        1928 .LDWlin148:
000007a4 1d30           1929 	mov	r29,r6
000007a6 1c38           1930 	mov	r28,r7
                        1931 	jarl	_R_CSIH2_TransmitBuffer,lp
                        1931 <EXPANSION BEGIN>
                        1931 jarl22 _R_CSIH2_TransmitBuffer , lp 
000007a8 80ff0000*      1931 <EXPANSION END>
                        1932 --517: } 
                        1933 --	    .ef
                        1934 .LDW53:
                        1935 --line517
                        1936 ..lin.C.3A.5CUsers.5Cnikhil.2Epatil.5CDocuments.5Crenesas.5CRH850_F1L_sample.5Ctoolchain.5CGHS.5Coutput.5Cobj.5Cr_display.149::
                        1937 .LDWlin149:
000007ac 23ff0900       1938 	ld.w	8[sp],lp
000007b0 23ef0100       1939 	ld.w	0[sp],r29
000007b4 23e70500       1940 	ld.w	4[sp],r28
000007b8 4c1a           1941 	add	12,sp
000007ba 7f00           1942 	jmp	[lp]
                        1943 	.global	___ghs_eofn_writeBuffer
                        1944 ___ghs_eofn_writeBuffer:
                        1945 	.type	_writeBuffer,@function
                        1946 	.size	_writeBuffer,.-_writeBuffer
                        1947 	.align	2
                        1948 
                        1949 --_Buffer	r29	param
                        1950 --_Length	r28	param
                        1951 
                        1952 	.section ".bss","awb"
                        1953 .L1750:
                        1954 	.type	.L1750,@object
                        1955 	.size	.L1750,0
                        1956 	.data

                                                                      Page 39
                                                              C:\Users\NIKHIL~1.PAT\AppData\Local\Temp\gh_000aesk1.s
                        1957 	.text
                        1958 
                        1959 
                        1960 --519: /*****************************************************************************
                        1961 --520: ** Function:    delay
                        1962 --521: ** Description: Simple local delay function.
                        1963 --522: ** Parameter:   count
                        1964 --523: ** Return:      None
                        1965 --524: ******************************************************************************/
                        1966 --525: void delay(uint16_t count)
                        1967 	.align	2
                        1968 	.align	2
                        1969 	.global	_delay
                        1970 _delay:
000007bc c616ffff       1971 	andi	65535,r6,r2
                        1972 --	    .bf
                        1973 .LDW63:
                        1974 --526: {
                        1975 --527:   
                        1976 --528:   uint32_t i;
                        1977 --529:   
                        1978 --530:   for(i=0;i<8000*count;i++);
000007c0 000a           1979 	mov	0,r1
000007c2 a505*          1980 	br	.L1773
                        1981 .L1771:
                        1982 --line530
                        1983 ..lin.C.3A.5CUsers.5Cnikhil.2Epatil.5CDocuments.5Crenesas.5CRH850_F1L_sample.5Ctoolchain.5CGHS.5Coutput.5Cobj.5Cr_display.150::
                        1984 .LDWlin150:
000007c4 410a           1985 	add	1,r1
                        1986 .L1773:
000007c6 209e401f       1987 	movea	8000,zero,r19
000007ca e29f2202       1988 	mulu	r2,r19,zero
000007ce f309           1989 	cmp	r19,r1
000007d0 a1fd*          1990 	bl	.L1771
                        1991 --532: }
                        1992 --	    .ef
                        1993 .LDW73:
                        1994 --line532
                        1995 ..lin.C.3A.5CUsers.5Cnikhil.2Epatil.5CDocuments.5Crenesas.5CRH850_F1L_sample.5Ctoolchain.5CGHS.5Coutput.5Cobj.5Cr_display.151::
                        1996 .LDWlin151:
000007d2 7f00           1997 	jmp	[lp]
                        1998 	.global	___ghs_eofn_delay
                        1999 ___ghs_eofn_delay:
                        2000 	.type	_delay,@function
                        2001 	.size	_delay,.-_delay
                        2002 	.align	2
                        2003 --_i	r1	local
                        2004 
                        2005 --_count	r2	param
                        2006 
                        2007 	.section ".bss","awb"
                        2008 .L1806:
                        2009 	.type	.L1806,@object
                        2010 	.size	.L1806,0
                        2011 	.data
                        2012 	.text
                        2013 
                        2014 	.align	2
                        2015 
                        2016 	.section ".rodata","a"
                        2017 	.global	_font

                                                                      Page 40
                                                              C:\Users\NIKHIL~1.PAT\AppData\Local\Temp\gh_000aesk1.s
00000000 00             2018 _font:	.space	1
00000001 00             2019 	.space	1
00000002 00             2020 	.space	1
00000003 00             2021 	.space	1
00000004 00             2022 	.space	1
00000005 3e5b4f5b       2023 	.byte	62,91,79,91
00000009 3e3e6b4f       2024 	.byte	62,62,107,79
0000000d 6b3e1c3e       2025 	.byte	107,62,28,62
00000011 7c3e1c18       2026 	.byte	124,62,28,24
00000015 3c7e3c18       2027 	.byte	60,126,60,24
00000019 1c577d57       2028 	.byte	28,87,125,87
0000001d 1c1c5e7f       2029 	.byte	28,28,94,127
00000021 5e1c           2030 	.byte	94,28
00000023 00             2031 	.space	1
00000024 183c           2032 	.byte	24,60
00000026 18             2033 	.byte	24
00000027 00             2034 	.space	1
00000028 ffe7c3e7       2035 	.byte	255,231,195,231
0000002c ff             2036 	.byte	255
0000002d 00             2037 	.space	1
0000002e 1824           2038 	.byte	24,36
00000030 18             2039 	.byte	24
00000031 00             2040 	.space	1
00000032 ffe7dbe7       2041 	.byte	255,231,219,231
00000036 ff30483a       2042 	.byte	255,48,72,58
0000003a 060e2629       2043 	.byte	6,14,38,41
0000003e 79292640       2044 	.byte	121,41,38,64
00000042 7f050507       2045 	.byte	127,5,5,7
00000046 407f0525       2046 	.byte	64,127,5,37
0000004a 3f5a3ce7       2047 	.byte	63,90,60,231
0000004e 3c5a7f3e       2048 	.byte	60,90,127,62
00000052 1c1c0808       2049 	.byte	28,28,8,8
00000056 1c1c3e7f       2050 	.byte	28,28,62,127
0000005a 14227f22       2051 	.byte	20,34,127,34
0000005e 145f           2052 	.byte	20,95
00000060 5f             2053 	.byte	95
00000061 00             2054 	.space	1
00000062 5f5f0609       2055 	.byte	95,95,6,9
00000066 7f01           2056 	.byte	127,1
00000068 7f             2057 	.byte	127
00000069 00             2058 	.space	1
0000006a 6689956a       2059 	.byte	102,137,149,106
0000006e 60606060       2060 	.byte	96,96,96,96
00000072 6094a2ff       2061 	.byte	96,148,162,255
00000076 a2940804       2062 	.byte	162,148,8,4
0000007a 7e040810       2063 	.byte	126,4,8,16
0000007e 207e2010       2064 	.byte	32,126,32,16
00000082 08082a1c       2065 	.byte	8,8,42,28
00000086 08081c2a       2066 	.byte	8,8,28,42
0000008a 08081e10       2067 	.byte	8,8,30,16
0000008e 1010100c       2068 	.byte	16,16,16,12
00000092 1e0c1e0c       2069 	.byte	30,12,30,12
00000096 30383e38       2070 	.byte	48,56,62,56
0000009a 30060e3e       2071 	.byte	48,6,14,62
0000009e 0e06           2072 	.byte	14,6
000000a0 00             2073 	.space	1
000000a1 00             2074 	.space	1
000000a2 00             2075 	.space	1
000000a3 00             2076 	.space	1
000000a4 00             2077 	.space	1
000000a5 00             2078 	.space	1

                                                                      Page 41
                                                              C:\Users\NIKHIL~1.PAT\AppData\Local\Temp\gh_000aesk1.s
000000a6 00             2079 	.space	1
000000a7 5f             2080 	.byte	95
000000a8 00             2081 	.space	1
000000a9 00             2082 	.space	1
000000aa 00             2083 	.space	1
000000ab 07             2084 	.byte	7
000000ac 00             2085 	.space	1
000000ad 07             2086 	.byte	7
000000ae 00             2087 	.space	1
000000af 147f147f       2088 	.byte	20,127,20,127
000000b3 14242a7f       2089 	.byte	20,36,42,127
000000b7 2a122313       2090 	.byte	42,18,35,19
000000bb 08646236       2091 	.byte	8,100,98,54
000000bf 49562050       2092 	.byte	73,86,32,80
000000c3 00             2093 	.space	1
000000c4 0807           2094 	.byte	8,7
000000c6 03             2095 	.byte	3
000000c7 00             2096 	.space	1
000000c8 00             2097 	.space	1
000000c9 1c22           2098 	.byte	28,34
000000cb 41             2099 	.byte	65
000000cc 00             2100 	.space	1
000000cd 00             2101 	.space	1
000000ce 4122           2102 	.byte	65,34
000000d0 1c             2103 	.byte	28
000000d1 00             2104 	.space	1
000000d2 2a1c7f1c       2105 	.byte	42,28,127,28
000000d6 2a08083e       2106 	.byte	42,8,8,62
000000da 0808           2107 	.byte	8,8
000000dc 00             2108 	.space	1
000000dd 8070           2109 	.byte	128,112
000000df 30             2110 	.byte	48
000000e0 00             2111 	.space	1
000000e1 08080808       2112 	.byte	8,8,8,8
000000e5 08             2113 	.byte	8
000000e6 00             2114 	.space	1
000000e7 00             2115 	.space	1
000000e8 6060           2116 	.byte	96,96
000000ea 00             2117 	.space	1
000000eb 20100804       2118 	.byte	32,16,8,4
000000ef 023e5149       2119 	.byte	2,62,81,73
000000f3 453e           2120 	.byte	69,62
000000f5 00             2121 	.space	1
000000f6 427f           2122 	.byte	66,127
000000f8 40             2123 	.byte	64
000000f9 00             2124 	.space	1
000000fa 72494949       2125 	.byte	114,73,73,73
000000fe 46214149       2126 	.byte	70,33,65,73
00000102 4d331814       2127 	.byte	77,51,24,20
00000106 127f1027       2128 	.byte	18,127,16,39
0000010a 45454539       2129 	.byte	69,69,69,57
0000010e 3c4a4949       2130 	.byte	60,74,73,73
00000112 31412111       2131 	.byte	49,65,33,17
00000116 09073649       2132 	.byte	9,7,54,73
0000011a 49493646       2133 	.byte	73,73,54,70
0000011e 4949291e       2134 	.byte	73,73,41,30
00000122 00             2135 	.space	1
00000123 00             2136 	.space	1
00000124 14             2137 	.byte	20
00000125 00             2138 	.space	1
00000126 00             2139 	.space	1

                                                                      Page 42
                                                              C:\Users\NIKHIL~1.PAT\AppData\Local\Temp\gh_000aesk1.s
00000127 00             2140 	.space	1
00000128 4034           2141 	.byte	64,52
0000012a 00             2142 	.space	1
0000012b 00             2143 	.space	1
0000012c 00             2144 	.space	1
0000012d 08142241       2145 	.byte	8,20,34,65
00000131 14141414       2146 	.byte	20,20,20,20
00000135 14             2147 	.byte	20
00000136 00             2148 	.space	1
00000137 41221408       2149 	.byte	65,34,20,8
0000013b 02015909       2150 	.byte	2,1,89,9
0000013f 063e415d       2151 	.byte	6,62,65,93
00000143 594e7c12       2152 	.byte	89,78,124,18
00000147 11127c7f       2153 	.byte	17,18,124,127
0000014b 49494936       2154 	.byte	73,73,73,54
0000014f 3e414141       2155 	.byte	62,65,65,65
00000153 227f4141       2156 	.byte	34,127,65,65
00000157 413e7f49       2157 	.byte	65,62,127,73
0000015b 4949417f       2158 	.byte	73,73,65,127
0000015f 09090901       2159 	.byte	9,9,9,1
00000163 3e414151       2160 	.byte	62,65,65,81
00000167 737f0808       2161 	.byte	115,127,8,8
0000016b 087f           2162 	.byte	8,127
0000016d 00             2163 	.space	1
0000016e 417f           2164 	.byte	65,127
00000170 41             2165 	.byte	65
00000171 00             2166 	.space	1
00000172 2040413f       2167 	.byte	32,64,65,63
00000176 017f0814       2168 	.byte	1,127,8,20
0000017a 22417f40       2169 	.byte	34,65,127,64
0000017e 4040407f       2170 	.byte	64,64,64,127
00000182 021c027f       2171 	.byte	2,28,2,127
00000186 7f040810       2172 	.byte	127,4,8,16
0000018a 7f3e4141       2173 	.byte	127,62,65,65
0000018e 413e7f09       2174 	.byte	65,62,127,9
00000192 0909063e       2175 	.byte	9,9,6,62
00000196 4151215e       2176 	.byte	65,81,33,94
0000019a 7f091929       2177 	.byte	127,9,25,41
0000019e 46264949       2178 	.byte	70,38,73,73
000001a2 49320301       2179 	.byte	73,50,3,1
000001a6 7f01033f       2180 	.byte	127,1,3,63
000001aa 4040403f       2181 	.byte	64,64,64,63
000001ae 1f204020       2182 	.byte	31,32,64,32
000001b2 1f3f4038       2183 	.byte	31,63,64,56
000001b6 403f6314       2184 	.byte	64,63,99,20
000001ba 08146303       2185 	.byte	8,20,99,3
000001be 04780403       2186 	.byte	4,120,4,3
000001c2 6159494d       2187 	.byte	97,89,73,77
000001c6 43             2188 	.byte	67
000001c7 00             2189 	.space	1
000001c8 7f414141       2190 	.byte	127,65,65,65
000001cc 02040810       2191 	.byte	2,4,8,16
000001d0 20             2192 	.byte	32
000001d1 00             2193 	.space	1
000001d2 4141417f       2194 	.byte	65,65,65,127
000001d6 04020102       2195 	.byte	4,2,1,2
000001da 04404040       2196 	.byte	4,64,64,64
000001de 4040           2197 	.byte	64,64
000001e0 00             2198 	.space	1
000001e1 0307           2199 	.byte	3,7
000001e3 08             2200 	.byte	8

                                                                      Page 43
                                                              C:\Users\NIKHIL~1.PAT\AppData\Local\Temp\gh_000aesk1.s
000001e4 00             2201 	.space	1
000001e5 20545478       2202 	.byte	32,84,84,120
000001e9 407f2844       2203 	.byte	64,127,40,68
000001ed 44383844       2204 	.byte	68,56,56,68
000001f1 44442838       2205 	.byte	68,68,40,56
000001f5 4444287f       2206 	.byte	68,68,40,127
000001f9 38545454       2207 	.byte	56,84,84,84
000001fd 18             2208 	.byte	24
000001fe 00             2209 	.space	1
000001ff 087e0902       2210 	.byte	8,126,9,2
00000203 18a4a49c       2211 	.byte	24,164,164,156
00000207 787f0804       2212 	.byte	120,127,8,4
0000020b 0478           2213 	.byte	4,120
0000020d 00             2214 	.space	1
0000020e 447d           2215 	.byte	68,125
00000210 40             2216 	.byte	64
00000211 00             2217 	.space	1
00000212 2040403d       2218 	.byte	32,64,64,61
00000216 00             2219 	.space	1
00000217 7f102844       2220 	.byte	127,16,40,68
0000021b 00             2221 	.space	1
0000021c 00             2222 	.space	1
0000021d 417f           2223 	.byte	65,127
0000021f 40             2224 	.byte	64
00000220 00             2225 	.space	1
00000221 7c047804       2226 	.byte	124,4,120,4
00000225 787c0804       2227 	.byte	120,124,8,4
00000229 04783844       2228 	.byte	4,120,56,68
0000022d 444438fc       2229 	.byte	68,68,56,252
00000231 18242418       2230 	.byte	24,36,36,24
00000235 18242418       2231 	.byte	24,36,36,24
00000239 fc7c0804       2232 	.byte	252,124,8,4
0000023d 04084854       2233 	.byte	4,8,72,84
00000241 54542404       2234 	.byte	84,84,36,4
00000245 043f4424       2235 	.byte	4,63,68,36
00000249 3c404020       2236 	.byte	60,64,64,32
0000024d 7c1c2040       2237 	.byte	124,28,32,64
00000251 201c3c40       2238 	.byte	32,28,60,64
00000255 30403c44       2239 	.byte	48,64,60,68
00000259 28102844       2240 	.byte	40,16,40,68
0000025d 4c909090       2241 	.byte	76,144,144,144
00000261 7c446454       2242 	.byte	124,68,100,84
00000265 4c44           2243 	.byte	76,68
00000267 00             2244 	.space	1
00000268 0836           2245 	.byte	8,54
0000026a 41             2246 	.byte	65
0000026b 00             2247 	.space	1
0000026c 00             2248 	.space	1
0000026d 00             2249 	.space	1
0000026e 77             2250 	.byte	119
0000026f 00             2251 	.space	1
00000270 00             2252 	.space	1
00000271 00             2253 	.space	1
00000272 4136           2254 	.byte	65,54
00000274 08             2255 	.byte	8
00000275 00             2256 	.space	1
00000276 02010204       2257 	.byte	2,1,2,4
0000027a 023c2623       2258 	.byte	2,60,38,35
0000027e 263c1ea1       2259 	.byte	38,60,30,161
00000282 a161123a       2260 	.byte	161,97,18,58
00000286 4040207a       2261 	.byte	64,64,32,122

                                                                      Page 44
                                                              C:\Users\NIKHIL~1.PAT\AppData\Local\Temp\gh_000aesk1.s
0000028a 38545455       2262 	.byte	56,84,84,85
0000028e 59215555       2263 	.byte	89,33,85,85
00000292 79412254       2264 	.byte	121,65,34,84
00000296 54784221       2265 	.byte	84,120,66,33
0000029a 55547840       2266 	.byte	85,84,120,64
0000029e 20545579       2267 	.byte	32,84,85,121
000002a2 400c1e52       2268 	.byte	64,12,30,82
000002a6 72123955       2269 	.byte	114,18,57,85
000002aa 55555939       2270 	.byte	85,85,89,57
000002ae 54545459       2271 	.byte	84,84,84,89
000002b2 39555454       2272 	.byte	57,85,84,84
000002b6 58             2273 	.byte	88
000002b7 00             2274 	.space	1
000002b8 00             2275 	.space	1
000002b9 457c           2276 	.byte	69,124
000002bb 41             2277 	.byte	65
000002bc 00             2278 	.space	1
000002bd 02457d42       2279 	.byte	2,69,125,66
000002c1 00             2280 	.space	1
000002c2 01457c40       2281 	.byte	1,69,124,64
000002c6 7d121112       2282 	.byte	125,18,17,18
000002ca 7df02825       2283 	.byte	125,240,40,37
000002ce 28f07c54       2284 	.byte	40,240,124,84
000002d2 5545           2285 	.byte	85,69
000002d4 00             2286 	.space	1
000002d5 2054547c       2287 	.byte	32,84,84,124
000002d9 547c0a09       2288 	.byte	84,124,10,9
000002dd 7f493249       2289 	.byte	127,73,50,73
000002e1 4949323a       2290 	.byte	73,73,50,58
000002e5 4444443a       2291 	.byte	68,68,68,58
000002e9 324a4848       2292 	.byte	50,74,72,72
000002ed 303a4141       2293 	.byte	48,58,65,65
000002f1 217a3a42       2294 	.byte	33,122,58,66
000002f5 4020           2295 	.byte	64,32
000002f7 78             2296 	.byte	120
000002f8 00             2297 	.space	1
000002f9 9da0a07d       2298 	.byte	157,160,160,125
000002fd 3d424242       2299 	.byte	61,66,66,66
00000301 3d3d4040       2300 	.byte	61,61,64,64
00000305 403d3c24       2301 	.byte	64,61,60,36
00000309 ff242448       2302 	.byte	255,36,36,72
0000030d 7e494366       2303 	.byte	126,73,67,102
00000311 2b2ffc2f       2304 	.byte	43,47,252,47
00000315 2bff0929       2305 	.byte	43,255,9,41
00000319 f620c088       2306 	.byte	246,32,192,136
0000031d 7e090320       2307 	.byte	126,9,3,32
00000321 54547941       2308 	.byte	84,84,121,65
00000325 00             2309 	.space	1
00000326 00             2310 	.space	1
00000327 447d4130       2311 	.byte	68,125,65,48
0000032b 48484a32       2312 	.byte	72,72,74,50
0000032f 38404022       2313 	.byte	56,64,64,34
00000333 7a             2314 	.byte	122
00000334 00             2315 	.space	1
00000335 7a0a0a72       2316 	.byte	122,10,10,114
00000339 7d0d1931       2317 	.byte	125,13,25,49
0000033d 7d262929       2318 	.byte	125,38,41,41
00000341 2f282629       2319 	.byte	47,40,38,41
00000345 29292630       2320 	.byte	41,41,38,48
00000349 484d4020       2321 	.byte	72,77,64,32
0000034d 38080808       2322 	.byte	56,8,8,8

                                                                      Page 45
                                                              C:\Users\NIKHIL~1.PAT\AppData\Local\Temp\gh_000aesk1.s
00000351 08080808       2323 	.byte	8,8,8,8
00000355 08382f10       2324 	.byte	8,56,47,16
00000359 c8acba2f       2325 	.byte	200,172,186,47
0000035d 102834fa       2326 	.byte	16,40,52,250
00000361 00             2327 	.space	1
00000362 00             2328 	.space	1
00000363 7b             2329 	.byte	123
00000364 00             2330 	.space	1
00000365 00             2331 	.space	1
00000366 08142a14       2332 	.byte	8,20,42,20
0000036a 2222142a       2333 	.byte	34,34,20,42
0000036e 1408           2334 	.byte	20,8
00000370 55             2335 	.byte	85
00000371 00             2336 	.space	1
00000372 55             2337 	.byte	85
00000373 00             2338 	.space	1
00000374 55aa55aa       2339 	.byte	85,170,85,170
00000378 55aaff55       2340 	.byte	85,170,255,85
0000037c ff55           2341 	.byte	255,85
0000037e ff             2342 	.byte	255
0000037f 00             2343 	.space	1
00000380 00             2344 	.space	1
00000381 00             2345 	.space	1
00000382 ff             2346 	.byte	255
00000383 00             2347 	.space	1
00000384 101010ff       2348 	.byte	16,16,16,255
00000388 00             2349 	.space	1
00000389 141414ff       2350 	.byte	20,20,20,255
0000038d 00             2351 	.space	1
0000038e 1010           2352 	.byte	16,16
00000390 ff             2353 	.byte	255
00000391 00             2354 	.space	1
00000392 ff1010f0       2355 	.byte	255,16,16,240
00000396 10f01414       2356 	.byte	16,240,20,20
0000039a 14fc           2357 	.byte	20,252
0000039c 00             2358 	.space	1
0000039d 1414           2359 	.byte	20,20
0000039f f7             2360 	.byte	247
000003a0 00             2361 	.space	1
000003a1 ff             2362 	.byte	255
000003a2 00             2363 	.space	1
000003a3 00             2364 	.space	1
000003a4 ff             2365 	.byte	255
000003a5 00             2366 	.space	1
000003a6 ff1414f4       2367 	.byte	255,20,20,244
000003aa 04fc1414       2368 	.byte	4,252,20,20
000003ae 17101f10       2369 	.byte	23,16,31,16
000003b2 101f101f       2370 	.byte	16,31,16,31
000003b6 1414141f       2371 	.byte	20,20,20,31
000003ba 00             2372 	.space	1
000003bb 101010f0       2373 	.byte	16,16,16,240
000003bf 00             2374 	.space	1
000003c0 00             2375 	.space	1
000003c1 00             2376 	.space	1
000003c2 00             2377 	.space	1
000003c3 1f101010       2378 	.byte	31,16,16,16
000003c7 101f1010       2379 	.byte	16,31,16,16
000003cb 1010f010       2380 	.byte	16,16,240,16
000003cf 00             2381 	.space	1
000003d0 00             2382 	.space	1
000003d1 00             2383 	.space	1

                                                                      Page 46
                                                              C:\Users\NIKHIL~1.PAT\AppData\Local\Temp\gh_000aesk1.s
000003d2 ff101010       2384 	.byte	255,16,16,16
000003d6 10101010       2385 	.byte	16,16,16,16
000003da 1010ff10       2386 	.byte	16,16,255,16
000003de 00             2387 	.space	1
000003df 00             2388 	.space	1
000003e0 00             2389 	.space	1
000003e1 ff14           2390 	.byte	255,20
000003e3 00             2391 	.space	1
000003e4 00             2392 	.space	1
000003e5 ff             2393 	.byte	255
000003e6 00             2394 	.space	1
000003e7 ff             2395 	.byte	255
000003e8 00             2396 	.space	1
000003e9 00             2397 	.space	1
000003ea 1f10           2398 	.byte	31,16
000003ec 17             2399 	.byte	23
000003ed 00             2400 	.space	1
000003ee 00             2401 	.space	1
000003ef fc04f414       2402 	.byte	252,4,244,20
000003f3 14171017       2403 	.byte	20,23,16,23
000003f7 1414f404       2404 	.byte	20,20,244,4
000003fb f4             2405 	.byte	244
000003fc 00             2406 	.space	1
000003fd 00             2407 	.space	1
000003fe ff             2408 	.byte	255
000003ff 00             2409 	.space	1
00000400 f7141414       2410 	.byte	247,20,20,20
00000404 14141414       2411 	.byte	20,20,20,20
00000408 f7             2412 	.byte	247
00000409 00             2413 	.space	1
0000040a f7141414       2414 	.byte	247,20,20,20
0000040e 17141010       2415 	.byte	23,20,16,16
00000412 1f101f14       2416 	.byte	31,16,31,20
00000416 1414f414       2417 	.byte	20,20,244,20
0000041a 1010f010       2418 	.byte	16,16,240,16
0000041e f0             2419 	.byte	240
0000041f 00             2420 	.space	1
00000420 00             2421 	.space	1
00000421 1f10           2422 	.byte	31,16
00000423 1f             2423 	.byte	31
00000424 00             2424 	.space	1
00000425 00             2425 	.space	1
00000426 00             2426 	.space	1
00000427 1f14           2427 	.byte	31,20
00000429 00             2428 	.space	1
0000042a 00             2429 	.space	1
0000042b 00             2430 	.space	1
0000042c fc14           2431 	.byte	252,20
0000042e 00             2432 	.space	1
0000042f 00             2433 	.space	1
00000430 f010f010       2434 	.byte	240,16,240,16
00000434 10ff10ff       2435 	.byte	16,255,16,255
00000438 141414ff       2436 	.byte	20,20,20,255
0000043c 14101010       2437 	.byte	20,16,16,16
00000440 1f             2438 	.byte	31
00000441 00             2439 	.space	1
00000442 00             2440 	.space	1
00000443 00             2441 	.space	1
00000444 00             2442 	.space	1
00000445 f010ffff       2443 	.byte	240,16,255,255
00000449 fffffff0       2444 	.byte	255,255,255,240

                                                                      Page 47
                                                              C:\Users\NIKHIL~1.PAT\AppData\Local\Temp\gh_000aesk1.s
0000044d f0f0f0f0       2445 	.byte	240,240,240,240
00000451 ffff           2446 	.byte	255,255
00000453 ff             2447 	.byte	255
00000454 00             2448 	.space	1
00000455 00             2449 	.space	1
00000456 00             2450 	.space	1
00000457 00             2451 	.space	1
00000458 00             2452 	.space	1
00000459 ffff0f0f       2453 	.byte	255,255,15,15
0000045d 0f0f0f38       2454 	.byte	15,15,15,56
00000461 44443844       2455 	.byte	68,68,56,68
00000465 fc4a4a4a       2456 	.byte	252,74,74,74
00000469 347e0202       2457 	.byte	52,126,2,2
0000046d 0606027e       2458 	.byte	6,6,2,126
00000471 027e0263       2459 	.byte	2,126,2,99
00000475 55494163       2460 	.byte	85,73,65,99
00000479 3844443c       2461 	.byte	56,68,68,60
0000047d 04407e20       2462 	.byte	4,64,126,32
00000481 1e200602       2463 	.byte	30,32,6,2
00000485 7e020299       2464 	.byte	126,2,2,153
00000489 a5e7a599       2465 	.byte	165,231,165,153
0000048d 1c2a492a       2466 	.byte	28,42,73,42
00000491 1c4c7201       2467 	.byte	28,76,114,1
00000495 724c304a       2468 	.byte	114,76,48,74
00000499 4d4d3030       2469 	.byte	77,77,48,48
0000049d 48784830       2470 	.byte	72,120,72,48
000004a1 bc625a46       2471 	.byte	188,98,90,70
000004a5 3d3e4949       2472 	.byte	61,62,73,73
000004a9 49             2473 	.byte	73
000004aa 00             2474 	.space	1
000004ab 7e010101       2475 	.byte	126,1,1,1
000004af 7e2a2a2a       2476 	.byte	126,42,42,42
000004b3 2a2a4444       2477 	.byte	42,42,68,68
000004b7 5f444440       2478 	.byte	95,68,68,64
000004bb 514a4440       2479 	.byte	81,74,68,64
000004bf 40444a51       2480 	.byte	64,68,74,81
000004c3 40             2481 	.byte	64
000004c4 00             2482 	.space	1
000004c5 00             2483 	.space	1
000004c6 ff0103e0       2484 	.byte	255,1,3,224
000004ca 80ff           2485 	.byte	128,255
000004cc 00             2486 	.space	1
000004cd 00             2487 	.space	1
000004ce 08086b6b       2488 	.byte	8,8,107,107
000004d2 08361236       2489 	.byte	8,54,18,54
000004d6 2436060f       2490 	.byte	36,54,6,15
000004da 090f           2491 	.byte	9,15
000004dc 06             2492 	.byte	6
000004dd 00             2493 	.space	1
000004de 00             2494 	.space	1
000004df 1818           2495 	.byte	24,24
000004e1 00             2496 	.space	1
000004e2 00             2497 	.space	1
000004e3 00             2498 	.space	1
000004e4 1010           2499 	.byte	16,16
000004e6 00             2500 	.space	1
000004e7 3040ff01       2501 	.byte	48,64,255,1
000004eb 01             2502 	.byte	1
000004ec 00             2503 	.space	1
000004ed 1f01011e       2504 	.byte	31,1,1,30
000004f1 00             2505 	.space	1

                                                                      Page 48
                                                              C:\Users\NIKHIL~1.PAT\AppData\Local\Temp\gh_000aesk1.s
000004f2 191d1712       2506 	.byte	25,29,23,18
000004f6 00             2507 	.space	1
000004f7 3c3c3c3c       2508 	.byte	60,60,60,60
000004fb 00             2509 	.space	1
000004fc 00             2510 	.space	1
000004fd 00             2511 	.space	1
000004fe 00             2512 	.space	1
000004ff 00             2513 	.space	1
                        2514 	.type	_font,@object
                        2515 	.size	_font,1280
                        2516 	.data
                        2517 	.ghsnote version,17
                        2518 	.ghsnote tools,3
                        2519 	.ghsnote options,144
                        2520 	.text
                        2521 	.align	2
                        2522 ..eof.C.3A.5CUsers.5Cnikhil.2Epatil.5CDocuments.5Crenesas.5CRH850_F1L_sample.5Ctoolchain.5CGHS.5Coutput.5Cobj.5Cr_display...43.3A.5CUsers.5Cnikhil.2Epatil.5CDocuments.5Crenesas.5CRH850_F1L_sample.5Ctoolchain.5CGHS..5A609D80..0::
                        2523 	.section	.debug_info
                        2524 .Ldw_begin:
00000000 7b0c0000       2525 	.word	.Ldw_end-.Ldw_begin-4
00000004 0200           2526 	.byte	2,0
00000006 00000000*      2527 	.word	.Ldw_abbr_begin
0000000a 04             2528 	.byte	4
                        2529 	.section	.debug_abbrev
                        2530 .Ldw_abbr_begin:
                        2531 	.section	.debug_info
0000000b 01             2532 	.byte	1
0000000c 00000000*      2533 	.word	..bof.C.3A.5CUsers.5Cnikhil.2Epatil.5CDocuments.5Crenesas.5CRH850_F1L_sample.5Ctoolchain.5CGHS.5Coutput.5Cobj.5Cr_display...43.3A.5CUsers.5Cnikhil.2Epatil.5CDocuments.5Crenesas.5CRH850_F1L_sample.5Ctoolchain.5CGHS..5A609D80..0
00000010 00000000*      2534 	.word	..eof.C.3A.5CUsers.5Cnikhil.2Epatil.5CDocuments.5Crenesas.5CRH850_F1L_sample.5Ctoolchain.5CGHS.5Coutput.5Cobj.5Cr_display...43.3A.5CUsers.5Cnikhil.2Epatil.5CDocuments.5Crenesas.5CRH850_F1L_sample.5Ctoolchain.5CGHS..5A609D80..0
00000014 2e2e5c2e2e5c   2535 	.strz	"..\\..\\source\\modules\\display\\r_display.c"
0000001a 736f75726365 
00000020 5c6d6f64756c 
00000026 65735c646973 
0000002c 706c61795c72 
00000032 5f646973706c 
00000038 61792e6300 
0000003d 433a5c557365   2536 	.strz	"C:\\Users\\nikhil.patil\\Documents\\renesas\\RH850_F1L_sample\\toolchain\\GHS"
00000043 72735c6e696b 
00000049 68696c2e7061 
0000004f 74696c5c446f 
00000055 63756d656e74 
0000005b 735c72656e65 
00000061 7361735c5248 
00000067 3835305f4631 
0000006d 4c5f73616d70 
00000073 6c655c746f6f 
00000079 6c636861696e 
0000007f 5c47485300 
00000084 474853204320   2537 	.strz	"GHS C 2015.1.7 [dual]"
0000008a 323031352e31 
00000090 2e37205b6475 
00000096 616c5d00 
0000009a 0100           2538 	.byte	1,0
0000009c 00000000*      2539 	.word	.Ldw_line_begin
000000a0 00000000*      2540 	.word	.Ldw_macinfo_begin
000000a4 00             2541 	.byte	0
                        2542 
                        2543 	.section	.debug_abbrev
00000000 01             2544 	.byte	1
00000001 11             2545 	.byte	17
00000002 01             2546 	.byte	1

                                                                      Page 49
                                                              C:\Users\NIKHIL~1.PAT\AppData\Local\Temp\gh_000aesk1.s
00000003 1101           2547 	.byte	17,1
00000005 1201           2548 	.byte	18,1
00000007 0308           2549 	.byte	3,8
00000009 1b08           2550 	.byte	27,8
0000000b 2508           2551 	.byte	37,8
0000000d 1305           2552 	.byte	19,5
0000000f 1006           2553 	.byte	16,6
00000011 4306           2554 	.byte	67,6
00000013 420b           2555 	.byte	66,11
00000015 0000           2556 	.byte	0,0
                        2557 
                        2558 	.section	.debug_line
                        2559 .Ldw_line_begin:
00000000 63080000       2560 	.word	.Ldw_line_end-.Ldw_line_begin-4
00000004 0200           2561 	.byte	2,0
00000006 00000000*      2562 	.word	.Ldw_lpro_end-.Ldw_lpro_begin
                        2563 .Ldw_lpro_begin:
0000000a 01             2564 	.byte	1
0000000b 00             2565 	.byte	0
0000000c 00             2566 	.byte	0
0000000d 04             2567 	.byte	4
0000000e 0a             2568 	.byte	10
0000000f 000101         2569 	.byte	0,1,1
00000012 010100         2570 	.byte	1,1,0
00000015 000001         2571 	.byte	0,0,1
00000018 00             2572 	.byte	0
00000019 2e2e5c2e2e5c   2573 	.strz	"..\\..\\source\\modules\\display\\r_display.c"
0000001f 736f75726365 
00000025 5c6d6f64756c 
0000002b 65735c646973 
00000031 706c61795c72 
00000037 5f646973706c 
0000003d 61792e6300 
00000042 000000         2574 	.byte	0,0,0
00000045 2e2e5c2e2e5c   2575 	.strz	"..\\..\\device\\r_device.h"
0000004b 646576696365 
00000051 5c725f646576 
00000057 6963652e6800 
0000005d 000000         2576 	.byte	0,0,0
00000060 2e2e5c2e2e5c   2577 	.strz	"..\\..\\device\\dr7f701057.dvf.h"
00000066 646576696365 
0000006c 5c6472376637 
00000072 30313035372e 
00000078 6476662e6800 
0000007e 000000         2578 	.byte	0,0,0
00000081 2e2e5c2e2e5c   2579 	.strz	"..\\..\\device\\icu_feret.h"
00000087 646576696365 
0000008d 5c6963755f66 
00000093 657265742e68 
00000099 00 
0000009a 000000         2580 	.byte	0,0,0
0000009d 2e2e5c2e2e5c   2581 	.strz	"..\\..\\device\\cpu.h"
000000a3 646576696365 
000000a9 5c6370752e68 
000000af 00 
000000b0 000000         2582 	.byte	0,0,0
000000b3 433a5c676873   2583 	.strz	"C:\\ghs\\comp_201517\\ansi\\..\\include\\v800\\v800_ghs.h"
000000b9 5c636f6d705f 
000000bf 323031353137 
000000c5 5c616e73695c 
000000cb 2e2e5c696e63 

                                                                      Page 50
                                                              C:\Users\NIKHIL~1.PAT\AppData\Local\Temp\gh_000aesk1.s
000000d1 6c7564655c76 
000000d7 3830305c7638 
000000dd 30305f676873 
000000e3 2e6800 
000000e6 000000         2584 	.byte	0,0,0
000000e9 2e2e5c2e2e5c   2585 	.strz	"..\\..\\device\\r_typedefs.h"
000000ef 646576696365 
000000f5 5c725f747970 
000000fb 65646566732e 
00000101 6800 
00000103 000000         2586 	.byte	0,0,0
00000106 2e2e5c2e2e5c   2587 	.strz	"..\\..\\source\\modules\\display\\r_display.h"
0000010c 736f75726365 
00000112 5c6d6f64756c 
00000118 65735c646973 
0000011e 706c61795c72 
00000124 5f646973706c 
0000012a 61792e6800 
0000012f 000000         2588 	.byte	0,0,0
00000132 2e2e5c2e2e5c   2589 	.strz	"..\\..\\source\\modules\\display\\font5x7.h"
00000138 736f75726365 
0000013e 5c6d6f64756c 
00000144 65735c646973 
0000014a 706c61795c66 
00000150 6f6e74357837 
00000156 2e6800 
00000159 000000         2590 	.byte	0,0,0
0000015c 2e2e5c2e2e5c   2591 	.strz	"..\\..\\source\\peripherals\\adc/r_adc.h"
00000162 736f75726365 
00000168 5c7065726970 
0000016e 686572616c73 
00000174 5c6164632f72 
0000017a 5f6164632e68 
00000180 00 
00000181 000000         2592 	.byte	0,0,0
00000184 2e2e5c2e2e5c   2593 	.strz	"..\\..\\source\\peripherals\\csi/r_csi.h"
0000018a 736f75726365 
00000190 5c7065726970 
00000196 686572616c73 
0000019c 5c6373692f72 
000001a2 5f6373692e68 
000001a8 00 
000001a9 000000         2594 	.byte	0,0,0
000001ac 2e2e5c2e2e5c   2595 	.strz	"..\\..\\source\\peripherals\\port/r_port.h"
000001b2 736f75726365 
000001b8 5c7065726970 
000001be 686572616c73 
000001c4 5c706f72742f 
000001ca 725f706f7274 
000001d0 2e6800 
000001d3 000000         2596 	.byte	0,0,0
000001d6 00             2597 	.byte	0
                        2598 .Ldw_lpro_end:
                        2599 	.section	.debug_macinfo
                        2600 .Ldw_macinfo_begin:
                        2601 	.section	.debug_frame
                        2602 .LDW_48c3ff0:
00000000 00000000*      2603 	.word	.LDW_unq_2-.LDW_unq_1
                        2604 .LDW_unq_1:
00000004 ffffffff       2605 	.byte	255,255,255,255
00000008 01             2606 	.byte	1

                                                                      Page 51
                                                              C:\Users\NIKHIL~1.PAT\AppData\Local\Temp\gh_000aesk1.s
00000009 00             2607 	.byte	0
0000000a 01             2608 	.byte	1
0000000b 01             2609 	.byte	1
0000000c 1f             2610 	.byte	31
0000000d 0c             2611 	.byte	12
0000000e 03             2612 	.byte	3
0000000f 00             2613 	.byte	0
00000010 07             2614 	.byte	7
00000011 00             2615 	.byte	0
00000012 07             2616 	.byte	7
00000013 01             2617 	.byte	1
00000014 07             2618 	.byte	7
00000015 02             2619 	.byte	2
00000016 07             2620 	.byte	7
00000017 03             2621 	.byte	3
00000018 07             2622 	.byte	7
00000019 04             2623 	.byte	4
0000001a 07             2624 	.byte	7
0000001b 05             2625 	.byte	5
0000001c 07             2626 	.byte	7
0000001d 06             2627 	.byte	6
0000001e 07             2628 	.byte	7
0000001f 07             2629 	.byte	7
00000020 07             2630 	.byte	7
00000021 08             2631 	.byte	8
00000022 07             2632 	.byte	7
00000023 09             2633 	.byte	9
00000024 07             2634 	.byte	7
00000025 0a             2635 	.byte	10
00000026 07             2636 	.byte	7
00000027 0b             2637 	.byte	11
00000028 07             2638 	.byte	7
00000029 0c             2639 	.byte	12
0000002a 07             2640 	.byte	7
0000002b 0d             2641 	.byte	13
0000002c 07             2642 	.byte	7
0000002d 0e             2643 	.byte	14
0000002e 07             2644 	.byte	7
0000002f 0f             2645 	.byte	15
00000030 07             2646 	.byte	7
00000031 10             2647 	.byte	16
00000032 07             2648 	.byte	7
00000033 11             2649 	.byte	17
00000034 07             2650 	.byte	7
00000035 12             2651 	.byte	18
00000036 07             2652 	.byte	7
00000037 13             2653 	.byte	19
00000038 08             2654 	.byte	8
00000039 14             2655 	.byte	20
0000003a 08             2656 	.byte	8
0000003b 15             2657 	.byte	21
0000003c 08             2658 	.byte	8
0000003d 16             2659 	.byte	22
0000003e 08             2660 	.byte	8
0000003f 17             2661 	.byte	23
00000040 08             2662 	.byte	8
00000041 18             2663 	.byte	24
00000042 08             2664 	.byte	8
00000043 19             2665 	.byte	25
00000044 08             2666 	.byte	8
00000045 1a             2667 	.byte	26

                                                                      Page 52
                                                              C:\Users\NIKHIL~1.PAT\AppData\Local\Temp\gh_000aesk1.s
00000046 08             2668 	.byte	8
00000047 1b             2669 	.byte	27
00000048 08             2670 	.byte	8
00000049 1c             2671 	.byte	28
0000004a 08             2672 	.byte	8
0000004b 1d             2673 	.byte	29
0000004c 07             2674 	.byte	7
0000004d 1e             2675 	.byte	30
0000004e 08             2676 	.byte	8
0000004f 1f             2677 	.byte	31
00000050 07             2678 	.byte	7
00000051 20             2679 	.byte	32
00000052 07             2680 	.byte	7
00000053 21             2681 	.byte	33
00000054 07             2682 	.byte	7
00000055 22             2683 	.byte	34
00000056 07             2684 	.byte	7
00000057 23             2685 	.byte	35
00000058 07             2686 	.byte	7
00000059 24             2687 	.byte	36
0000005a 07             2688 	.byte	7
0000005b 25             2689 	.byte	37
0000005c 07             2690 	.byte	7
0000005d 26             2691 	.byte	38
0000005e 07             2692 	.byte	7
0000005f 27             2693 	.byte	39
00000060 07             2694 	.byte	7
00000061 28             2695 	.byte	40
00000062 07             2696 	.byte	7
00000063 29             2697 	.byte	41
00000064 07             2698 	.byte	7
00000065 2a             2699 	.byte	42
00000066 07             2700 	.byte	7
00000067 2b             2701 	.byte	43
00000068 07             2702 	.byte	7
00000069 2c             2703 	.byte	44
0000006a 07             2704 	.byte	7
0000006b 2d             2705 	.byte	45
0000006c 07             2706 	.byte	7
0000006d 2e             2707 	.byte	46
0000006e 07             2708 	.byte	7
0000006f 2f             2709 	.byte	47
00000070 07             2710 	.byte	7
00000071 30             2711 	.byte	48
00000072 07             2712 	.byte	7
00000073 31             2713 	.byte	49
00000074 07             2714 	.byte	7
00000075 32             2715 	.byte	50
00000076 07             2716 	.byte	7
00000077 33             2717 	.byte	51
00000078 07             2718 	.byte	7
00000079 34             2719 	.byte	52
0000007a 07             2720 	.byte	7
0000007b 35             2721 	.byte	53
0000007c 07             2722 	.byte	7
0000007d 36             2723 	.byte	54
0000007e 07             2724 	.byte	7
0000007f 37             2725 	.byte	55
00000080 07             2726 	.byte	7
00000081 38             2727 	.byte	56
00000082 07             2728 	.byte	7

                                                                      Page 53
                                                              C:\Users\NIKHIL~1.PAT\AppData\Local\Temp\gh_000aesk1.s
00000083 39             2729 	.byte	57
00000084 07             2730 	.byte	7
00000085 3a             2731 	.byte	58
00000086 07             2732 	.byte	7
00000087 3b             2733 	.byte	59
00000088 07             2734 	.byte	7
00000089 3c             2735 	.byte	60
0000008a 07             2736 	.byte	7
0000008b 3d             2737 	.byte	61
0000008c 07             2738 	.byte	7
0000008d 3e             2739 	.byte	62
0000008e 07             2740 	.byte	7
0000008f 3f             2741 	.byte	63
                        2742 .LDW_unq_2:
                        2743 	.section	.debug_info
                        2744 .LDW_37e4b0:
000000a5 25             2745 	.byte	37
000000a6 756e7369676e   2746 	.strz	"unsigned long"
000000ac 6564206c6f6e 
000000b2 6700 
000000b4 07             2747 	.byte	7
000000b5 04             2748 	.byte	4
                        2749 
                        2750 	.section	.debug_abbrev
00000017 25             2751 	.byte	37
00000018 24             2752 	.byte	36
00000019 00             2753 	.byte	0
0000001a 0308           2754 	.byte	3,8
0000001c 3e0b           2755 	.byte	62,11
0000001e 0b0b           2756 	.byte	11,11
00000020 0000           2757 	.byte	0,0
                        2758 
                        2759 	.section	.debug_info
                        2760 .LDW_4949e18:
000000b6 44             2761 	.byte	68
000000b7 00000000*      2762 	.word	.LDW_4913d90
000000bb 01             2763 	.byte	1
                        2764 
                        2765 	.section	.debug_abbrev
00000022 44             2766 	.byte	68
00000023 15             2767 	.byte	21
00000024 01             2768 	.byte	1
00000025 4910           2769 	.byte	73,16
00000027 270c           2770 	.byte	39,12
00000029 0000           2771 	.byte	0,0
                        2772 
                        2773 	.section	.debug_info
000000bc 00             2774 	.byte	0
                        2775 
                        2776 .LDW_4949e50:
000000bd 45             2777 	.byte	69
000000be 01             2778 	.byte	1
                        2779 
                        2780 	.section	.debug_abbrev
0000002b 45             2781 	.byte	69
0000002c 15             2782 	.byte	21
0000002d 01             2783 	.byte	1
0000002e 270c           2784 	.byte	39,12
00000030 0000           2785 	.byte	0,0
                        2786 
                        2787 	.section	.debug_info

                                                                      Page 54
                                                              C:\Users\NIKHIL~1.PAT\AppData\Local\Temp\gh_000aesk1.s
000000bf 00             2788 	.byte	0
                        2789 
                        2790 .LDW_4949e88:
000000c0 45             2791 	.byte	69
000000c1 01             2792 	.byte	1
                        2793 
000000c2 00             2794 	.byte	0
                        2795 
                        2796 .LDW_4949ec0:
000000c3 44             2797 	.byte	68
000000c4 00000000*      2798 	.word	.LDW_4913d90
000000c8 01             2799 	.byte	1
                        2800 
000000c9 00             2801 	.byte	0
                        2802 
                        2803 .LDW_4949f30:
000000ca 25             2804 	.byte	37
000000cb 756e7369676e   2805 	.strz	"unsigned char"
000000d1 656420636861 
000000d7 7200 
000000d9 08             2806 	.byte	8
000000da 01             2807 	.byte	1
                        2808 
                        2809 .LDW_4949f68:
000000db 25             2810 	.byte	37
000000dc 756e7369676e   2811 	.strz	"unsigned short"
000000e2 65642073686f 
000000e8 727400 
000000eb 07             2812 	.byte	7
000000ec 02             2813 	.byte	2
                        2814 
                        2815 .LDW_4949fa0:
000000ed 2f             2816 	.byte	47
000000ee 00000000*      2817 	.word	.LDW_4913e40
                        2818 
                        2819 	.section	.debug_abbrev
00000032 2f             2820 	.byte	47
00000033 0f             2821 	.byte	15
00000034 00             2822 	.byte	0
00000035 4910           2823 	.byte	73,16
00000037 0000           2824 	.byte	0,0
                        2825 
                        2826 	.section	.debug_info
                        2827 .LDW_4949ef8:
000000f2 45             2828 	.byte	69
000000f3 01             2829 	.byte	1
                        2830 
                        2831 .LDW_4937ba0:
000000f4 12             2832 	.byte	18
000000f5 00000000*      2833 	.word	.LDW_4913de8
000000f9 00             2834 	.byte	0
                        2835 
                        2836 	.section	.debug_abbrev
00000039 12             2837 	.byte	18
0000003a 05             2838 	.byte	5
0000003b 00             2839 	.byte	0
0000003c 4910           2840 	.byte	73,16
0000003e 4b0c           2841 	.byte	75,12
00000040 0000           2842 	.byte	0,0
                        2843 
                        2844 	.section	.debug_info

                                                                      Page 55
                                                              C:\Users\NIKHIL~1.PAT\AppData\Local\Temp\gh_000aesk1.s
                        2845 .LDW_4937bd0:
000000fa 12             2846 	.byte	18
000000fb 00000000*      2847 	.word	.LDW_4913de8
000000ff 00             2848 	.byte	0
                        2849 
                        2850 .LDW_4937c00:
00000100 12             2851 	.byte	18
00000101 00000000*      2852 	.word	.LDW_4913de8
00000105 00             2853 	.byte	0
                        2854 
                        2855 .LDW_3e90190:
00000106 12             2856 	.byte	18
00000107 00000000*      2857 	.word	.LDW_4913de8
0000010b 00             2858 	.byte	0
                        2859 
                        2860 .LDW_3e901c0:
0000010c 12             2861 	.byte	18
0000010d 00000000*      2862 	.word	.LDW_4949fa0
00000111 00             2863 	.byte	0
                        2864 
00000112 00             2865 	.byte	0
                        2866 
                        2867 .LDW_4949fd8:
00000113 45             2868 	.byte	69
00000114 01             2869 	.byte	1
                        2870 
                        2871 .LDW_3e90220:
00000115 12             2872 	.byte	18
00000116 00000000*      2873 	.word	.LDW_4913de8
0000011a 00             2874 	.byte	0
                        2875 
                        2876 .LDW_3e90250:
0000011b 12             2877 	.byte	18
0000011c 00000000*      2878 	.word	.LDW_4913de8
00000120 00             2879 	.byte	0
                        2880 
                        2881 .LDW_3e90280:
00000121 12             2882 	.byte	18
00000122 00000000*      2883 	.word	.LDW_4913de8
00000126 00             2884 	.byte	0
                        2885 
                        2886 .LDW_3e902b0:
00000127 12             2887 	.byte	18
00000128 00000000*      2888 	.word	.LDW_4913de8
0000012c 00             2889 	.byte	0
                        2890 
                        2891 .LDW_3e902e0:
0000012d 12             2892 	.byte	18
0000012e 00000000*      2893 	.word	.LDW_4913e40
00000132 00             2894 	.byte	0
                        2895 
00000133 00             2896 	.byte	0
                        2897 
                        2898 .LDW_494a048:
00000134 25             2899 	.byte	37
00000135 6368617200     2900 	.strz	"char"
0000013a 06             2901 	.byte	6
0000013b 01             2902 	.byte	1
                        2903 
                        2904 .LDW_494a010:
0000013c 45             2905 	.byte	69

                                                                      Page 56
                                                              C:\Users\NIKHIL~1.PAT\AppData\Local\Temp\gh_000aesk1.s
0000013d 01             2906 	.byte	1
                        2907 
                        2908 .LDW_3e90340:
0000013e 12             2909 	.byte	18
0000013f 00000000*      2910 	.word	.LDW_4913de8
00000143 00             2911 	.byte	0
                        2912 
                        2913 .LDW_3e90370:
00000144 12             2914 	.byte	18
00000145 00000000*      2915 	.word	.LDW_4913de8
00000149 00             2916 	.byte	0
                        2917 
                        2918 .LDW_3e903a0:
0000014a 12             2919 	.byte	18
0000014b 00000000*      2920 	.word	.LDW_4914310
0000014f 00             2921 	.byte	0
                        2922 
                        2923 .LDW_3e903d0:
00000150 12             2924 	.byte	18
00000151 00000000*      2925 	.word	.LDW_4913e40
00000155 00             2926 	.byte	0
                        2927 
                        2928 .LDW_3e90400:
00000156 12             2929 	.byte	18
00000157 00000000*      2930 	.word	.LDW_4913e40
0000015b 00             2931 	.byte	0
                        2932 
                        2933 .LDW_3e90430:
0000015c 12             2934 	.byte	18
0000015d 00000000*      2935 	.word	.LDW_4913de8
00000161 00             2936 	.byte	0
                        2937 
00000162 00             2938 	.byte	0
                        2939 
                        2940 .LDW_494a080:
00000163 45             2941 	.byte	69
00000164 01             2942 	.byte	1
                        2943 
                        2944 .LDW_3e90490:
00000165 12             2945 	.byte	18
00000166 00000000*      2946 	.word	.LDW_4913de8
0000016a 00             2947 	.byte	0
                        2948 
                        2949 .LDW_3e904c0:
0000016b 12             2950 	.byte	18
0000016c 00000000*      2951 	.word	.LDW_4913de8
00000170 00             2952 	.byte	0
                        2953 
00000171 00             2954 	.byte	0
                        2955 
                        2956 .LDW_494a0b8:
00000172 45             2957 	.byte	69
00000173 01             2958 	.byte	1
                        2959 
                        2960 .LDW_3e90520:
00000174 12             2961 	.byte	18
00000175 00000000*      2962 	.word	.LDW_4913de8
00000179 00             2963 	.byte	0
                        2964 
                        2965 .LDW_3e90550:
0000017a 12             2966 	.byte	18

                                                                      Page 57
                                                              C:\Users\NIKHIL~1.PAT\AppData\Local\Temp\gh_000aesk1.s
0000017b 00000000*      2967 	.word	.LDW_4913de8
0000017f 00             2968 	.byte	0
                        2969 
                        2970 .LDW_3e90580:
00000180 12             2971 	.byte	18
00000181 00000000*      2972 	.word	.LDW_4913e40
00000185 00             2973 	.byte	0
                        2974 
00000186 00             2975 	.byte	0
                        2976 
                        2977 .LDW_494a128:
00000187 2f             2978 	.byte	47
00000188 00000000*      2979 	.word	.LDW_4914310
                        2980 
                        2981 .LDW_494a0f0:
0000018c 45             2982 	.byte	69
0000018d 01             2983 	.byte	1
                        2984 
                        2985 .LDW_3e905e0:
0000018e 12             2986 	.byte	18
0000018f 00000000*      2987 	.word	.LDW_4913de8
00000193 00             2988 	.byte	0
                        2989 
                        2990 .LDW_3e90610:
00000194 12             2991 	.byte	18
00000195 00000000*      2992 	.word	.LDW_4913de8
00000199 00             2993 	.byte	0
                        2994 
                        2995 .LDW_3e90640:
0000019a 12             2996 	.byte	18
0000019b 00000000*      2997 	.word	.LDW_494a128
0000019f 00             2998 	.byte	0
                        2999 
                        3000 .LDW_3e90670:
000001a0 12             3001 	.byte	18
000001a1 00000000*      3002 	.word	.LDW_4913e40
000001a5 00             3003 	.byte	0
                        3004 
                        3005 .LDW_3e906a0:
000001a6 12             3006 	.byte	18
000001a7 00000000*      3007 	.word	.LDW_4913e40
000001ab 00             3008 	.byte	0
                        3009 
                        3010 .LDW_3e906d0:
000001ac 12             3011 	.byte	18
000001ad 00000000*      3012 	.word	.LDW_4913de8
000001b1 00             3013 	.byte	0
                        3014 
000001b2 00             3015 	.byte	0
                        3016 
                        3017 .LDW_494a160:
000001b3 45             3018 	.byte	69
000001b4 01             3019 	.byte	1
                        3020 
                        3021 .LDW_3e90730:
000001b5 12             3022 	.byte	18
000001b6 00000000*      3023 	.word	.LDW_4913de8
000001ba 00             3024 	.byte	0
                        3025 
000001bb 00             3026 	.byte	0
                        3027 

                                                                      Page 58
                                                              C:\Users\NIKHIL~1.PAT\AppData\Local\Temp\gh_000aesk1.s
                        3028 .LDW_494a198:
000001bc 45             3029 	.byte	69
000001bd 01             3030 	.byte	1
                        3031 
                        3032 .LDW_3e90790:
000001be 12             3033 	.byte	18
000001bf 00000000*      3034 	.word	.LDW_4913e40
000001c3 00             3035 	.byte	0
                        3036 
000001c4 00             3037 	.byte	0
                        3038 
                        3039 .LDW_494a1d0:
000001c5 45             3040 	.byte	69
000001c6 01             3041 	.byte	1
                        3042 
                        3043 .LDW_3e907f0:
000001c7 12             3044 	.byte	18
000001c8 00000000*      3045 	.word	.LDW_4949fa0
000001cc 00             3046 	.byte	0
                        3047 
                        3048 .LDW_3e90820:
000001cd 12             3049 	.byte	18
000001ce 00000000*      3050 	.word	.LDW_4913e40
000001d2 00             3051 	.byte	0
                        3052 
000001d3 00             3053 	.byte	0
                        3054 
                        3055 .LDW_494a208:
000001d4 45             3056 	.byte	69
000001d5 01             3057 	.byte	1
                        3058 
                        3059 .LDW_3e90880:
000001d6 12             3060 	.byte	18
000001d7 00000000*      3061 	.word	.LDW_4913e40
000001db 00             3062 	.byte	0
                        3063 
000001dc 00             3064 	.byte	0
                        3065 
                        3066 .LDW_494a240:
000001dd 25             3067 	.byte	37
000001de 696e7400       3068 	.strz	"int"
000001e2 05             3069 	.byte	5
000001e3 04             3070 	.byte	4
                        3071 
                        3072 .LDW_4a12548:
000001e4 29             3073 	.byte	41
000001e5 00000000*      3074 	.word	.LDW_4949f30
                        3075 
                        3076 	.section	.debug_abbrev
00000042 29             3077 	.byte	41
00000043 26             3078 	.byte	38
00000044 00             3079 	.byte	0
00000045 4910           3080 	.byte	73,16
00000047 0000           3081 	.byte	0,0
                        3082 
                        3083 	.section	.debug_info
                        3084 .LDW_4a0fe60:
000001e9 3a             3085 	.byte	58
000001ea 00             3086 	.byte	0
000001eb 800a           3087 	.byte	128,10
000001ed 00000000*      3088 	.word	.LDW_4a12548

                                                                      Page 59
                                                              C:\Users\NIKHIL~1.PAT\AppData\Local\Temp\gh_000aesk1.s
                        3089 
                        3090 	.section	.debug_abbrev
00000049 3a             3091 	.byte	58
0000004a 01             3092 	.byte	1
0000004b 01             3093 	.byte	1
0000004c 090b           3094 	.byte	9,11
0000004e 0b0f           3095 	.byte	11,15
00000050 4910           3096 	.byte	73,16
00000052 0000           3097 	.byte	0,0
                        3098 
                        3099 	.section	.debug_info
000001f1 32             3100 	.byte	50
000001f2 00000000*      3101 	.word	.LDW_494a240
000001f6 04             3102 	.byte	4
000001f7 00             3103 	.byte	0
000001f8 ff09           3104 	.byte	255,9
                        3105 
                        3106 	.section	.debug_abbrev
00000054 32             3107 	.byte	50
00000055 21             3108 	.byte	33
00000056 00             3109 	.byte	0
00000057 4910           3110 	.byte	73,16
00000059 0b0f           3111 	.byte	11,15
0000005b 220d           3112 	.byte	34,13
0000005d 2f0d           3113 	.byte	47,13
0000005f 0000           3114 	.byte	0,0
                        3115 
                        3116 	.section	.debug_info
000001fa 00             3117 	.byte	0
                        3118 
                        3119 .LDW_4a15c50:
000001fb 45             3120 	.byte	69
000001fc 01             3121 	.byte	1
                        3122 
                        3123 .LDW_4a150d8:
000001fd 12             3124 	.byte	18
000001fe 00000000*      3125 	.word	.LDW_3e90f50
00000202 00             3126 	.byte	0
                        3127 
00000203 00             3128 	.byte	0
                        3129 
                        3130 .LDW_4a15c88:
00000204 45             3131 	.byte	69
00000205 01             3132 	.byte	1
                        3133 
                        3134 .LDW_4a15108:
00000206 12             3135 	.byte	18
00000207 00000000*      3136 	.word	.LDW_3e90f50
0000020b 00             3137 	.byte	0
                        3138 
0000020c 00             3139 	.byte	0
                        3140 
                        3141 .LDW_4a15cf8:
0000020d 44             3142 	.byte	68
0000020e 00000000*      3143 	.word	.LDW_4913e40
00000212 01             3144 	.byte	1
                        3145 
                        3146 .LDW_4a15138:
00000213 12             3147 	.byte	18
00000214 00000000*      3148 	.word	.LDW_3e90f50
00000218 00             3149 	.byte	0

                                                                      Page 60
                                                              C:\Users\NIKHIL~1.PAT\AppData\Local\Temp\gh_000aesk1.s
                        3150 
00000219 00             3151 	.byte	0
                        3152 
                        3153 .LDW_4a15e48:
0000021a 45             3154 	.byte	69
0000021b 01             3155 	.byte	1
                        3156 
0000021c 00             3157 	.byte	0
                        3158 
                        3159 .LDW_4a15e80:
0000021d 45             3160 	.byte	69
0000021e 01             3161 	.byte	1
                        3162 
                        3163 .LDW_4a151f8:
0000021f 12             3164 	.byte	18
00000220 00000000*      3165 	.word	.LDW_4913de8
00000224 00             3166 	.byte	0
                        3167 
00000225 00             3168 	.byte	0
                        3169 
                        3170 .LDW_4a15eb8:
00000226 45             3171 	.byte	69
00000227 01             3172 	.byte	1
                        3173 
                        3174 .LDW_4a15228:
00000228 12             3175 	.byte	18
00000229 00000000*      3176 	.word	.LDW_4949fa0
0000022d 00             3177 	.byte	0
                        3178 
                        3179 .LDW_4a15258:
0000022e 12             3180 	.byte	18
0000022f 00000000*      3181 	.word	.LDW_4913e40
00000233 00             3182 	.byte	0
                        3183 
00000234 00             3184 	.byte	0
                        3185 
                        3186 .LDW_4a15ef0:
00000235 45             3187 	.byte	69
00000236 01             3188 	.byte	1
                        3189 
                        3190 .LDW_4a15288:
00000237 12             3191 	.byte	18
00000238 00000000*      3192 	.word	.LDW_4913e40
0000023c 00             3193 	.byte	0
                        3194 
0000023d 00             3195 	.byte	0
                        3196 
                        3197 .LDW_4a15f98:
0000023e 45             3198 	.byte	69
0000023f 01             3199 	.byte	1
                        3200 
                        3201 .LDW_4a152e8:
00000240 12             3202 	.byte	18
00000241 00000000*      3203 	.word	.LDW_4a13bc0
00000245 00             3204 	.byte	0
                        3205 
                        3206 .LDW_4a15318:
00000246 12             3207 	.byte	18
00000247 00000000*      3208 	.word	.LDW_4914050
0000024b 00             3209 	.byte	0
                        3210 

                                                                      Page 61
                                                              C:\Users\NIKHIL~1.PAT\AppData\Local\Temp\gh_000aesk1.s
                        3211 .LDW_4a15348:
0000024c 12             3212 	.byte	18
0000024d 00000000*      3213 	.word	.LDW_4a13b20
00000251 00             3214 	.byte	0
                        3215 
00000252 00             3216 	.byte	0
                        3217 
                        3218 .LDW_4a18028:
00000253 45             3219 	.byte	69
00000254 01             3220 	.byte	1
                        3221 
                        3222 .LDW_4a153d8:
00000255 12             3223 	.byte	18
00000256 00000000*      3224 	.word	.LDW_4a13bc0
0000025a 00             3225 	.byte	0
                        3226 
                        3227 .LDW_4a18828:
0000025b 12             3228 	.byte	18
0000025c 00000000*      3229 	.word	.LDW_4914050
00000260 00             3230 	.byte	0
                        3231 
00000261 00             3232 	.byte	0
                        3233 
                        3234 .LDW_4a18060:
00000262 45             3235 	.byte	69
00000263 01             3236 	.byte	1
                        3237 
                        3238 .LDW_4a18858:
00000264 12             3239 	.byte	18
00000265 00000000*      3240 	.word	.LDW_4a13bc0
00000269 00             3241 	.byte	0
                        3242 
                        3243 .LDW_4a18888:
0000026a 12             3244 	.byte	18
0000026b 00000000*      3245 	.word	.LDW_4914050
0000026f 00             3246 	.byte	0
                        3247 
00000270 00             3248 	.byte	0
                        3249 
                        3250 .LDW_4a18098:
00000271 45             3251 	.byte	69
00000272 01             3252 	.byte	1
                        3253 
                        3254 .LDW_4a188b8:
00000273 12             3255 	.byte	18
00000274 00000000*      3256 	.word	.LDW_4a13bc0
00000278 00             3257 	.byte	0
                        3258 
                        3259 .LDW_4a188e8:
00000279 12             3260 	.byte	18
0000027a 00000000*      3261 	.word	.LDW_4914050
0000027e 00             3262 	.byte	0
                        3263 
                        3264 .LDW_4a18918:
0000027f 12             3265 	.byte	18
00000280 00000000*      3266 	.word	.LDW_4a13a80
00000284 00             3267 	.byte	0
                        3268 
                        3269 .LDW_4a18948:
00000285 12             3270 	.byte	18
00000286 00000000*      3271 	.word	.LDW_4a13ad0

                                                                      Page 62
                                                              C:\Users\NIKHIL~1.PAT\AppData\Local\Temp\gh_000aesk1.s
0000028a 00             3272 	.byte	0
                        3273 
0000028b 00             3274 	.byte	0
                        3275 
                        3276 .LDW_4a180d0:
0000028c 44             3277 	.byte	68
0000028d 00000000*      3278 	.word	.LDW_4914050
00000291 01             3279 	.byte	1
                        3280 
                        3281 .LDW_4a18978:
00000292 12             3282 	.byte	18
00000293 00000000*      3283 	.word	.LDW_4a13bc0
00000297 00             3284 	.byte	0
                        3285 
                        3286 .LDW_4a189a8:
00000298 12             3287 	.byte	18
00000299 00000000*      3288 	.word	.LDW_4914050
0000029d 00             3289 	.byte	0
                        3290 
0000029e 00             3291 	.byte	0
                        3292 
                        3293 .LDW_3e8ffa8:
0000029f 2e             3294 	.byte	46
000002a0 00             3295 	.byte	0
000002a1 5f             3296 	.byte	95
000002a2 01             3297 	.byte	1
000002a3 07             3298 	.byte	7
000002a4 04             3299 	.byte	4
000002a5 01             3300 	.byte	1
                        3301 
                        3302 	.section	.debug_abbrev
00000061 2e             3303 	.byte	46
00000062 04             3304 	.byte	4
00000063 01             3305 	.byte	1
00000064 0308           3306 	.byte	3,8
00000066 3b0f           3307 	.byte	59,15
00000068 390f           3308 	.byte	57,15
0000006a 3a0f           3309 	.byte	58,15
0000006c 0b0f           3310 	.byte	11,15
0000006e 320b           3311 	.byte	50,11
00000070 0000           3312 	.byte	0,0
                        3313 
                        3314 	.section	.debug_info
                        3315 .LDW_404ffa8:
000002a6 2d             3316 	.byte	45
000002a7 525f4f4b00     3317 	.strz	"R_OK"
000002ac 60             3318 	.byte	96
000002ad 03             3319 	.byte	3
000002ae 07             3320 	.byte	7
000002af 00             3321 	.byte	0
                        3322 
                        3323 	.section	.debug_abbrev
00000072 2d             3324 	.byte	45
00000073 28             3325 	.byte	40
00000074 00             3326 	.byte	0
00000075 0308           3327 	.byte	3,8
00000077 3b0f           3328 	.byte	59,15
00000079 390f           3329 	.byte	57,15
0000007b 3a0f           3330 	.byte	58,15
0000007d 1c0d           3331 	.byte	28,13
0000007f 0000           3332 	.byte	0,0

                                                                      Page 63
                                                              C:\Users\NIKHIL~1.PAT\AppData\Local\Temp\gh_000aesk1.s
                        3333 
                        3334 	.section	.debug_info
                        3335 .LDW_3e8fff8:
000002b0 2d             3336 	.byte	45
000002b1 525f4552524f   3337 	.strz	"R_ERROR"
000002b7 5200 
000002b9 61             3338 	.byte	97
000002ba 03             3339 	.byte	3
000002bb 07             3340 	.byte	7
000002bc 01             3341 	.byte	1
                        3342 
                        3343 .LDW_3e90038:
000002bd 2d             3344 	.byte	45
000002be 525f4552524f   3345 	.strz	"R_ERROR_NOTIFY"
000002c4 525f4e4f5449 
000002ca 465900 
000002cd 62             3346 	.byte	98
000002ce 03             3347 	.byte	3
000002cf 07             3348 	.byte	7
000002d0 02             3349 	.byte	2
                        3350 
                        3351 .LDW_3e90078:
000002d1 2d             3352 	.byte	45
000002d2 525f50415241   3353 	.strz	"R_PARAMETER_MISSING"
000002d8 4d455445525f 
000002de 4d495353494e 
000002e4 4700 
000002e6 63             3354 	.byte	99
000002e7 03             3355 	.byte	3
000002e8 07             3356 	.byte	7
000002e9 03             3357 	.byte	3
                        3358 
                        3359 .LDW_3e900b8:
000002ea 2d             3360 	.byte	45
000002eb 525f50415241   3361 	.strz	"R_PARAMETER_RANGE"
000002f1 4d455445525f 
000002f7 52414e474500 
000002fd 64             3362 	.byte	100
000002fe 03             3363 	.byte	3
000002ff 07             3364 	.byte	7
00000300 04             3365 	.byte	4
                        3366 
                        3367 .LDW_3e900f8:
00000301 2d             3368 	.byte	45
00000302 525f50415241   3369 	.strz	"R_PARAMETER_INCORRECT"
00000308 4d455445525f 
0000030e 494e434f5252 
00000314 45435400 
00000318 65             3370 	.byte	101
00000319 03             3371 	.byte	3
0000031a 07             3372 	.byte	7
0000031b 05             3373 	.byte	5
                        3374 
                        3375 .LDW_3e90138:
0000031c 2d             3376 	.byte	45
0000031d 525f44415441   3377 	.strz	"R_DATA_MISMATCH"
00000323 5f4d49534d41 
00000329 54434800 
0000032d 66             3378 	.byte	102
0000032e 03             3379 	.byte	3
0000032f 07             3380 	.byte	7

                                                                      Page 64
                                                              C:\Users\NIKHIL~1.PAT\AppData\Local\Temp\gh_000aesk1.s
00000330 06             3381 	.byte	6
                        3382 
00000331 00             3383 	.byte	0
                        3384 
                        3385 .LDW_4913d90:
00000332 28             3386 	.byte	40
00000333 725f4572726f   3387 	.strz	"r_Error_t"
00000339 725f7400 
0000033d 67             3388 	.byte	103
0000033e 03             3389 	.byte	3
0000033f 07             3390 	.byte	7
00000340 00000000*      3391 	.word	.LDW_3e8ffa8
                        3392 
                        3393 	.section	.debug_abbrev
00000081 28             3394 	.byte	40
00000082 16             3395 	.byte	22
00000083 00             3396 	.byte	0
00000084 0308           3397 	.byte	3,8
00000086 3b0f           3398 	.byte	59,15
00000088 390f           3399 	.byte	57,15
0000008a 3a0f           3400 	.byte	58,15
0000008c 4910           3401 	.byte	73,16
0000008e 0000           3402 	.byte	0,0
                        3403 
                        3404 	.section	.debug_info
                        3405 .LDW_4914310:
00000344 28             3406 	.byte	40
00000345 636861725f74   3407 	.strz	"char_t"
0000034b 00 
0000034c 76             3408 	.byte	118
0000034d 1c             3409 	.byte	28
0000034e 07             3410 	.byte	7
0000034f 00000000*      3411 	.word	.LDW_494a048
                        3412 
                        3413 .LDW_4913de8:
00000353 28             3414 	.byte	40
00000354 75696e74385f   3415 	.strz	"uint8_t"
0000035a 7400 
0000035c 7b             3416 	.byte	123
0000035d 1c             3417 	.byte	28
0000035e 07             3418 	.byte	7
0000035f 00000000*      3419 	.word	.LDW_4949f30
                        3420 
                        3421 .LDW_4913e40:
00000363 28             3422 	.byte	40
00000364 75696e743136   3423 	.strz	"uint16_t"
0000036a 5f7400 
0000036d 7c             3424 	.byte	124
0000036e 1c             3425 	.byte	28
0000036f 07             3426 	.byte	7
00000370 00000000*      3427 	.word	.LDW_4949f68
                        3428 
                        3429 .LDW_4914050:
00000374 28             3430 	.byte	40
00000375 75696e743332   3431 	.strz	"uint32_t"
0000037b 5f7400 
0000037e 7d             3432 	.byte	125
0000037f 1c             3433 	.byte	28
00000380 07             3434 	.byte	7
00000381 00000000*      3435 	.word	.LDW_37e4b0
                        3436 

                                                                      Page 65
                                                              C:\Users\NIKHIL~1.PAT\AppData\Local\Temp\gh_000aesk1.s
                        3437 .LDW_3e90f50:
00000385 2e             3438 	.byte	46
00000386 41506f727473   3439 	.strz	"APorts"
0000038c 00 
0000038d 40             3440 	.byte	64
0000038e 06             3441 	.byte	6
0000038f 0a             3442 	.byte	10
00000390 04             3443 	.byte	4
00000391 01             3444 	.byte	1
                        3445 
                        3446 .LDW_4a12980:
00000392 2d             3447 	.byte	45
00000393 4150305f3000   3448 	.strz	"AP0_0"
00000399 42             3449 	.byte	66
0000039a 05             3450 	.byte	5
0000039b 0a             3451 	.byte	10
0000039c 00             3452 	.byte	0
                        3453 
                        3454 .LDW_4a129c0:
0000039d 2d             3455 	.byte	45
0000039e 4150305f3100   3456 	.strz	"AP0_1"
000003a4 43             3457 	.byte	67
000003a5 05             3458 	.byte	5
000003a6 0a             3459 	.byte	10
000003a7 01             3460 	.byte	1
                        3461 
                        3462 .LDW_4a12a00:
000003a8 2d             3463 	.byte	45
000003a9 4150305f3200   3464 	.strz	"AP0_2"
000003af 44             3465 	.byte	68
000003b0 05             3466 	.byte	5
000003b1 0a             3467 	.byte	10
000003b2 02             3468 	.byte	2
                        3469 
                        3470 .LDW_4a12a40:
000003b3 2d             3471 	.byte	45
000003b4 4150305f3300   3472 	.strz	"AP0_3"
000003ba 45             3473 	.byte	69
000003bb 05             3474 	.byte	5
000003bc 0a             3475 	.byte	10
000003bd 03             3476 	.byte	3
                        3477 
                        3478 .LDW_4a12a98:
000003be 2d             3479 	.byte	45
000003bf 4150305f3400   3480 	.strz	"AP0_4"
000003c5 46             3481 	.byte	70
000003c6 05             3482 	.byte	5
000003c7 0a             3483 	.byte	10
000003c8 04             3484 	.byte	4
                        3485 
                        3486 .LDW_4a12ad8:
000003c9 2d             3487 	.byte	45
000003ca 4150305f3500   3488 	.strz	"AP0_5"
000003d0 47             3489 	.byte	71
000003d1 05             3490 	.byte	5
000003d2 0a             3491 	.byte	10
000003d3 05             3492 	.byte	5
                        3493 
                        3494 .LDW_4a12b18:
000003d4 2d             3495 	.byte	45
000003d5 4150305f3600   3496 	.strz	"AP0_6"

                                                                      Page 66
                                                              C:\Users\NIKHIL~1.PAT\AppData\Local\Temp\gh_000aesk1.s
000003db 48             3497 	.byte	72
000003dc 05             3498 	.byte	5
000003dd 0a             3499 	.byte	10
000003de 06             3500 	.byte	6
                        3501 
                        3502 .LDW_4a12b58:
000003df 2d             3503 	.byte	45
000003e0 4150305f3700   3504 	.strz	"AP0_7"
000003e6 49             3505 	.byte	73
000003e7 05             3506 	.byte	5
000003e8 0a             3507 	.byte	10
000003e9 07             3508 	.byte	7
                        3509 
                        3510 .LDW_4a12b98:
000003ea 2d             3511 	.byte	45
000003eb 4150305f3800   3512 	.strz	"AP0_8"
000003f1 4a             3513 	.byte	74
000003f2 05             3514 	.byte	5
000003f3 0a             3515 	.byte	10
000003f4 08             3516 	.byte	8
                        3517 
                        3518 .LDW_4a12bd8:
000003f5 2d             3519 	.byte	45
000003f6 4150305f3900   3520 	.strz	"AP0_9"
000003fc 4b             3521 	.byte	75
000003fd 05             3522 	.byte	5
000003fe 0a             3523 	.byte	10
000003ff 09             3524 	.byte	9
                        3525 
                        3526 .LDW_4a12c18:
00000400 2d             3527 	.byte	45
00000401 4150305f3130   3528 	.strz	"AP0_10"
00000407 00 
00000408 4c             3529 	.byte	76
00000409 05             3530 	.byte	5
0000040a 0a             3531 	.byte	10
0000040b 0a             3532 	.byte	10
                        3533 
                        3534 .LDW_4a12c58:
0000040c 2d             3535 	.byte	45
0000040d 4150305f3131   3536 	.strz	"AP0_11"
00000413 00 
00000414 4d             3537 	.byte	77
00000415 05             3538 	.byte	5
00000416 0a             3539 	.byte	10
00000417 0b             3540 	.byte	11
                        3541 
                        3542 .LDW_4a12c98:
00000418 2d             3543 	.byte	45
00000419 4150305f3132   3544 	.strz	"AP0_12"
0000041f 00 
00000420 4e             3545 	.byte	78
00000421 05             3546 	.byte	5
00000422 0a             3547 	.byte	10
00000423 0c             3548 	.byte	12
                        3549 
                        3550 .LDW_4a12cd8:
00000424 2d             3551 	.byte	45
00000425 4150305f3133   3552 	.strz	"AP0_13"
0000042b 00 
0000042c 4f             3553 	.byte	79

                                                                      Page 67
                                                              C:\Users\NIKHIL~1.PAT\AppData\Local\Temp\gh_000aesk1.s
0000042d 05             3554 	.byte	5
0000042e 0a             3555 	.byte	10
0000042f 0d             3556 	.byte	13
                        3557 
                        3558 .LDW_4a12d18:
00000430 2d             3559 	.byte	45
00000431 4150305f3134   3560 	.strz	"AP0_14"
00000437 00 
00000438 50             3561 	.byte	80
00000439 05             3562 	.byte	5
0000043a 0a             3563 	.byte	10
0000043b 0e             3564 	.byte	14
                        3565 
                        3566 .LDW_4a12d58:
0000043c 2d             3567 	.byte	45
0000043d 4150305f3135   3568 	.strz	"AP0_15"
00000443 00 
00000444 51             3569 	.byte	81
00000445 05             3570 	.byte	5
00000446 0a             3571 	.byte	10
00000447 0f             3572 	.byte	15
                        3573 
00000448 00             3574 	.byte	0
                        3575 
                        3576 .LDW_4a13a80:
00000449 2e             3577 	.byte	46
0000044a 616c745f7400   3578 	.strz	"alt_t"
00000450 48             3579 	.byte	72
00000451 06             3580 	.byte	6
00000452 0c             3581 	.byte	12
00000453 04             3582 	.byte	4
00000454 01             3583 	.byte	1
                        3584 
                        3585 .LDW_4a12d98:
00000455 2d             3586 	.byte	45
00000456 416c743100     3587 	.strz	"Alt1"
0000045b 4a             3588 	.byte	74
0000045c 05             3589 	.byte	5
0000045d 0c             3590 	.byte	12
0000045e 00             3591 	.byte	0
                        3592 
                        3593 .LDW_4a12dd8:
0000045f 2d             3594 	.byte	45
00000460 416c743200     3595 	.strz	"Alt2"
00000465 4b             3596 	.byte	75
00000466 05             3597 	.byte	5
00000467 0c             3598 	.byte	12
00000468 01             3599 	.byte	1
                        3600 
                        3601 .LDW_4a12e18:
00000469 2d             3602 	.byte	45
0000046a 416c743300     3603 	.strz	"Alt3"
0000046f 4c             3604 	.byte	76
00000470 05             3605 	.byte	5
00000471 0c             3606 	.byte	12
00000472 02             3607 	.byte	2
                        3608 
                        3609 .LDW_4a12e58:
00000473 2d             3610 	.byte	45
00000474 416c743400     3611 	.strz	"Alt4"
00000479 4d             3612 	.byte	77

                                                                      Page 68
                                                              C:\Users\NIKHIL~1.PAT\AppData\Local\Temp\gh_000aesk1.s
0000047a 05             3613 	.byte	5
0000047b 0c             3614 	.byte	12
0000047c 03             3615 	.byte	3
                        3616 
                        3617 .LDW_4a12e98:
0000047d 2d             3618 	.byte	45
0000047e 416c743500     3619 	.strz	"Alt5"
00000483 4e             3620 	.byte	78
00000484 05             3621 	.byte	5
00000485 0c             3622 	.byte	12
00000486 04             3623 	.byte	4
                        3624 
00000487 00             3625 	.byte	0
                        3626 
                        3627 .LDW_4a13ad0:
00000488 2e             3628 	.byte	46
00000489 696f5f7400     3629 	.strz	"io_t"
0000048e 51             3630 	.byte	81
0000048f 06             3631 	.byte	6
00000490 0c             3632 	.byte	12
00000491 04             3633 	.byte	4
00000492 01             3634 	.byte	1
                        3635 
                        3636 .LDW_4a12ed8:
00000493 2d             3637 	.byte	45
00000494 496e70757400   3638 	.strz	"Input"
0000049a 53             3639 	.byte	83
0000049b 05             3640 	.byte	5
0000049c 0c             3641 	.byte	12
0000049d 00             3642 	.byte	0
                        3643 
                        3644 .LDW_4a12f18:
0000049e 2d             3645 	.byte	45
0000049f 4f7574707574   3646 	.strz	"Output"
000004a5 00 
000004a6 54             3647 	.byte	84
000004a7 05             3648 	.byte	5
000004a8 0c             3649 	.byte	12
000004a9 01             3650 	.byte	1
                        3651 
000004aa 00             3652 	.byte	0
                        3653 
                        3654 .LDW_4a13b20:
000004ab 2e             3655 	.byte	46
000004ac 6c6576656c5f   3656 	.strz	"level_t"
000004b2 7400 
000004b4 57             3657 	.byte	87
000004b5 06             3658 	.byte	6
000004b6 0c             3659 	.byte	12
000004b7 04             3660 	.byte	4
000004b8 01             3661 	.byte	1
                        3662 
                        3663 .LDW_4a12f58:
000004b9 2d             3664 	.byte	45
000004ba 4c6f7700       3665 	.strz	"Low"
000004be 59             3666 	.byte	89
000004bf 05             3667 	.byte	5
000004c0 0c             3668 	.byte	12
000004c1 00             3669 	.byte	0
                        3670 
                        3671 .LDW_4a12f98:

                                                                      Page 69
                                                              C:\Users\NIKHIL~1.PAT\AppData\Local\Temp\gh_000aesk1.s
000004c2 2d             3672 	.byte	45
000004c3 4869676800     3673 	.strz	"High"
000004c8 5a             3674 	.byte	90
000004c9 05             3675 	.byte	5
000004ca 0c             3676 	.byte	12
000004cb 01             3677 	.byte	1
                        3678 
000004cc 00             3679 	.byte	0
                        3680 
                        3681 .LDW_4a13bc0:
000004cd 2e             3682 	.byte	46
000004ce 706f72745f74   3683 	.strz	"port_t"
000004d4 00 
000004d5 8601           3684 	.byte	134,1
000004d7 06             3685 	.byte	6
000004d8 0c             3686 	.byte	12
000004d9 04             3687 	.byte	4
000004da 01             3688 	.byte	1
                        3689 
                        3690 .LDW_4a13418:
000004db 2d             3691 	.byte	45
000004dc 506f72743000   3692 	.strz	"Port0"
000004e2 8801           3693 	.byte	136,1
000004e4 05             3694 	.byte	5
000004e5 0c             3695 	.byte	12
000004e6 00             3696 	.byte	0
                        3697 
                        3698 .LDW_4a13458:
000004e7 2d             3699 	.byte	45
000004e8 506f72743100   3700 	.strz	"Port1"
000004ee 8901           3701 	.byte	137,1
000004f0 05             3702 	.byte	5
000004f1 0c             3703 	.byte	12
000004f2 01             3704 	.byte	1
                        3705 
                        3706 .LDW_4a13498:
000004f3 2d             3707 	.byte	45
000004f4 506f72743200   3708 	.strz	"Port2"
000004fa 8a01           3709 	.byte	138,1
000004fc 05             3710 	.byte	5
000004fd 0c             3711 	.byte	12
000004fe 02             3712 	.byte	2
                        3713 
                        3714 .LDW_4a134d8:
000004ff 2d             3715 	.byte	45
00000500 506f72743800   3716 	.strz	"Port8"
00000506 8b01           3717 	.byte	139,1
00000508 05             3718 	.byte	5
00000509 0c             3719 	.byte	12
0000050a 03             3720 	.byte	3
                        3721 
                        3722 .LDW_4a13518:
0000050b 2d             3723 	.byte	45
0000050c 506f72743900   3724 	.strz	"Port9"
00000512 8c01           3725 	.byte	140,1
00000514 05             3726 	.byte	5
00000515 0c             3727 	.byte	12
00000516 04             3728 	.byte	4
                        3729 
                        3730 .LDW_4a13558:
00000517 2d             3731 	.byte	45

                                                                      Page 70
                                                              C:\Users\NIKHIL~1.PAT\AppData\Local\Temp\gh_000aesk1.s
00000518 506f72743130   3732 	.strz	"Port10"
0000051e 00 
0000051f 8d01           3733 	.byte	141,1
00000521 05             3734 	.byte	5
00000522 0c             3735 	.byte	12
00000523 05             3736 	.byte	5
                        3737 
                        3738 .LDW_4a13598:
00000524 2d             3739 	.byte	45
00000525 506f72743131   3740 	.strz	"Port11"
0000052b 00 
0000052c 8e01           3741 	.byte	142,1
0000052e 05             3742 	.byte	5
0000052f 0c             3743 	.byte	12
00000530 06             3744 	.byte	6
                        3745 
                        3746 .LDW_4a135d8:
00000531 2d             3747 	.byte	45
00000532 506f72743132   3748 	.strz	"Port12"
00000538 00 
00000539 8f01           3749 	.byte	143,1
0000053b 05             3750 	.byte	5
0000053c 0c             3751 	.byte	12
0000053d 07             3752 	.byte	7
                        3753 
                        3754 .LDW_4a13618:
0000053e 2d             3755 	.byte	45
0000053f 506f72743138   3756 	.strz	"Port18"
00000545 00 
00000546 9001           3757 	.byte	144,1
00000548 05             3758 	.byte	5
00000549 0c             3759 	.byte	12
0000054a 08             3760 	.byte	8
                        3761 
                        3762 .LDW_4a13658:
0000054b 2d             3763 	.byte	45
0000054c 506f72743230   3764 	.strz	"Port20"
00000552 00 
00000553 9101           3765 	.byte	145,1
00000555 05             3766 	.byte	5
00000556 0c             3767 	.byte	12
00000557 09             3768 	.byte	9
                        3769 
                        3770 .LDW_4a13698:
00000558 2d             3771 	.byte	45
00000559 41506f727430   3772 	.strz	"APort0"
0000055f 00 
00000560 9201           3773 	.byte	146,1
00000562 05             3774 	.byte	5
00000563 0c             3775 	.byte	12
00000564 0a             3776 	.byte	10
                        3777 
                        3778 .LDW_4a136d8:
00000565 2d             3779 	.byte	45
00000566 41506f727431   3780 	.strz	"APort1"
0000056c 00 
0000056d 9301           3781 	.byte	147,1
0000056f 05             3782 	.byte	5
00000570 0c             3783 	.byte	12
00000571 0b             3784 	.byte	11
                        3785 

                                                                      Page 71
                                                              C:\Users\NIKHIL~1.PAT\AppData\Local\Temp\gh_000aesk1.s
00000572 00             3786 	.byte	0
                        3787 
                        3788 .LDW_4a125a0:
00000573 04             3789 	.byte	4
00000574 666f6e7400     3790 	.strz	"font"
00000579 02             3791 	.byte	2
0000057a 16             3792 	.byte	22
0000057b 09             3793 	.byte	9
0000057c 00000000*      3794 	.word	.LDW_4a0fe60
00000580 01             3795 	.byte	1
00000581 00             3796 	.byte	0
00000582 0503           3797 	.byte	5,3
00000584 00000000*      3798 	.word	_font
                        3799 
                        3800 	.section	.debug_abbrev
00000090 04             3801 	.byte	4
00000091 34             3802 	.byte	52
00000092 00             3803 	.byte	0
00000093 0308           3804 	.byte	3,8
00000095 3b0f           3805 	.byte	59,15
00000097 390f           3806 	.byte	57,15
00000099 3a0f           3807 	.byte	58,15
0000009b 4910           3808 	.byte	73,16
0000009d 3f0c           3809 	.byte	63,12
0000009f 3c0c           3810 	.byte	60,12
000000a1 020a           3811 	.byte	2,10
000000a3 0000           3812 	.byte	0,0
                        3813 
                        3814 	.section	.debug_info
                        3815 .LDW_4a169a8:
00000588 15             3816 	.byte	21
00000589 525f41444341   3817 	.strz	"R_ADCA0_ConnectPullDown"
0000058f 305f436f6e6e 
00000595 65637450756c 
0000059b 6c446f776e00 
000005a1 58             3818 	.byte	88
000005a2 06             3819 	.byte	6
000005a3 0a             3820 	.byte	10
000005a4 01             3821 	.byte	1
000005a5 00             3822 	.byte	0
000005a6 01             3823 	.byte	1
000005a7 01             3824 	.byte	1
000005a8 00             3825 	.byte	0
000005a9 01             3826 	.byte	1
                        3827 
                        3828 	.section	.debug_abbrev
000000a5 15             3829 	.byte	21
000000a6 2e             3830 	.byte	46
000000a7 01             3831 	.byte	1
000000a8 0308           3832 	.byte	3,8
000000aa 3b0f           3833 	.byte	59,15
000000ac 390f           3834 	.byte	57,15
000000ae 3a0f           3835 	.byte	58,15
000000b0 3c0c           3836 	.byte	60,12
000000b2 200b           3837 	.byte	32,11
000000b4 3f0c           3838 	.byte	63,12
000000b6 320b           3839 	.byte	50,11
000000b8 4c0b           3840 	.byte	76,11
000000ba 270c           3841 	.byte	39,12
000000bc 0000           3842 	.byte	0,0
                        3843 

                                                                      Page 72
                                                              C:\Users\NIKHIL~1.PAT\AppData\Local\Temp\gh_000aesk1.s
                        3844 	.section	.debug_info
000005aa 00             3845 	.byte	0
                        3846 
                        3847 .LDW_4a16a40:
000005ab 15             3848 	.byte	21
000005ac 525f41444341   3849 	.strz	"R_ADCA0_DisconnectPullDown"
000005b2 305f44697363 
000005b8 6f6e6e656374 
000005be 50756c6c446f 
000005c4 776e00 
000005c7 59             3850 	.byte	89
000005c8 06             3851 	.byte	6
000005c9 0a             3852 	.byte	10
000005ca 01             3853 	.byte	1
000005cb 00             3854 	.byte	0
000005cc 01             3855 	.byte	1
000005cd 01             3856 	.byte	1
000005ce 00             3857 	.byte	0
000005cf 01             3858 	.byte	1
                        3859 
000005d0 00             3860 	.byte	0
                        3861 
                        3862 .LDW_4a16b70:
000005d1 16             3863 	.byte	22
000005d2 525f41444341   3864 	.strz	"R_ADCA0_PinRead"
000005d8 305f50696e52 
000005de 65616400 
000005e2 5b             3865 	.byte	91
000005e3 0a             3866 	.byte	10
000005e4 0a             3867 	.byte	10
000005e5 00000000*      3868 	.word	.LDW_4913e40
000005e9 01             3869 	.byte	1
000005ea 00             3870 	.byte	0
000005eb 01             3871 	.byte	1
000005ec 01             3872 	.byte	1
000005ed 00             3873 	.byte	0
000005ee 01             3874 	.byte	1
                        3875 
                        3876 	.section	.debug_abbrev
000000be 16             3877 	.byte	22
000000bf 2e             3878 	.byte	46
000000c0 01             3879 	.byte	1
000000c1 0308           3880 	.byte	3,8
000000c3 3b0f           3881 	.byte	59,15
000000c5 390f           3882 	.byte	57,15
000000c7 3a0f           3883 	.byte	58,15
000000c9 4910           3884 	.byte	73,16
000000cb 3c0c           3885 	.byte	60,12
000000cd 200b           3886 	.byte	32,11
000000cf 3f0c           3887 	.byte	63,12
000000d1 320b           3888 	.byte	50,11
000000d3 4c0b           3889 	.byte	76,11
000000d5 270c           3890 	.byte	39,12
000000d7 0000           3891 	.byte	0,0
                        3892 
                        3893 	.section	.debug_info
000005ef 00             3894 	.byte	0
                        3895 
                        3896 .LDW_4a16f00:
000005f0 15             3897 	.byte	21
000005f1 525f43534948   3898 	.strz	"R_CSIH2_Init"

                                                                      Page 73
                                                              C:\Users\NIKHIL~1.PAT\AppData\Local\Temp\gh_000aesk1.s
000005f7 325f496e6974 
000005fd 00 
000005fe 3f             3899 	.byte	63
000005ff 06             3900 	.byte	6
00000600 0b             3901 	.byte	11
00000601 01             3902 	.byte	1
00000602 00             3903 	.byte	0
00000603 01             3904 	.byte	1
00000604 01             3905 	.byte	1
00000605 00             3906 	.byte	0
00000606 01             3907 	.byte	1
                        3908 
00000607 00             3909 	.byte	0
                        3910 
                        3911 .LDW_4a16f98:
00000608 15             3912 	.byte	21
00000609 525f43534948   3913 	.strz	"R_CSIH2_C4_SetTxSize"
0000060f 325f43345f53 
00000615 657454785369 
0000061b 7a6500 
0000061e 40             3914 	.byte	64
0000061f 06             3915 	.byte	6
00000620 0b             3916 	.byte	11
00000621 01             3917 	.byte	1
00000622 00             3918 	.byte	0
00000623 01             3919 	.byte	1
00000624 01             3920 	.byte	1
00000625 00             3921 	.byte	0
00000626 01             3922 	.byte	1
                        3923 
00000627 00             3924 	.byte	0
                        3925 
                        3926 .LDW_4a17030:
00000628 15             3927 	.byte	21
00000629 525f43534948   3928 	.strz	"R_CSIH2_TransmitBuffer"
0000062f 325f5472616e 
00000635 736d69744275 
0000063b 6666657200 
00000640 41             3929 	.byte	65
00000641 06             3930 	.byte	6
00000642 0b             3931 	.byte	11
00000643 01             3932 	.byte	1
00000644 00             3933 	.byte	0
00000645 01             3934 	.byte	1
00000646 01             3935 	.byte	1
00000647 00             3936 	.byte	0
00000648 01             3937 	.byte	1
                        3938 
00000649 00             3939 	.byte	0
                        3940 
                        3941 .LDW_4a170c8:
0000064a 15             3942 	.byte	21
0000064b 525f43534948   3943 	.strz	"R_CSIH2_TransmitData"
00000651 325f5472616e 
00000657 736d69744461 
0000065d 746100 
00000660 42             3944 	.byte	66
00000661 06             3945 	.byte	6
00000662 0b             3946 	.byte	11
00000663 01             3947 	.byte	1
00000664 00             3948 	.byte	0

                                                                      Page 74
                                                              C:\Users\NIKHIL~1.PAT\AppData\Local\Temp\gh_000aesk1.s
00000665 01             3949 	.byte	1
00000666 01             3950 	.byte	1
00000667 00             3951 	.byte	0
00000668 01             3952 	.byte	1
                        3953 
00000669 00             3954 	.byte	0
                        3955 
                        3956 .LDW_4a17290:
0000066a 15             3957 	.byte	21
0000066b 525f504f5254   3958 	.strz	"R_PORT_SetGpioOutput"
00000671 5f5365744770 
00000677 696f4f757470 
0000067d 757400 
00000680 ab01           3959 	.byte	171,1
00000682 06             3960 	.byte	6
00000683 0c             3961 	.byte	12
00000684 01             3962 	.byte	1
00000685 00             3963 	.byte	0
00000686 01             3964 	.byte	1
00000687 01             3965 	.byte	1
00000688 00             3966 	.byte	0
00000689 01             3967 	.byte	1
                        3968 
0000068a 00             3969 	.byte	0
                        3970 
                        3971 .LDW_4a173c0:
0000068b 15             3972 	.byte	21
0000068c 525f504f5254   3973 	.strz	"R_PORT_SetGpioInput"
00000692 5f5365744770 
00000698 696f496e7075 
0000069e 7400 
000006a0 ad01           3974 	.byte	173,1
000006a2 06             3975 	.byte	6
000006a3 0c             3976 	.byte	12
000006a4 01             3977 	.byte	1
000006a5 00             3978 	.byte	0
000006a6 01             3979 	.byte	1
000006a7 01             3980 	.byte	1
000006a8 00             3981 	.byte	0
000006a9 01             3982 	.byte	1
                        3983 
000006aa 00             3984 	.byte	0
                        3985 
                        3986 .LDW_4a17458:
000006ab 15             3987 	.byte	21
000006ac 525f504f5254   3988 	.strz	"R_PORT_SetGpioHighZ"
000006b2 5f5365744770 
000006b8 696f48696768 
000006be 5a00 
000006c0 ae01           3989 	.byte	174,1
000006c2 06             3990 	.byte	6
000006c3 0c             3991 	.byte	12
000006c4 01             3992 	.byte	1
000006c5 00             3993 	.byte	0
000006c6 01             3994 	.byte	1
000006c7 01             3995 	.byte	1
000006c8 00             3996 	.byte	0
000006c9 01             3997 	.byte	1
                        3998 
000006ca 00             3999 	.byte	0
                        4000 

                                                                      Page 75
                                                              C:\Users\NIKHIL~1.PAT\AppData\Local\Temp\gh_000aesk1.s
                        4001 .LDW_4a174f0:
000006cb 15             4002 	.byte	21
000006cc 525f504f5254   4003 	.strz	"R_PORT_SetAltFunc"
000006d2 5f536574416c 
000006d8 7446756e6300 
000006de af01           4004 	.byte	175,1
000006e0 06             4005 	.byte	6
000006e1 0c             4006 	.byte	12
000006e2 01             4007 	.byte	1
000006e3 00             4008 	.byte	0
000006e4 01             4009 	.byte	1
000006e5 01             4010 	.byte	1
000006e6 00             4011 	.byte	0
000006e7 01             4012 	.byte	1
                        4013 
000006e8 00             4014 	.byte	0
                        4015 
                        4016 .LDW_4a17588:
000006e9 16             4017 	.byte	22
000006ea 525f504f5254   4018 	.strz	"R_PORT_GetLevel"
000006f0 5f4765744c65 
000006f6 76656c00 
000006fa b001           4019 	.byte	176,1
000006fc 0a             4020 	.byte	10
000006fd 0c             4021 	.byte	12
000006fe 00000000*      4022 	.word	.LDW_4914050
00000702 01             4023 	.byte	1
00000703 00             4024 	.byte	0
00000704 01             4025 	.byte	1
00000705 01             4026 	.byte	1
00000706 00             4027 	.byte	0
00000707 01             4028 	.byte	1
                        4029 
00000708 00             4030 	.byte	0
                        4031 
                        4032 .LDW_4948118:
00000709 14             4033 	.byte	20
0000070a 525f44495350   4034 	.strz	"R_DISPLAY_SDCard_Test"
00000710 4c41595f5344 
00000716 436172645f54 
0000071c 65737400 
00000720 5a             4035 	.byte	90
00000721 0b             4036 	.byte	11
00000722 01             4037 	.byte	1
00000723 00000000*      4038 	.word	.LDW_4913d90
00000727 00000000*      4039 	.word	_R_DISPLAY_SDCard_Test
0000072b 00000000*      4040 	.word	___ghs_eofn_R_DISPLAY_SDCard_Test
0000072f 0153           4041 	.byte	1,83
00000731 8280808008     4042 	.byte	130,128,128,128,8
00000736 04             4043 	.byte	4
00000737 02             4044 	.byte	2
00000738 04             4045 	.byte	4
00000739 00             4046 	.byte	0
0000073a 00             4047 	.byte	0
0000073b 00             4048 	.byte	0
0000073c 01             4049 	.byte	1
0000073d 01             4050 	.byte	1
0000073e 00             4051 	.byte	0
0000073f 01             4052 	.byte	1
                        4053 
                        4054 	.section	.debug_abbrev

                                                                      Page 76
                                                              C:\Users\NIKHIL~1.PAT\AppData\Local\Temp\gh_000aesk1.s
000000d9 14             4055 	.byte	20
000000da 2e             4056 	.byte	46
000000db 01             4057 	.byte	1
000000dc 0308           4058 	.byte	3,8
000000de 3b0f           4059 	.byte	59,15
000000e0 390f           4060 	.byte	57,15
000000e2 3a0f           4061 	.byte	58,15
000000e4 4910           4062 	.byte	73,16
000000e6 1101           4063 	.byte	17,1
000000e8 1201           4064 	.byte	18,1
000000ea 400a           4065 	.byte	64,10
000000ec 8341           4066 	.byte	131,65
000000ee 0f             4067 	.byte	15
000000ef 8741           4068 	.byte	135,65
000000f1 0d             4069 	.byte	13
000000f2 8541           4070 	.byte	133,65
000000f4 0f             4071 	.byte	15
000000f5 8641           4072 	.byte	134,65
000000f7 0d             4073 	.byte	13
000000f8 9241           4074 	.byte	146,65
000000fa 0f             4075 	.byte	15
000000fb 3c0c           4076 	.byte	60,12
000000fd 200b           4077 	.byte	32,11
000000ff 3f0c           4078 	.byte	63,12
00000101 320b           4079 	.byte	50,11
00000103 4c0b           4080 	.byte	76,11
00000105 270c           4081 	.byte	39,12
00000107 0000           4082 	.byte	0,0
                        4083 
                        4084 	.section	.debug_frame
                        4085 .LDW_4a137d8:
00000090 00000000*      4086 	.word	.LDW_unq_4-.LDW_unq_3
                        4087 .LDW_unq_3:
00000094 00000000*      4088 	.word	.LDW_48c3ff0
00000098 00000000*      4089 	.word	_R_DISPLAY_SDCard_Test
0000009c 00000000*      4090 	.word	___ghs_eofn_R_DISPLAY_SDCard_Test-_R_DISPLAY_SDCard_Test
000000a0 46             4091 	.byte	70
000000a1 9f             4092 	.byte	159
000000a2 00             4093 	.byte	0
000000a3 01             4094 	.byte	1
000000a4 00000000*      4095 	.word	.LDW11
000000a8 44             4096 	.byte	68
000000a9 df             4097 	.byte	223
000000aa 00             4098 	.byte	0
000000ab 00             4099 	.byte	0
                        4100 .LDW_unq_4:
                        4101 	.section	.debug_line
000001d7 000502         4102 	.byte	0,5,2
000001da 00000000*      4103 	.word	_R_DISPLAY_SDCard_Test
000001de 03             4104 	.byte	3
000001df da00           4105 	.byte	218,0
000001e1 02             4106 	.byte	2
000001e2 00             4107 	.byte	0
000001e3 01             4108 	.byte	1
000001e4 06             4109 	.byte	6
000001e5 23             4110 	.byte	35
000001e6 000502         4111 	.byte	0,5,2
000001e9 00000000*      4112 	.word	.LDWlin1
000001ed 0b             4113 	.byte	11
000001ee 0b             4114 	.byte	11
000001ef 000502         4115 	.byte	0,5,2

                                                                      Page 77
                                                              C:\Users\NIKHIL~1.PAT\AppData\Local\Temp\gh_000aesk1.s
000001f2 00000000*      4116 	.word	.LDWlin2
000001f6 0b             4117 	.byte	11
000001f7 0c             4118 	.byte	12
000001f8 0b             4119 	.byte	11
000001f9 13             4120 	.byte	19
000001fa 02             4121 	.byte	2
000001fb 00             4122 	.byte	0
000001fc 0b             4123 	.byte	11
000001fd 02             4124 	.byte	2
000001fe 08             4125 	.byte	8
000001ff 000101         4126 	.byte	0,1,1
                        4127 	.section	.debug_info
                        4128 .LDW_4937ae0:
00000740 1d             4129 	.byte	29
00000741 00000000*      4130 	.word	.LDW01
00000745 00000000*      4131 	.word	.LDW11
                        4132 
                        4133 	.section	.debug_abbrev
00000109 1d             4134 	.byte	29
0000010a 0b             4135 	.byte	11
0000010b 01             4136 	.byte	1
0000010c 1101           4137 	.byte	17,1
0000010e 1201           4138 	.byte	18,1
00000110 0000           4139 	.byte	0,0
                        4140 
                        4141 	.section	.debug_info
00000749 00             4142 	.byte	0
                        4143 
0000074a 00             4144 	.byte	0
                        4145 
                        4146 .LDW_49481b0:
0000074b 13             4147 	.byte	19
0000074c 525f44495350   4148 	.strz	"R_DISPLAY_Deinit"
00000752 4c41595f4465 
00000758 696e697400 
0000075d 6c             4149 	.byte	108
0000075e 06             4150 	.byte	6
0000075f 01             4151 	.byte	1
00000760 00000000*      4152 	.word	_R_DISPLAY_Deinit
00000764 00000000*      4153 	.word	___ghs_eofn_R_DISPLAY_Deinit
00000768 0153           4154 	.byte	1,83
0000076a 8280808008     4155 	.byte	130,128,128,128,8
0000076f 04             4156 	.byte	4
00000770 02             4157 	.byte	2
00000771 04             4158 	.byte	4
00000772 00             4159 	.byte	0
00000773 00             4160 	.byte	0
00000774 00             4161 	.byte	0
00000775 01             4162 	.byte	1
00000776 01             4163 	.byte	1
00000777 00             4164 	.byte	0
00000778 01             4165 	.byte	1
                        4166 
                        4167 	.section	.debug_abbrev
00000112 13             4168 	.byte	19
00000113 2e             4169 	.byte	46
00000114 01             4170 	.byte	1
00000115 0308           4171 	.byte	3,8
00000117 3b0f           4172 	.byte	59,15
00000119 390f           4173 	.byte	57,15
0000011b 3a0f           4174 	.byte	58,15

                                                                      Page 78
                                                              C:\Users\NIKHIL~1.PAT\AppData\Local\Temp\gh_000aesk1.s
0000011d 1101           4175 	.byte	17,1
0000011f 1201           4176 	.byte	18,1
00000121 400a           4177 	.byte	64,10
00000123 8341           4178 	.byte	131,65
00000125 0f             4179 	.byte	15
00000126 8741           4180 	.byte	135,65
00000128 0d             4181 	.byte	13
00000129 8541           4182 	.byte	133,65
0000012b 0f             4183 	.byte	15
0000012c 8641           4184 	.byte	134,65
0000012e 0d             4185 	.byte	13
0000012f 9241           4186 	.byte	146,65
00000131 0f             4187 	.byte	15
00000132 3c0c           4188 	.byte	60,12
00000134 200b           4189 	.byte	32,11
00000136 3f0c           4190 	.byte	63,12
00000138 320b           4191 	.byte	50,11
0000013a 4c0b           4192 	.byte	76,11
0000013c 270c           4193 	.byte	39,12
0000013e 0000           4194 	.byte	0,0
                        4195 
                        4196 	.section	.debug_frame
                        4197 .LDW_4a138d8:
000000ac 00000000*      4198 	.word	.LDW_unq_6-.LDW_unq_5
                        4199 .LDW_unq_5:
000000b0 00000000*      4200 	.word	.LDW_48c3ff0
000000b4 00000000*      4201 	.word	_R_DISPLAY_Deinit
000000b8 00000000*      4202 	.word	___ghs_eofn_R_DISPLAY_Deinit-_R_DISPLAY_Deinit
000000bc 46             4203 	.byte	70
000000bd 9f             4204 	.byte	159
000000be 00             4205 	.byte	0
000000bf 01             4206 	.byte	1
000000c0 00000000*      4207 	.word	.LDW31
000000c4 44             4208 	.byte	68
000000c5 df             4209 	.byte	223
000000c6 00             4210 	.byte	0
000000c7 00             4211 	.byte	0
                        4212 .LDW_unq_6:
                        4213 	.section	.debug_line
00000202 000502         4214 	.byte	0,5,2
00000205 00000000*      4215 	.word	_R_DISPLAY_Deinit
00000209 03             4216 	.byte	3
0000020a ec00           4217 	.byte	236,0
0000020c 02             4218 	.byte	2
0000020d 00             4219 	.byte	0
0000020e 01             4220 	.byte	1
0000020f 06             4221 	.byte	6
00000210 23             4222 	.byte	35
00000211 000502         4223 	.byte	0,5,2
00000214 00000000*      4224 	.word	.LDWlin3
00000218 0b             4225 	.byte	11
00000219 000502         4226 	.byte	0,5,2
0000021c 00000000*      4227 	.word	.LDWlin4
00000220 0b             4228 	.byte	11
00000221 000502         4229 	.byte	0,5,2
00000224 00000000*      4230 	.word	.LDWlin5
00000228 0b             4231 	.byte	11
00000229 000502         4232 	.byte	0,5,2
0000022c 00000000*      4233 	.word	.LDWlin6
00000230 0b             4234 	.byte	11
00000231 000502         4235 	.byte	0,5,2

                                                                      Page 79
                                                              C:\Users\NIKHIL~1.PAT\AppData\Local\Temp\gh_000aesk1.s
00000234 00000000*      4236 	.word	.LDWlin7
00000238 0b             4237 	.byte	11
00000239 000502         4238 	.byte	0,5,2
0000023c 00000000*      4239 	.word	.LDWlin8
00000240 0b             4240 	.byte	11
00000241 000502         4241 	.byte	0,5,2
00000244 00000000*      4242 	.word	.LDWlin9
00000248 0b             4243 	.byte	11
00000249 000502         4244 	.byte	0,5,2
0000024c 00000000*      4245 	.word	.LDWlin10
00000250 0b             4246 	.byte	11
00000251 02             4247 	.byte	2
00000252 08             4248 	.byte	8
00000253 000101         4249 	.byte	0,1,1
                        4250 	.section	.debug_info
                        4251 .LDW_4937b10:
00000779 1d             4252 	.byte	29
0000077a 00000000*      4253 	.word	.LDW21
0000077e 00000000*      4254 	.word	.LDW31
                        4255 
00000782 00             4256 	.byte	0
                        4257 
00000783 00             4258 	.byte	0
                        4259 
                        4260 .LDW_4948248:
00000784 13             4261 	.byte	19
00000785 525f44495350   4262 	.strz	"R_DISPLAY_ResetRelease"
0000078b 4c41595f5265 
00000791 73657452656c 
00000797 6561736500 
0000079c 7e             4263 	.byte	126
0000079d 06             4264 	.byte	6
0000079e 01             4265 	.byte	1
0000079f 00000000*      4266 	.word	_R_DISPLAY_ResetRelease
000007a3 00000000*      4267 	.word	___ghs_eofn_R_DISPLAY_ResetRelease
000007a7 0153           4268 	.byte	1,83
000007a9 8280808008     4269 	.byte	130,128,128,128,8
000007ae 04             4270 	.byte	4
000007af 02             4271 	.byte	2
000007b0 04             4272 	.byte	4
000007b1 00             4273 	.byte	0
000007b2 00             4274 	.byte	0
000007b3 00             4275 	.byte	0
000007b4 01             4276 	.byte	1
000007b5 01             4277 	.byte	1
000007b6 00             4278 	.byte	0
000007b7 01             4279 	.byte	1
                        4280 
                        4281 	.section	.debug_frame
                        4282 .LDW_4a139d8:
000000c8 00000000*      4283 	.word	.LDW_unq_8-.LDW_unq_7
                        4284 .LDW_unq_7:
000000cc 00000000*      4285 	.word	.LDW_48c3ff0
000000d0 00000000*      4286 	.word	_R_DISPLAY_ResetRelease
000000d4 00000000*      4287 	.word	___ghs_eofn_R_DISPLAY_ResetRelease-_R_DISPLAY_ResetRelease
000000d8 46             4288 	.byte	70
000000d9 9f             4289 	.byte	159
000000da 00             4290 	.byte	0
000000db 01             4291 	.byte	1
000000dc 00000000*      4292 	.word	.LDW51
000000e0 44             4293 	.byte	68

                                                                      Page 80
                                                              C:\Users\NIKHIL~1.PAT\AppData\Local\Temp\gh_000aesk1.s
000000e1 df             4294 	.byte	223
000000e2 00             4295 	.byte	0
000000e3 00             4296 	.byte	0
                        4297 .LDW_unq_8:
                        4298 	.section	.debug_line
00000256 000502         4299 	.byte	0,5,2
00000259 00000000*      4300 	.word	_R_DISPLAY_ResetRelease
0000025d 03             4301 	.byte	3
0000025e fe00           4302 	.byte	254,0
00000260 02             4303 	.byte	2
00000261 00             4304 	.byte	0
00000262 01             4305 	.byte	1
00000263 06             4306 	.byte	6
00000264 23             4307 	.byte	35
00000265 000502         4308 	.byte	0,5,2
00000268 00000000*      4309 	.word	.LDWlin11
0000026c 0b             4310 	.byte	11
0000026d 02             4311 	.byte	2
0000026e 08             4312 	.byte	8
0000026f 000101         4313 	.byte	0,1,1
                        4314 	.section	.debug_info
                        4315 .LDW_4937b40:
000007b8 1d             4316 	.byte	29
000007b9 00000000*      4317 	.word	.LDW41
000007bd 00000000*      4318 	.word	.LDW51
                        4319 
000007c1 00             4320 	.byte	0
                        4321 
000007c2 00             4322 	.byte	0
                        4323 
                        4324 .LDW_49482e0:
000007c3 14             4325 	.byte	20
000007c4 525f44495350   4326 	.strz	"R_DISPLAY_Init"
000007ca 4c41595f496e 
000007d0 697400 
000007d3 8a01           4327 	.byte	138,1
000007d5 0b             4328 	.byte	11
000007d6 01             4329 	.byte	1
000007d7 00000000*      4330 	.word	.LDW_4913d90
000007db 00000000*      4331 	.word	_R_DISPLAY_Init
000007df 00000000*      4332 	.word	___ghs_eofn_R_DISPLAY_Init
000007e3 0153           4333 	.byte	1,83
000007e5 8280808008     4334 	.byte	130,128,128,128,8
000007ea 04             4335 	.byte	4
000007eb 02             4336 	.byte	2
000007ec 08             4337 	.byte	8
000007ed 00             4338 	.byte	0
000007ee 00             4339 	.byte	0
000007ef 00             4340 	.byte	0
000007f0 01             4341 	.byte	1
000007f1 01             4342 	.byte	1
000007f2 00             4343 	.byte	0
000007f3 01             4344 	.byte	1
                        4345 
                        4346 	.section	.debug_frame
                        4347 .LDW_43116d8:
000000e4 00000000*      4348 	.word	.LDW_unq_a-.LDW_unq_9
                        4349 .LDW_unq_9:
000000e8 00000000*      4350 	.word	.LDW_48c3ff0
000000ec 00000000*      4351 	.word	_R_DISPLAY_Init
000000f0 00000000*      4352 	.word	___ghs_eofn_R_DISPLAY_Init-_R_DISPLAY_Init

                                                                      Page 81
                                                              C:\Users\NIKHIL~1.PAT\AppData\Local\Temp\gh_000aesk1.s
000000f4 46             4353 	.byte	70
000000f5 9f             4354 	.byte	159
000000f6 04             4355 	.byte	4
000000f7 01             4356 	.byte	1
000000f8 00000000*      4357 	.word	.LDW71
000000fc 44             4358 	.byte	68
000000fd df             4359 	.byte	223
000000fe 00             4360 	.byte	0
000000ff 00             4361 	.byte	0
                        4362 .LDW_unq_a:
                        4363 	.section	.debug_line
00000272 000502         4364 	.byte	0,5,2
00000275 00000000*      4365 	.word	_R_DISPLAY_Init
00000279 03             4366 	.byte	3
0000027a 8a01           4367 	.byte	138,1
0000027c 02             4368 	.byte	2
0000027d 00             4369 	.byte	0
0000027e 01             4370 	.byte	1
0000027f 06             4371 	.byte	6
00000280 24             4372 	.byte	36
00000281 000502         4373 	.byte	0,5,2
00000284 00000000*      4374 	.word	.LDWlin12
00000288 0b             4375 	.byte	11
00000289 000502         4376 	.byte	0,5,2
0000028c 00000000*      4377 	.word	.LDWlin13
00000290 0b             4378 	.byte	11
00000291 000502         4379 	.byte	0,5,2
00000294 00000000*      4380 	.word	.LDWlin14
00000298 0b             4381 	.byte	11
00000299 0b             4382 	.byte	11
0000029a 000502         4383 	.byte	0,5,2
0000029d 00000000*      4384 	.word	.LDWlin15
000002a1 0b             4385 	.byte	11
000002a2 02             4386 	.byte	2
000002a3 00             4387 	.byte	0
000002a4 0b             4388 	.byte	11
000002a5 000502         4389 	.byte	0,5,2
000002a8 00000000*      4390 	.word	.LDWlin16
000002ac 0d             4391 	.byte	13
000002ad 000502         4392 	.byte	0,5,2
000002b0 00000000*      4393 	.word	.LDWlin17
000002b4 0b             4394 	.byte	11
000002b5 000502         4395 	.byte	0,5,2
000002b8 00000000*      4396 	.word	.LDWlin18
000002bc 0b             4397 	.byte	11
000002bd 000502         4398 	.byte	0,5,2
000002c0 00000000*      4399 	.word	.LDWlin19
000002c4 0b             4400 	.byte	11
000002c5 000502         4401 	.byte	0,5,2
000002c8 00000000*      4402 	.word	.LDWlin20
000002cc 0b             4403 	.byte	11
000002cd 000502         4404 	.byte	0,5,2
000002d0 00000000*      4405 	.word	.LDWlin21
000002d4 0b             4406 	.byte	11
000002d5 000502         4407 	.byte	0,5,2
000002d8 00000000*      4408 	.word	.LDWlin22
000002dc 0d             4409 	.byte	13
000002dd 000502         4410 	.byte	0,5,2
000002e0 00000000*      4411 	.word	.LDWlin23
000002e4 0d             4412 	.byte	13
000002e5 000502         4413 	.byte	0,5,2

                                                                      Page 82
                                                              C:\Users\NIKHIL~1.PAT\AppData\Local\Temp\gh_000aesk1.s
000002e8 00000000*      4414 	.word	.LDWlin24
000002ec 0d             4415 	.byte	13
000002ed 000502         4416 	.byte	0,5,2
000002f0 00000000*      4417 	.word	.LDWlin25
000002f4 0b             4418 	.byte	11
000002f5 000502         4419 	.byte	0,5,2
000002f8 00000000*      4420 	.word	.LDWlin26
000002fc 0b             4421 	.byte	11
000002fd 000502         4422 	.byte	0,5,2
00000300 00000000*      4423 	.word	.LDWlin27
00000304 0c             4424 	.byte	12
00000305 000502         4425 	.byte	0,5,2
00000308 00000000*      4426 	.word	.LDWlin28
0000030c 0c             4427 	.byte	12
0000030d 000502         4428 	.byte	0,5,2
00000310 00000000*      4429 	.word	.LDWlin29
00000314 0b             4430 	.byte	11
00000315 000502         4431 	.byte	0,5,2
00000318 00000000*      4432 	.word	.LDWlin30
0000031c 0d             4433 	.byte	13
0000031d 000502         4434 	.byte	0,5,2
00000320 00000000*      4435 	.word	.LDWlin31
00000324 0b             4436 	.byte	11
00000325 000502         4437 	.byte	0,5,2
00000328 00000000*      4438 	.word	.LDWlin32
0000032c 0b             4439 	.byte	11
0000032d 000502         4440 	.byte	0,5,2
00000330 00000000*      4441 	.word	.LDWlin33
00000334 0b             4442 	.byte	11
00000335 000502         4443 	.byte	0,5,2
00000338 00000000*      4444 	.word	.LDWlin34
0000033c 0c             4445 	.byte	12
0000033d 000502         4446 	.byte	0,5,2
00000340 00000000*      4447 	.word	.LDWlin35
00000344 0b             4448 	.byte	11
00000345 000502         4449 	.byte	0,5,2
00000348 00000000*      4450 	.word	.LDWlin36
0000034c 0b             4451 	.byte	11
0000034d 000502         4452 	.byte	0,5,2
00000350 00000000*      4453 	.word	.LDWlin37
00000354 0c             4454 	.byte	12
00000355 000502         4455 	.byte	0,5,2
00000358 00000000*      4456 	.word	.LDWlin38
0000035c 0b             4457 	.byte	11
0000035d 000502         4458 	.byte	0,5,2
00000360 00000000*      4459 	.word	.LDWlin39
00000364 0c             4460 	.byte	12
00000365 000502         4461 	.byte	0,5,2
00000368 00000000*      4462 	.word	.LDWlin40
0000036c 0b             4463 	.byte	11
0000036d 000502         4464 	.byte	0,5,2
00000370 00000000*      4465 	.word	.LDWlin41
00000374 0c             4466 	.byte	12
00000375 000502         4467 	.byte	0,5,2
00000378 00000000*      4468 	.word	.LDWlin42
0000037c 0b             4469 	.byte	11
0000037d 000502         4470 	.byte	0,5,2
00000380 00000000*      4471 	.word	.LDWlin43
00000384 0b             4472 	.byte	11
00000385 000502         4473 	.byte	0,5,2
00000388 00000000*      4474 	.word	.LDWlin44

                                                                      Page 83
                                                              C:\Users\NIKHIL~1.PAT\AppData\Local\Temp\gh_000aesk1.s
0000038c 0b             4475 	.byte	11
0000038d 000502         4476 	.byte	0,5,2
00000390 00000000*      4477 	.word	.LDWlin45
00000394 0b             4478 	.byte	11
00000395 000502         4479 	.byte	0,5,2
00000398 00000000*      4480 	.word	.LDWlin46
0000039c 0b             4481 	.byte	11
0000039d 000502         4482 	.byte	0,5,2
000003a0 00000000*      4483 	.word	.LDWlin47
000003a4 0c             4484 	.byte	12
000003a5 000502         4485 	.byte	0,5,2
000003a8 00000000*      4486 	.word	.LDWlin48
000003ac 0b             4487 	.byte	11
000003ad 000502         4488 	.byte	0,5,2
000003b0 00000000*      4489 	.word	.LDWlin49
000003b4 0c             4490 	.byte	12
000003b5 000502         4491 	.byte	0,5,2
000003b8 00000000*      4492 	.word	.LDWlin50
000003bc 0b             4493 	.byte	11
000003bd 000502         4494 	.byte	0,5,2
000003c0 00000000*      4495 	.word	.LDWlin51
000003c4 0c             4496 	.byte	12
000003c5 000502         4497 	.byte	0,5,2
000003c8 00000000*      4498 	.word	.LDWlin52
000003cc 0b             4499 	.byte	11
000003cd 000502         4500 	.byte	0,5,2
000003d0 00000000*      4501 	.word	.LDWlin53
000003d4 0c             4502 	.byte	12
000003d5 000502         4503 	.byte	0,5,2
000003d8 00000000*      4504 	.word	.LDWlin54
000003dc 0b             4505 	.byte	11
000003dd 000502         4506 	.byte	0,5,2
000003e0 00000000*      4507 	.word	.LDWlin55
000003e4 0c             4508 	.byte	12
000003e5 000502         4509 	.byte	0,5,2
000003e8 00000000*      4510 	.word	.LDWlin56
000003ec 0b             4511 	.byte	11
000003ed 000502         4512 	.byte	0,5,2
000003f0 00000000*      4513 	.word	.LDWlin57
000003f4 0c             4514 	.byte	12
000003f5 000502         4515 	.byte	0,5,2
000003f8 00000000*      4516 	.word	.LDWlin58
000003fc 0b             4517 	.byte	11
000003fd 000502         4518 	.byte	0,5,2
00000400 00000000*      4519 	.word	.LDWlin59
00000404 0c             4520 	.byte	12
00000405 000502         4521 	.byte	0,5,2
00000408 00000000*      4522 	.word	.LDWlin60
0000040c 0c             4523 	.byte	12
0000040d 000502         4524 	.byte	0,5,2
00000410 00000000*      4525 	.word	.LDWlin61
00000414 0b             4526 	.byte	11
00000415 000502         4527 	.byte	0,5,2
00000418 00000000*      4528 	.word	.LDWlin62
0000041c 0b             4529 	.byte	11
0000041d 000502         4530 	.byte	0,5,2
00000420 00000000*      4531 	.word	.LDWlin63
00000424 0b             4532 	.byte	11
00000425 000502         4533 	.byte	0,5,2
00000428 00000000*      4534 	.word	.LDWlin64
0000042c 0c             4535 	.byte	12

                                                                      Page 84
                                                              C:\Users\NIKHIL~1.PAT\AppData\Local\Temp\gh_000aesk1.s
0000042d 000502         4536 	.byte	0,5,2
00000430 00000000*      4537 	.word	.LDWlin65
00000434 0b             4538 	.byte	11
00000435 000502         4539 	.byte	0,5,2
00000438 00000000*      4540 	.word	.LDWlin66
0000043c 0c             4541 	.byte	12
0000043d 000502         4542 	.byte	0,5,2
00000440 00000000*      4543 	.word	.LDWlin67
00000444 0b             4544 	.byte	11
00000445 000502         4545 	.byte	0,5,2
00000448 00000000*      4546 	.word	.LDWlin68
0000044c 0b             4547 	.byte	11
0000044d 000502         4548 	.byte	0,5,2
00000450 00000000*      4549 	.word	.LDWlin69
00000454 0b             4550 	.byte	11
00000455 000502         4551 	.byte	0,5,2
00000458 00000000*      4552 	.word	.LDWlin70
0000045c 0c             4553 	.byte	12
0000045d 000502         4554 	.byte	0,5,2
00000460 00000000*      4555 	.word	.LDWlin71
00000464 0b             4556 	.byte	11
00000465 000502         4557 	.byte	0,5,2
00000468 00000000*      4558 	.word	.LDWlin72
0000046c 0c             4559 	.byte	12
0000046d 000502         4560 	.byte	0,5,2
00000470 00000000*      4561 	.word	.LDWlin73
00000474 0c             4562 	.byte	12
00000475 000502         4563 	.byte	0,5,2
00000478 00000000*      4564 	.word	.LDWlin74
0000047c 0b             4565 	.byte	11
0000047d 000502         4566 	.byte	0,5,2
00000480 00000000*      4567 	.word	.LDWlin75
00000484 0c             4568 	.byte	12
00000485 13             4569 	.byte	19
00000486 02             4570 	.byte	2
00000487 08             4571 	.byte	8
00000488 000101         4572 	.byte	0,1,1
                        4573 	.section	.debug_info
                        4574 .LDW_4937b70:
000007f4 1d             4575 	.byte	29
000007f5 00000000*      4576 	.word	.LDW61
000007f9 00000000*      4577 	.word	.LDW71
                        4578 
000007fd 00             4579 	.byte	0
                        4580 
000007fe 00             4581 	.byte	0
                        4582 
                        4583 .LDW_4948378:
000007ff 13             4584 	.byte	19
00000800 525f44495350   4585 	.strz	"R_DISPLAY_DrawImg"
00000806 4c41595f4472 
0000080c 6177496d6700 
00000812 fa01           4586 	.byte	250,1
00000814 06             4587 	.byte	6
00000815 01             4588 	.byte	1
00000816 00000000*      4589 	.word	_R_DISPLAY_DrawImg
0000081a 00000000*      4590 	.word	___ghs_eofn_R_DISPLAY_DrawImg
0000081e 0153           4591 	.byte	1,83
00000820 828080f80b     4592 	.byte	130,128,128,248,11
00000825 1c             4593 	.byte	28
00000826 02             4594 	.byte	2

                                                                      Page 85
                                                              C:\Users\NIKHIL~1.PAT\AppData\Local\Temp\gh_000aesk1.s
00000827 1c             4595 	.byte	28
00000828 00             4596 	.byte	0
00000829 00             4597 	.byte	0
0000082a 00             4598 	.byte	0
0000082b 01             4599 	.byte	1
0000082c 01             4600 	.byte	1
0000082d 00             4601 	.byte	0
0000082e 01             4602 	.byte	1
                        4603 
                        4604 	.section	.debug_frame
                        4605 .LDW_43117d8:
00000100 00000000*      4606 	.word	.LDW_unq_c-.LDW_unq_b
                        4607 .LDW_unq_b:
00000104 00000000*      4608 	.word	.LDW_48c3ff0
00000108 00000000*      4609 	.word	_R_DISPLAY_DrawImg
0000010c 00000000*      4610 	.word	___ghs_eofn_R_DISPLAY_DrawImg-_R_DISPLAY_DrawImg
00000110 48             4611 	.byte	72
00000111 9f             4612 	.byte	159
00000112 18             4613 	.byte	24
00000113 44             4614 	.byte	68
00000114 9d             4615 	.byte	157
00000115 00             4616 	.byte	0
00000116 44             4617 	.byte	68
00000117 9c             4618 	.byte	156
00000118 04             4619 	.byte	4
00000119 44             4620 	.byte	68
0000011a 9b             4621 	.byte	155
0000011b 08             4622 	.byte	8
0000011c 44             4623 	.byte	68
0000011d 9a             4624 	.byte	154
0000011e 0c             4625 	.byte	12
0000011f 44             4626 	.byte	68
00000120 99             4627 	.byte	153
00000121 10             4628 	.byte	16
00000122 44             4629 	.byte	68
00000123 98             4630 	.byte	152
00000124 14             4631 	.byte	20
00000125 01             4632 	.byte	1
00000126 00000000*      4633 	.word	.LDW91
0000012a 44             4634 	.byte	68
0000012b df             4635 	.byte	223
0000012c 44             4636 	.byte	68
0000012d dd             4637 	.byte	221
0000012e 44             4638 	.byte	68
0000012f dc             4639 	.byte	220
00000130 44             4640 	.byte	68
00000131 db             4641 	.byte	219
00000132 44             4642 	.byte	68
00000133 da             4643 	.byte	218
00000134 44             4644 	.byte	68
00000135 d9             4645 	.byte	217
00000136 44             4646 	.byte	68
00000137 d8             4647 	.byte	216
                        4648 .LDW_unq_c:
                        4649 	.section	.debug_line
0000048b 000502         4650 	.byte	0,5,2
0000048e 00000000*      4651 	.word	_R_DISPLAY_DrawImg
00000492 03             4652 	.byte	3
00000493 fa01           4653 	.byte	250,1
00000495 02             4654 	.byte	2
00000496 00             4655 	.byte	0

                                                                      Page 86
                                                              C:\Users\NIKHIL~1.PAT\AppData\Local\Temp\gh_000aesk1.s
00000497 01             4656 	.byte	1
00000498 06             4657 	.byte	6
00000499 03             4658 	.byte	3
0000049a 04             4659 	.byte	4
0000049b 02             4660 	.byte	2
0000049c 34             4661 	.byte	52
0000049d 01             4662 	.byte	1
0000049e 000502         4663 	.byte	0,5,2
000004a1 00000000*      4664 	.word	.LDWlin76
000004a5 0c             4665 	.byte	12
000004a6 03             4666 	.byte	3
000004a7 7e             4667 	.byte	126
000004a8 02             4668 	.byte	2
000004a9 06             4669 	.byte	6
000004aa 01             4670 	.byte	1
000004ab 000502         4671 	.byte	0,5,2
000004ae 00000000*      4672 	.word	.LDWlin77
000004b2 0d             4673 	.byte	13
000004b3 0b             4674 	.byte	11
000004b4 000502         4675 	.byte	0,5,2
000004b7 00000000*      4676 	.word	.LDWlin78
000004bb 0c             4677 	.byte	12
000004bc 03             4678 	.byte	3
000004bd 7e             4679 	.byte	126
000004be 02             4680 	.byte	2
000004bf 06             4681 	.byte	6
000004c0 01             4682 	.byte	1
000004c1 000502         4683 	.byte	0,5,2
000004c4 00000000*      4684 	.word	.LDWlin79
000004c8 0d             4685 	.byte	13
000004c9 03             4686 	.byte	3
000004ca 04             4687 	.byte	4
000004cb 02             4688 	.byte	2
000004cc 00             4689 	.byte	0
000004cd 01             4690 	.byte	1
000004ce 000502         4691 	.byte	0,5,2
000004d1 00000000*      4692 	.word	.LDWlin80
000004d5 0b             4693 	.byte	11
000004d6 0b             4694 	.byte	11
000004d7 3b             4695 	.byte	59
000004d8 02             4696 	.byte	2
000004d9 00             4697 	.byte	0
000004da 0d             4698 	.byte	13
000004db 000502         4699 	.byte	0,5,2
000004de 00000000*      4700 	.word	.LDWlin81
000004e2 0b             4701 	.byte	11
000004e3 0b             4702 	.byte	11
000004e4 3b             4703 	.byte	59
000004e5 02             4704 	.byte	2
000004e6 00             4705 	.byte	0
000004e7 0c             4706 	.byte	12
000004e8 000502         4707 	.byte	0,5,2
000004eb 00000000*      4708 	.word	.LDWlin82
000004ef 0d             4709 	.byte	13
000004f0 000502         4710 	.byte	0,5,2
000004f3 00000000*      4711 	.word	.LDWlin83
000004f7 0b             4712 	.byte	11
000004f8 000502         4713 	.byte	0,5,2
000004fb 00000000*      4714 	.word	.LDWlin84
000004ff 0b             4715 	.byte	11
00000500 000502         4716 	.byte	0,5,2

                                                                      Page 87
                                                              C:\Users\NIKHIL~1.PAT\AppData\Local\Temp\gh_000aesk1.s
00000503 00000000*      4717 	.word	.LDWlin85
00000507 0b             4718 	.byte	11
00000508 000502         4719 	.byte	0,5,2
0000050b 00000000*      4720 	.word	.LDWlin86
0000050f 0b             4721 	.byte	11
00000510 000502         4722 	.byte	0,5,2
00000513 00000000*      4723 	.word	.LDWlin87
00000517 0b             4724 	.byte	11
00000518 000502         4725 	.byte	0,5,2
0000051b 00000000*      4726 	.word	.LDWlin88
0000051f 0c             4727 	.byte	12
00000520 000502         4728 	.byte	0,5,2
00000523 00000000*      4729 	.word	.LDWlin89
00000527 0b             4730 	.byte	11
00000528 000502         4731 	.byte	0,5,2
0000052b 00000000*      4732 	.word	.LDWlin90
0000052f 0c             4733 	.byte	12
00000530 000502         4734 	.byte	0,5,2
00000533 00000000*      4735 	.word	.LDWlin91
00000537 0b             4736 	.byte	11
00000538 02             4737 	.byte	2
00000539 02             4738 	.byte	2
0000053a 000502         4739 	.byte	0,5,2
0000053d 00000000*      4740 	.word	.LDWlin92
00000541 0c             4741 	.byte	12
00000542 000502         4742 	.byte	0,5,2
00000545 00000000*      4743 	.word	.LDWlin93
00000549 0b             4744 	.byte	11
0000054a 03             4745 	.byte	3
0000054b 7d             4746 	.byte	125
0000054c 02             4747 	.byte	2
0000054d 02             4748 	.byte	2
0000054e 01             4749 	.byte	1
0000054f 000502         4750 	.byte	0,5,2
00000552 00000000*      4751 	.word	.LDWlin94
00000556 03             4752 	.byte	3
00000557 04             4753 	.byte	4
00000558 02             4754 	.byte	2
00000559 00             4755 	.byte	0
0000055a 01             4756 	.byte	1
0000055b 0b             4757 	.byte	11
0000055c 02             4758 	.byte	2
0000055d 22             4759 	.byte	34
0000055e 000101         4760 	.byte	0,1,1
                        4761 	.section	.debug_info
                        4762 .LDW_4913e98:
0000082f 0f             4763 	.byte	15
00000830 7800           4764 	.strz	"x"
00000832 fa01           4765 	.byte	250,1
00000834 20             4766 	.byte	32
00000835 01             4767 	.byte	1
00000836 00000000*      4768 	.word	.LDW_4913de8
0000083a 00             4769 	.byte	0
0000083b 016d           4770 	.byte	1,109
                        4771 
                        4772 	.section	.debug_abbrev
00000140 0f             4773 	.byte	15
00000141 05             4774 	.byte	5
00000142 00             4775 	.byte	0
00000143 0308           4776 	.byte	3,8
00000145 3b0f           4777 	.byte	59,15

                                                                      Page 88
                                                              C:\Users\NIKHIL~1.PAT\AppData\Local\Temp\gh_000aesk1.s
00000147 390f           4778 	.byte	57,15
00000149 3a0f           4779 	.byte	58,15
0000014b 4910           4780 	.byte	73,16
0000014d 4b0c           4781 	.byte	75,12
0000014f 020a           4782 	.byte	2,10
00000151 0000           4783 	.byte	0,0
                        4784 
                        4785 	.section	.debug_info
                        4786 .LDW_4913ef0:
0000083d 0f             4787 	.byte	15
0000083e 7900           4788 	.strz	"y"
00000840 fa01           4789 	.byte	250,1
00000842 2b             4790 	.byte	43
00000843 01             4791 	.byte	1
00000844 00000000*      4792 	.word	.LDW_4913de8
00000848 00             4793 	.byte	0
00000849 016c           4794 	.byte	1,108
                        4795 
                        4796 .LDW_4913f48:
0000084b 0f             4797 	.byte	15
0000084c 776964746800   4798 	.strz	"width"
00000852 fa01           4799 	.byte	250,1
00000854 36             4800 	.byte	54
00000855 01             4801 	.byte	1
00000856 00000000*      4802 	.word	.LDW_4913de8
0000085a 00             4803 	.byte	0
0000085b 016b           4804 	.byte	1,107
                        4805 
                        4806 .LDW_4913fa0:
0000085d 0f             4807 	.byte	15
0000085e 686569676874   4808 	.strz	"height"
00000864 00 
00000865 fa01           4809 	.byte	250,1
00000867 45             4810 	.byte	69
00000868 01             4811 	.byte	1
00000869 00000000*      4812 	.word	.LDW_4913de8
0000086d 00             4813 	.byte	0
0000086e 016a           4814 	.byte	1,106
                        4815 
                        4816 .LDW_4913ff8:
00000870 0f             4817 	.byte	15
00000871 6461746100     4818 	.strz	"data"
00000876 fa01           4819 	.byte	250,1
00000878 57             4820 	.byte	87
00000879 01             4821 	.byte	1
0000087a 00000000*      4822 	.word	.LDW_4949fa0
0000087e 00             4823 	.byte	0
0000087f 0168           4824 	.byte	1,104
                        4825 
                        4826 .LDW_3e901f0:
00000881 1d             4827 	.byte	29
00000882 00000000*      4828 	.word	.LDW81
00000886 00000000*      4829 	.word	.LDW91
                        4830 
                        4831 .LDW_49140a8:
0000088a 04             4832 	.byte	4
0000088b 6900           4833 	.strz	"i"
0000088d fc01           4834 	.byte	252,1
0000088f 0d             4835 	.byte	13
00000890 01             4836 	.byte	1
00000891 00000000*      4837 	.word	.LDW_4914050

                                                                      Page 89
                                                              C:\Users\NIKHIL~1.PAT\AppData\Local\Temp\gh_000aesk1.s
00000895 00             4838 	.byte	0
00000896 00             4839 	.byte	0
00000897 0169           4840 	.byte	1,105
                        4841 
00000899 00             4842 	.byte	0
                        4843 
0000089a 00             4844 	.byte	0
                        4845 
                        4846 .LDW_4948410:
0000089b 13             4847 	.byte	19
0000089c 525f44495350   4848 	.strz	"R_DISPLAY_DrawRect"
000008a2 4c41595f4472 
000008a8 617752656374 
000008ae 00 
000008af b402           4849 	.byte	180,2
000008b1 06             4850 	.byte	6
000008b2 01             4851 	.byte	1
000008b3 00000000*      4852 	.word	_R_DISPLAY_DrawRect
000008b7 00000000*      4853 	.word	___ghs_eofn_R_DISPLAY_DrawRect
000008bb 0153           4854 	.byte	1,83
000008bd 828080f80b     4855 	.byte	130,128,128,248,11
000008c2 1c             4856 	.byte	28
000008c3 02             4857 	.byte	2
000008c4 1c             4858 	.byte	28
000008c5 00             4859 	.byte	0
000008c6 00             4860 	.byte	0
000008c7 00             4861 	.byte	0
000008c8 01             4862 	.byte	1
000008c9 01             4863 	.byte	1
000008ca 00             4864 	.byte	0
000008cb 01             4865 	.byte	1
                        4866 
                        4867 	.section	.debug_frame
                        4868 .LDW_43118d8:
00000138 00000000*      4869 	.word	.LDW_unq_e-.LDW_unq_d
                        4870 .LDW_unq_d:
0000013c 00000000*      4871 	.word	.LDW_48c3ff0
00000140 00000000*      4872 	.word	_R_DISPLAY_DrawRect
00000144 00000000*      4873 	.word	___ghs_eofn_R_DISPLAY_DrawRect-_R_DISPLAY_DrawRect
00000148 48             4874 	.byte	72
00000149 9f             4875 	.byte	159
0000014a 18             4876 	.byte	24
0000014b 44             4877 	.byte	68
0000014c 9d             4878 	.byte	157
0000014d 00             4879 	.byte	0
0000014e 44             4880 	.byte	68
0000014f 9c             4881 	.byte	156
00000150 04             4882 	.byte	4
00000151 44             4883 	.byte	68
00000152 9b             4884 	.byte	155
00000153 08             4885 	.byte	8
00000154 44             4886 	.byte	68
00000155 9a             4887 	.byte	154
00000156 0c             4888 	.byte	12
00000157 44             4889 	.byte	68
00000158 99             4890 	.byte	153
00000159 10             4891 	.byte	16
0000015a 44             4892 	.byte	68
0000015b 98             4893 	.byte	152
0000015c 14             4894 	.byte	20
0000015d 01             4895 	.byte	1

                                                                      Page 90
                                                              C:\Users\NIKHIL~1.PAT\AppData\Local\Temp\gh_000aesk1.s
0000015e 00000000*      4896 	.word	.LDW12
00000162 44             4897 	.byte	68
00000163 df             4898 	.byte	223
00000164 44             4899 	.byte	68
00000165 dd             4900 	.byte	221
00000166 44             4901 	.byte	68
00000167 dc             4902 	.byte	220
00000168 44             4903 	.byte	68
00000169 db             4904 	.byte	219
0000016a 44             4905 	.byte	68
0000016b da             4906 	.byte	218
0000016c 44             4907 	.byte	68
0000016d d9             4908 	.byte	217
0000016e 44             4909 	.byte	68
0000016f d8             4910 	.byte	216
                        4911 .LDW_unq_e:
                        4912 	.section	.debug_line
00000561 000502         4913 	.byte	0,5,2
00000564 00000000*      4914 	.word	_R_DISPLAY_DrawRect
00000568 03             4915 	.byte	3
00000569 b402           4916 	.byte	180,2
0000056b 02             4917 	.byte	2
0000056c 00             4918 	.byte	0
0000056d 01             4919 	.byte	1
0000056e 06             4920 	.byte	6
0000056f 03             4921 	.byte	3
00000570 04             4922 	.byte	4
00000571 02             4923 	.byte	2
00000572 34             4924 	.byte	52
00000573 01             4925 	.byte	1
00000574 000502         4926 	.byte	0,5,2
00000577 00000000*      4927 	.word	.LDWlin95
0000057b 0c             4928 	.byte	12
0000057c 03             4929 	.byte	3
0000057d 7e             4930 	.byte	126
0000057e 02             4931 	.byte	2
0000057f 06             4932 	.byte	6
00000580 01             4933 	.byte	1
00000581 000502         4934 	.byte	0,5,2
00000584 00000000*      4935 	.word	.LDWlin96
00000588 0d             4936 	.byte	13
00000589 0b             4937 	.byte	11
0000058a 000502         4938 	.byte	0,5,2
0000058d 00000000*      4939 	.word	.LDWlin97
00000591 0c             4940 	.byte	12
00000592 03             4941 	.byte	3
00000593 7e             4942 	.byte	126
00000594 02             4943 	.byte	2
00000595 06             4944 	.byte	6
00000596 01             4945 	.byte	1
00000597 000502         4946 	.byte	0,5,2
0000059a 00000000*      4947 	.word	.LDWlin98
0000059e 0d             4948 	.byte	13
0000059f 03             4949 	.byte	3
000005a0 04             4950 	.byte	4
000005a1 02             4951 	.byte	2
000005a2 00             4952 	.byte	0
000005a3 01             4953 	.byte	1
000005a4 000502         4954 	.byte	0,5,2
000005a7 00000000*      4955 	.word	.LDWlin99
000005ab 0b             4956 	.byte	11

                                                                      Page 91
                                                              C:\Users\NIKHIL~1.PAT\AppData\Local\Temp\gh_000aesk1.s
000005ac 0b             4957 	.byte	11
000005ad 3b             4958 	.byte	59
000005ae 02             4959 	.byte	2
000005af 00             4960 	.byte	0
000005b0 0d             4961 	.byte	13
000005b1 000502         4962 	.byte	0,5,2
000005b4 00000000*      4963 	.word	.LDWlin100
000005b8 0b             4964 	.byte	11
000005b9 0b             4965 	.byte	11
000005ba 3b             4966 	.byte	59
000005bb 02             4967 	.byte	2
000005bc 00             4968 	.byte	0
000005bd 0c             4969 	.byte	12
000005be 000502         4970 	.byte	0,5,2
000005c1 00000000*      4971 	.word	.LDWlin101
000005c5 0d             4972 	.byte	13
000005c6 000502         4973 	.byte	0,5,2
000005c9 00000000*      4974 	.word	.LDWlin102
000005cd 0b             4975 	.byte	11
000005ce 000502         4976 	.byte	0,5,2
000005d1 00000000*      4977 	.word	.LDWlin103
000005d5 0b             4978 	.byte	11
000005d6 000502         4979 	.byte	0,5,2
000005d9 00000000*      4980 	.word	.LDWlin104
000005dd 0b             4981 	.byte	11
000005de 000502         4982 	.byte	0,5,2
000005e1 00000000*      4983 	.word	.LDWlin105
000005e5 0b             4984 	.byte	11
000005e6 000502         4985 	.byte	0,5,2
000005e9 00000000*      4986 	.word	.LDWlin106
000005ed 0b             4987 	.byte	11
000005ee 000502         4988 	.byte	0,5,2
000005f1 00000000*      4989 	.word	.LDWlin107
000005f5 0c             4990 	.byte	12
000005f6 000502         4991 	.byte	0,5,2
000005f9 00000000*      4992 	.word	.LDWlin108
000005fd 0b             4993 	.byte	11
000005fe 000502         4994 	.byte	0,5,2
00000601 00000000*      4995 	.word	.LDWlin109
00000605 0c             4996 	.byte	12
00000606 000502         4997 	.byte	0,5,2
00000609 00000000*      4998 	.word	.LDWlin110
0000060d 0b             4999 	.byte	11
0000060e 02             5000 	.byte	2
0000060f 02             5001 	.byte	2
00000610 000502         5002 	.byte	0,5,2
00000613 00000000*      5003 	.word	.LDWlin111
00000617 0c             5004 	.byte	12
00000618 000502         5005 	.byte	0,5,2
0000061b 00000000*      5006 	.word	.LDWlin112
0000061f 03             5007 	.byte	3
00000620 7e             5008 	.byte	126
00000621 02             5009 	.byte	2
00000622 00             5010 	.byte	0
00000623 01             5011 	.byte	1
00000624 000502         5012 	.byte	0,5,2
00000627 00000000*      5013 	.word	.LDWlin113
0000062b 0d             5014 	.byte	13
0000062c 0b             5015 	.byte	11
0000062d 02             5016 	.byte	2
0000062e 22             5017 	.byte	34

                                                                      Page 92
                                                              C:\Users\NIKHIL~1.PAT\AppData\Local\Temp\gh_000aesk1.s
0000062f 000101         5018 	.byte	0,1,1
                        5019 	.section	.debug_info
                        5020 .LDW_4914100:
000008cc 0f             5021 	.byte	15
000008cd 7800           5022 	.strz	"x"
000008cf b402           5023 	.byte	180,2
000008d1 21             5024 	.byte	33
000008d2 01             5025 	.byte	1
000008d3 00000000*      5026 	.word	.LDW_4913de8
000008d7 00             5027 	.byte	0
000008d8 016d           5028 	.byte	1,109
                        5029 
                        5030 .LDW_4914158:
000008da 0f             5031 	.byte	15
000008db 7900           5032 	.strz	"y"
000008dd b402           5033 	.byte	180,2
000008df 2c             5034 	.byte	44
000008e0 01             5035 	.byte	1
000008e1 00000000*      5036 	.word	.LDW_4913de8
000008e5 00             5037 	.byte	0
000008e6 016c           5038 	.byte	1,108
                        5039 
                        5040 .LDW_49141b0:
000008e8 0f             5041 	.byte	15
000008e9 776964746800   5042 	.strz	"width"
000008ef b402           5043 	.byte	180,2
000008f1 37             5044 	.byte	55
000008f2 01             5045 	.byte	1
000008f3 00000000*      5046 	.word	.LDW_4913de8
000008f7 00             5047 	.byte	0
000008f8 016b           5048 	.byte	1,107
                        5049 
                        5050 .LDW_4914208:
000008fa 0f             5051 	.byte	15
000008fb 686569676874   5052 	.strz	"height"
00000901 00 
00000902 b402           5053 	.byte	180,2
00000904 46             5054 	.byte	70
00000905 01             5055 	.byte	1
00000906 00000000*      5056 	.word	.LDW_4913de8
0000090a 00             5057 	.byte	0
0000090b 016a           5058 	.byte	1,106
                        5059 
                        5060 .LDW_4914260:
0000090d 0f             5061 	.byte	15
0000090e 636f6c6f7200   5062 	.strz	"color"
00000914 b402           5063 	.byte	180,2
00000916 57             5064 	.byte	87
00000917 01             5065 	.byte	1
00000918 00000000*      5066 	.word	.LDW_4913e40
0000091c 00             5067 	.byte	0
0000091d 0168           5068 	.byte	1,104
                        5069 
                        5070 .LDW_3e90310:
0000091f 1d             5071 	.byte	29
00000920 00000000*      5072 	.word	.LDW02
00000924 00000000*      5073 	.word	.LDW12
                        5074 
                        5075 .LDW_49142b8:
00000928 04             5076 	.byte	4
00000929 6900           5077 	.strz	"i"

                                                                      Page 93
                                                              C:\Users\NIKHIL~1.PAT\AppData\Local\Temp\gh_000aesk1.s
0000092b b602           5078 	.byte	182,2
0000092d 0c             5079 	.byte	12
0000092e 01             5080 	.byte	1
0000092f 00000000*      5081 	.word	.LDW_4914050
00000933 00             5082 	.byte	0
00000934 00             5083 	.byte	0
00000935 0169           5084 	.byte	1,105
                        5085 
00000937 00             5086 	.byte	0
                        5087 
00000938 00             5088 	.byte	0
                        5089 
                        5090 .LDW_49484a8:
00000939 13             5091 	.byte	19
0000093a 647261774368   5092 	.strz	"drawChar"
00000940 617200 
00000943 ee02           5093 	.byte	238,2
00000945 06             5094 	.byte	6
00000946 01             5095 	.byte	1
00000947 00000000*      5096 	.word	_drawChar
0000094b 00000000*      5097 	.word	___ghs_eofn_drawChar
0000094f 0153           5098 	.byte	1,83
00000951 828080ff0b     5099 	.byte	130,128,128,255,11
00000956 28             5100 	.byte	40
00000957 02             5101 	.byte	2
00000958 2c             5102 	.byte	44
00000959 00             5103 	.byte	0
0000095a 00             5104 	.byte	0
0000095b 00             5105 	.byte	0
0000095c 01             5106 	.byte	1
0000095d 01             5107 	.byte	1
0000095e 00             5108 	.byte	0
0000095f 01             5109 	.byte	1
                        5110 
                        5111 	.section	.debug_frame
                        5112 .LDW_43119d8:
00000170 00000000*      5113 	.word	.LDW_unq_10-.LDW_unq_f
                        5114 .LDW_unq_f:
00000174 00000000*      5115 	.word	.LDW_48c3ff0
00000178 00000000*      5116 	.word	_drawChar
0000017c 00000000*      5117 	.word	___ghs_eofn_drawChar-_drawChar
00000180 48             5118 	.byte	72
00000181 9f             5119 	.byte	159
00000182 28             5120 	.byte	40
00000183 44             5121 	.byte	68
00000184 9d             5122 	.byte	157
00000185 04             5123 	.byte	4
00000186 44             5124 	.byte	68
00000187 9c             5125 	.byte	156
00000188 08             5126 	.byte	8
00000189 44             5127 	.byte	68
0000018a 9b             5128 	.byte	155
0000018b 0c             5129 	.byte	12
0000018c 44             5130 	.byte	68
0000018d 9a             5131 	.byte	154
0000018e 10             5132 	.byte	16
0000018f 44             5133 	.byte	68
00000190 99             5134 	.byte	153
00000191 14             5135 	.byte	20
00000192 44             5136 	.byte	68
00000193 98             5137 	.byte	152

                                                                      Page 94
                                                              C:\Users\NIKHIL~1.PAT\AppData\Local\Temp\gh_000aesk1.s
00000194 18             5138 	.byte	24
00000195 44             5139 	.byte	68
00000196 97             5140 	.byte	151
00000197 1c             5141 	.byte	28
00000198 44             5142 	.byte	68
00000199 96             5143 	.byte	150
0000019a 20             5144 	.byte	32
0000019b 44             5145 	.byte	68
0000019c 95             5146 	.byte	149
0000019d 24             5147 	.byte	36
0000019e 01             5148 	.byte	1
0000019f 00000000*      5149 	.word	.LDW32
000001a3 44             5150 	.byte	68
000001a4 df             5151 	.byte	223
000001a5 44             5152 	.byte	68
000001a6 dd             5153 	.byte	221
000001a7 44             5154 	.byte	68
000001a8 dc             5155 	.byte	220
000001a9 44             5156 	.byte	68
000001aa db             5157 	.byte	219
000001ab 44             5158 	.byte	68
000001ac da             5159 	.byte	218
000001ad 44             5160 	.byte	68
000001ae d9             5161 	.byte	217
000001af 44             5162 	.byte	68
000001b0 d8             5163 	.byte	216
000001b1 44             5164 	.byte	68
000001b2 d7             5165 	.byte	215
000001b3 44             5166 	.byte	68
000001b4 d6             5167 	.byte	214
000001b5 44             5168 	.byte	68
000001b6 d5             5169 	.byte	213
000001b7 00             5170 	.byte	0
                        5171 .LDW_unq_10:
                        5172 	.section	.debug_line
00000632 000502         5173 	.byte	0,5,2
00000635 00000000*      5174 	.word	_drawChar
00000639 03             5175 	.byte	3
0000063a ee02           5176 	.byte	238,2
0000063c 02             5177 	.byte	2
0000063d 00             5178 	.byte	0
0000063e 01             5179 	.byte	1
0000063f 06             5180 	.byte	6
00000640 03             5181 	.byte	3
00000641 02             5182 	.byte	2
00000642 02             5183 	.byte	2
00000643 44             5184 	.byte	68
00000644 01             5185 	.byte	1
00000645 02             5186 	.byte	2
00000646 02             5187 	.byte	2
00000647 15             5188 	.byte	21
00000648 000502         5189 	.byte	0,5,2
0000064b 00000000*      5190 	.word	.LDWlin114
0000064f 0b             5191 	.byte	11
00000650 0b             5192 	.byte	11
00000651 000502         5193 	.byte	0,5,2
00000654 00000000*      5194 	.word	.LDWlin115
00000658 0b             5195 	.byte	11
00000659 0c             5196 	.byte	12
0000065a 0b             5197 	.byte	11
0000065b 4b             5198 	.byte	75

                                                                      Page 95
                                                              C:\Users\NIKHIL~1.PAT\AppData\Local\Temp\gh_000aesk1.s
0000065c 02             5199 	.byte	2
0000065d 00             5200 	.byte	0
0000065e 0c             5201 	.byte	12
0000065f 02             5202 	.byte	2
00000660 02             5203 	.byte	2
00000661 14             5204 	.byte	20
00000662 000502         5205 	.byte	0,5,2
00000665 00000000*      5206 	.word	.LDWlin116
00000669 0b             5207 	.byte	11
0000066a 0b             5208 	.byte	11
0000066b 000502         5209 	.byte	0,5,2
0000066e 00000000*      5210 	.word	.LDWlin117
00000672 0b             5211 	.byte	11
00000673 02             5212 	.byte	2
00000674 00             5213 	.byte	0
00000675 000502         5214 	.byte	0,5,2
00000678 00000000*      5215 	.word	.LDWlin118
0000067c 02             5216 	.byte	2
0000067d 00             5217 	.byte	0
0000067e 0d             5218 	.byte	13
0000067f 0b             5219 	.byte	11
00000680 000502         5220 	.byte	0,5,2
00000683 00000000*      5221 	.word	.LDWlin119
00000687 0b             5222 	.byte	11
00000688 02             5223 	.byte	2
00000689 00             5224 	.byte	0
0000068a 0b             5225 	.byte	11
0000068b 0c             5226 	.byte	12
0000068c 02             5227 	.byte	2
0000068d 00             5228 	.byte	0
0000068e 000502         5229 	.byte	0,5,2
00000691 00000000*      5230 	.word	.LDWlin120
00000695 0b             5231 	.byte	11
00000696 0b             5232 	.byte	11
00000697 000502         5233 	.byte	0,5,2
0000069a 00000000*      5234 	.word	.LDWlin121
0000069e 0b             5235 	.byte	11
0000069f 02             5236 	.byte	2
000006a0 00             5237 	.byte	0
000006a1 000502         5238 	.byte	0,5,2
000006a4 00000000*      5239 	.word	.LDWlin122
000006a8 02             5240 	.byte	2
000006a9 00             5241 	.byte	0
000006aa 0d             5242 	.byte	13
000006ab 0b             5243 	.byte	11
000006ac 000502         5244 	.byte	0,5,2
000006af 00000000*      5245 	.word	.LDWlin123
000006b3 0b             5246 	.byte	11
000006b4 02             5247 	.byte	2
000006b5 00             5248 	.byte	0
000006b6 0b             5249 	.byte	11
000006b7 02             5250 	.byte	2
000006b8 00             5251 	.byte	0
000006b9 02             5252 	.byte	2
000006ba 00             5253 	.byte	0
000006bb 02             5254 	.byte	2
000006bc 00             5255 	.byte	0
000006bd 0b             5256 	.byte	11
000006be 03             5257 	.byte	3
000006bf 69             5258 	.byte	105
000006c0 02             5259 	.byte	2

                                                                      Page 96
                                                              C:\Users\NIKHIL~1.PAT\AppData\Local\Temp\gh_000aesk1.s
000006c1 02             5260 	.byte	2
000006c2 01             5261 	.byte	1
000006c3 02             5262 	.byte	2
000006c4 04             5263 	.byte	4
000006c5 000502         5264 	.byte	0,5,2
000006c8 00000000*      5265 	.word	.LDWlin124
000006cc 03             5266 	.byte	3
000006cd 18             5267 	.byte	24
000006ce 02             5268 	.byte	2
000006cf 00             5269 	.byte	0
000006d0 01             5270 	.byte	1
000006d1 03             5271 	.byte	3
000006d2 5c             5272 	.byte	92
000006d3 02             5273 	.byte	2
000006d4 00             5274 	.byte	0
000006d5 01             5275 	.byte	1
000006d6 02             5276 	.byte	2
000006d7 04             5277 	.byte	4
000006d8 000502         5278 	.byte	0,5,2
000006db 00000000*      5279 	.word	.LDWlin125
000006df 03             5280 	.byte	3
000006e0 26             5281 	.byte	38
000006e1 02             5282 	.byte	2
000006e2 00             5283 	.byte	0
000006e3 01             5284 	.byte	1
000006e4 0c             5285 	.byte	12
000006e5 02             5286 	.byte	2
000006e6 2e             5287 	.byte	46
000006e7 000101         5288 	.byte	0,1,1
                        5289 	.section	.debug_info
                        5290 .LDW_4914368:
00000960 0f             5291 	.byte	15
00000961 7800           5292 	.strz	"x"
00000963 ee02           5293 	.byte	238,2
00000965 17             5294 	.byte	23
00000966 01             5295 	.byte	1
00000967 00000000*      5296 	.word	.LDW_4913de8
0000096b 00             5297 	.byte	0
0000096c 0169           5298 	.byte	1,105
                        5299 
                        5300 .LDW_49143c0:
0000096e 0f             5301 	.byte	15
0000096f 7900           5302 	.strz	"y"
00000971 ee02           5303 	.byte	238,2
00000973 23             5304 	.byte	35
00000974 01             5305 	.byte	1
00000975 00000000*      5306 	.word	.LDW_4913de8
00000979 00             5307 	.byte	0
0000097a 0168           5308 	.byte	1,104
                        5309 
                        5310 .LDW_3e91138:
0000097c 0f             5311 	.byte	15
0000097d 6300           5312 	.strz	"c"
0000097f ee02           5313 	.byte	238,2
00000981 2d             5314 	.byte	45
00000982 01             5315 	.byte	1
00000983 00000000*      5316 	.word	.LDW_4914310
00000987 00             5317 	.byte	0
00000988 0165           5318 	.byte	1,101
                        5319 
                        5320 .LDW_3e91190:

                                                                      Page 97
                                                              C:\Users\NIKHIL~1.PAT\AppData\Local\Temp\gh_000aesk1.s
0000098a 0f             5321 	.byte	15
0000098b 636f6c6f7200   5322 	.strz	"color"
00000991 ee02           5323 	.byte	238,2
00000993 3a             5324 	.byte	58
00000994 01             5325 	.byte	1
00000995 00000000*      5326 	.word	.LDW_4913e40
00000999 00             5327 	.byte	0
0000099a 0167           5328 	.byte	1,103
                        5329 
                        5330 .LDW_3e911e8:
0000099c 0f             5331 	.byte	15
0000099d 626700         5332 	.strz	"bg"
000009a0 ee02           5333 	.byte	238,2
000009a2 4b             5334 	.byte	75
000009a3 01             5335 	.byte	1
000009a4 00000000*      5336 	.word	.LDW_4913e40
000009a8 00             5337 	.byte	0
000009a9 0166           5338 	.byte	1,102
                        5339 
                        5340 .LDW_3e91240:
000009ab 0f             5341 	.byte	15
000009ac 73697a6500     5342 	.strz	"size"
000009b1 ee02           5343 	.byte	238,2
000009b3 58             5344 	.byte	88
000009b4 01             5345 	.byte	1
000009b5 00000000*      5346 	.word	.LDW_4913de8
000009b9 00             5347 	.byte	0
000009ba 016b           5348 	.byte	1,107
                        5349 
                        5350 .LDW_3e90460:
000009bc 1d             5351 	.byte	29
000009bd 00000000*      5352 	.word	.LDW22
000009c1 00000000*      5353 	.word	.LDW32
                        5354 
                        5355 .LDW_3e91298:
000009c5 04             5356 	.byte	4
000009c6 6c696e6500     5357 	.strz	"line"
000009cb f002           5358 	.byte	240,2
000009cd 0b             5359 	.byte	11
000009ce 01             5360 	.byte	1
000009cf 00000000*      5361 	.word	.LDW_4913de8
000009d3 00             5362 	.byte	0
000009d4 00             5363 	.byte	0
000009d5 016a           5364 	.byte	1,106
                        5365 
                        5366 .LDW_3e912f0:
000009d7 04             5367 	.byte	4
000009d8 6900           5368 	.strz	"i"
000009da f002           5369 	.byte	240,2
000009dc 10             5370 	.byte	16
000009dd 01             5371 	.byte	1
000009de 00000000*      5372 	.word	.LDW_4913de8
000009e2 00             5373 	.byte	0
000009e3 00             5374 	.byte	0
000009e4 016d           5375 	.byte	1,109
                        5376 
                        5377 .LDW_3e91348:
000009e6 04             5378 	.byte	4
000009e7 6a00           5379 	.strz	"j"
000009e9 f002           5380 	.byte	240,2
000009eb 12             5381 	.byte	18

                                                                      Page 98
                                                              C:\Users\NIKHIL~1.PAT\AppData\Local\Temp\gh_000aesk1.s
000009ec 01             5382 	.byte	1
000009ed 00000000*      5383 	.word	.LDW_4913de8
000009f1 00             5384 	.byte	0
000009f2 00             5385 	.byte	0
000009f3 016c           5386 	.byte	1,108
                        5387 
000009f5 00             5388 	.byte	0
                        5389 
000009f6 00             5390 	.byte	0
                        5391 
                        5392 .LDW_4948540:
000009f7 13             5393 	.byte	19
000009f8 676f546f00     5394 	.strz	"goTo"
000009fd a203           5395 	.byte	162,3
000009ff 06             5396 	.byte	6
00000a00 01             5397 	.byte	1
00000a01 00000000*      5398 	.word	_goTo
00000a05 00000000*      5399 	.word	___ghs_eofn_goTo
00000a09 0153           5400 	.byte	1,83
00000a0b 828080800b     5401 	.byte	130,128,128,128,11
00000a10 0c             5402 	.byte	12
00000a11 02             5403 	.byte	2
00000a12 0c             5404 	.byte	12
00000a13 00             5405 	.byte	0
00000a14 00             5406 	.byte	0
00000a15 00             5407 	.byte	0
00000a16 01             5408 	.byte	1
00000a17 01             5409 	.byte	1
00000a18 00             5410 	.byte	0
00000a19 01             5411 	.byte	1
                        5412 
                        5413 	.section	.debug_frame
                        5414 .LDW_4311ad8:
000001b8 00000000*      5415 	.word	.LDW_unq_12-.LDW_unq_11
                        5416 .LDW_unq_11:
000001bc 00000000*      5417 	.word	.LDW_48c3ff0
000001c0 00000000*      5418 	.word	_goTo
000001c4 00000000*      5419 	.word	___ghs_eofn_goTo-_goTo
000001c8 46             5420 	.byte	70
000001c9 9f             5421 	.byte	159
000001ca 08             5422 	.byte	8
000001cb 44             5423 	.byte	68
000001cc 9c             5424 	.byte	156
000001cd 04             5425 	.byte	4
000001ce 44             5426 	.byte	68
000001cf 9d             5427 	.byte	157
000001d0 00             5428 	.byte	0
000001d1 01             5429 	.byte	1
000001d2 00000000*      5430 	.word	.LDW52
000001d6 44             5431 	.byte	68
000001d7 df             5432 	.byte	223
000001d8 44             5433 	.byte	68
000001d9 dd             5434 	.byte	221
000001da 44             5435 	.byte	68
000001db dc             5436 	.byte	220
                        5437 .LDW_unq_12:
                        5438 	.section	.debug_line
000006ea 000502         5439 	.byte	0,5,2
000006ed 00000000*      5440 	.word	_goTo
000006f1 03             5441 	.byte	3
000006f2 a203           5442 	.byte	162,3

                                                                      Page 99
                                                              C:\Users\NIKHIL~1.PAT\AppData\Local\Temp\gh_000aesk1.s
000006f4 02             5443 	.byte	2
000006f5 00             5444 	.byte	0
000006f6 01             5445 	.byte	1
000006f7 06             5446 	.byte	6
000006f8 63             5447 	.byte	99
000006f9 000502         5448 	.byte	0,5,2
000006fc 00000000*      5449 	.word	.LDWlin126
00000700 0b             5450 	.byte	11
00000701 02             5451 	.byte	2
00000702 00             5452 	.byte	0
00000703 000502         5453 	.byte	0,5,2
00000706 00000000*      5454 	.word	.LDWlin127
0000070a 02             5455 	.byte	2
0000070b 00             5456 	.byte	0
0000070c 02             5457 	.byte	2
0000070d 00             5458 	.byte	0
0000070e 0c             5459 	.byte	12
0000070f 000502         5460 	.byte	0,5,2
00000712 00000000*      5461 	.word	.LDWlin128
00000716 0c             5462 	.byte	12
00000717 000502         5463 	.byte	0,5,2
0000071a 00000000*      5464 	.word	.LDWlin129
0000071e 0b             5465 	.byte	11
0000071f 000502         5466 	.byte	0,5,2
00000722 00000000*      5467 	.word	.LDWlin130
00000726 0b             5468 	.byte	11
00000727 000502         5469 	.byte	0,5,2
0000072a 00000000*      5470 	.word	.LDWlin131
0000072e 0c             5471 	.byte	12
0000072f 000502         5472 	.byte	0,5,2
00000732 00000000*      5473 	.word	.LDWlin132
00000736 0b             5474 	.byte	11
00000737 000502         5475 	.byte	0,5,2
0000073a 00000000*      5476 	.word	.LDWlin133
0000073e 0b             5477 	.byte	11
0000073f 000502         5478 	.byte	0,5,2
00000742 00000000*      5479 	.word	.LDWlin134
00000746 0c             5480 	.byte	12
00000747 000502         5481 	.byte	0,5,2
0000074a 00000000*      5482 	.word	.LDWlin135
0000074e 0b             5483 	.byte	11
0000074f 02             5484 	.byte	2
00000750 10             5485 	.byte	16
00000751 000101         5486 	.byte	0,1,1
                        5487 	.section	.debug_info
                        5488 .LDW_3e913a0:
00000a1a 0f             5489 	.byte	15
00000a1b 7800           5490 	.strz	"x"
00000a1d a203           5491 	.byte	162,3
00000a1f 13             5492 	.byte	19
00000a20 01             5493 	.byte	1
00000a21 00000000*      5494 	.word	.LDW_4913de8
00000a25 00             5495 	.byte	0
00000a26 016d           5496 	.byte	1,109
                        5497 
                        5498 .LDW_3e913f8:
00000a28 0f             5499 	.byte	15
00000a29 7900           5500 	.strz	"y"
00000a2b a203           5501 	.byte	162,3
00000a2d 1e             5502 	.byte	30
00000a2e 01             5503 	.byte	1

                                                                      Page 100
                                                              C:\Users\NIKHIL~1.PAT\AppData\Local\Temp\gh_000aesk1.s
00000a2f 00000000*      5504 	.word	.LDW_4913de8
00000a33 00             5505 	.byte	0
00000a34 016c           5506 	.byte	1,108
                        5507 
                        5508 .LDW_3e904f0:
00000a36 1d             5509 	.byte	29
00000a37 00000000*      5510 	.word	.LDW42
00000a3b 00000000*      5511 	.word	.LDW52
                        5512 
00000a3f 00             5513 	.byte	0
                        5514 
00000a40 00             5515 	.byte	0
                        5516 
                        5517 .LDW_49485d8:
00000a41 13             5518 	.byte	19
00000a42 647261775069   5519 	.strz	"drawPixel"
00000a48 78656c00 
00000a4c bc03           5520 	.byte	188,3
00000a4e 06             5521 	.byte	6
00000a4f 01             5522 	.byte	1
00000a50 00000000*      5523 	.word	_drawPixel
00000a54 00000000*      5524 	.word	___ghs_eofn_drawPixel
00000a58 0153           5525 	.byte	1,83
00000a5a 828080c00b     5526 	.byte	130,128,128,192,11
00000a5f 10             5527 	.byte	16
00000a60 02             5528 	.byte	2
00000a61 10             5529 	.byte	16
00000a62 00             5530 	.byte	0
00000a63 00             5531 	.byte	0
00000a64 00             5532 	.byte	0
00000a65 01             5533 	.byte	1
00000a66 01             5534 	.byte	1
00000a67 00             5535 	.byte	0
00000a68 01             5536 	.byte	1
                        5537 
                        5538 	.section	.debug_frame
                        5539 .LDW_4311bd8:
000001dc 00000000*      5540 	.word	.LDW_unq_14-.LDW_unq_13
                        5541 .LDW_unq_13:
000001e0 00000000*      5542 	.word	.LDW_48c3ff0
000001e4 00000000*      5543 	.word	_drawPixel
000001e8 00000000*      5544 	.word	___ghs_eofn_drawPixel-_drawPixel
000001ec 46             5545 	.byte	70
000001ed 9f             5546 	.byte	159
000001ee 0c             5547 	.byte	12
000001ef 44             5548 	.byte	68
000001f0 9b             5549 	.byte	155
000001f1 08             5550 	.byte	8
000001f2 44             5551 	.byte	68
000001f3 9c             5552 	.byte	156
000001f4 04             5553 	.byte	4
000001f5 44             5554 	.byte	68
000001f6 9d             5555 	.byte	157
000001f7 00             5556 	.byte	0
000001f8 01             5557 	.byte	1
000001f9 00000000*      5558 	.word	.LDW72
000001fd 44             5559 	.byte	68
000001fe df             5560 	.byte	223
000001ff 44             5561 	.byte	68
00000200 dd             5562 	.byte	221
00000201 44             5563 	.byte	68

                                                                      Page 101
                                                              C:\Users\NIKHIL~1.PAT\AppData\Local\Temp\gh_000aesk1.s
00000202 dc             5564 	.byte	220
00000203 44             5565 	.byte	68
00000204 db             5566 	.byte	219
00000205 00             5567 	.byte	0
00000206 00             5568 	.byte	0
00000207 00             5569 	.byte	0
                        5570 .LDW_unq_14:
                        5571 	.section	.debug_line
00000754 000502         5572 	.byte	0,5,2
00000757 00000000*      5573 	.word	_drawPixel
0000075b 03             5574 	.byte	3
0000075c bc03           5575 	.byte	188,3
0000075e 02             5576 	.byte	2
0000075f 00             5577 	.byte	0
00000760 01             5578 	.byte	1
00000761 06             5579 	.byte	6
00000762 85             5580 	.byte	133
00000763 000502         5581 	.byte	0,5,2
00000766 00000000*      5582 	.word	.LDWlin136
0000076a 0b             5583 	.byte	11
0000076b 02             5584 	.byte	2
0000076c 00             5585 	.byte	0
0000076d 000502         5586 	.byte	0,5,2
00000770 00000000*      5587 	.word	.LDWlin137
00000774 02             5588 	.byte	2
00000775 00             5589 	.byte	0
00000776 02             5590 	.byte	2
00000777 00             5591 	.byte	0
00000778 0c             5592 	.byte	12
00000779 000502         5593 	.byte	0,5,2
0000077c 00000000*      5594 	.word	.LDWlin138
00000780 0d             5595 	.byte	13
00000781 000502         5596 	.byte	0,5,2
00000784 00000000*      5597 	.word	.LDWlin139
00000788 0b             5598 	.byte	11
00000789 000502         5599 	.byte	0,5,2
0000078c 00000000*      5600 	.word	.LDWlin140
00000790 0c             5601 	.byte	12
00000791 02             5602 	.byte	2
00000792 16             5603 	.byte	22
00000793 000101         5604 	.byte	0,1,1
                        5605 	.section	.debug_info
                        5606 .LDW_3e91450:
00000a69 0f             5607 	.byte	15
00000a6a 7800           5608 	.strz	"x"
00000a6c bc03           5609 	.byte	188,3
00000a6e 18             5610 	.byte	24
00000a6f 01             5611 	.byte	1
00000a70 00000000*      5612 	.word	.LDW_4913de8
00000a74 00             5613 	.byte	0
00000a75 016d           5614 	.byte	1,109
                        5615 
                        5616 .LDW_3e914a8:
00000a77 0f             5617 	.byte	15
00000a78 7900           5618 	.strz	"y"
00000a7a bc03           5619 	.byte	188,3
00000a7c 23             5620 	.byte	35
00000a7d 01             5621 	.byte	1
00000a7e 00000000*      5622 	.word	.LDW_4913de8
00000a82 00             5623 	.byte	0
00000a83 016c           5624 	.byte	1,108

                                                                      Page 102
                                                              C:\Users\NIKHIL~1.PAT\AppData\Local\Temp\gh_000aesk1.s
                        5625 
                        5626 .LDW_3e91500:
00000a85 0f             5627 	.byte	15
00000a86 636f6c6f7200   5628 	.strz	"color"
00000a8c bc03           5629 	.byte	188,3
00000a8e 2f             5630 	.byte	47
00000a8f 01             5631 	.byte	1
00000a90 00000000*      5632 	.word	.LDW_4913e40
00000a94 00             5633 	.byte	0
00000a95 016b           5634 	.byte	1,107
                        5635 
                        5636 .LDW_3e905b0:
00000a97 1d             5637 	.byte	29
00000a98 00000000*      5638 	.word	.LDW62
00000a9c 00000000*      5639 	.word	.LDW72
                        5640 
00000aa0 00             5641 	.byte	0
                        5642 
00000aa1 00             5643 	.byte	0
                        5644 
                        5645 .LDW_4948670:
00000aa2 13             5646 	.byte	19
00000aa3 525f44495350   5647 	.strz	"R_DISPLAY_DrawText"
00000aa9 4c41595f4472 
00000aaf 617754657874 
00000ab5 00 
00000ab6 d603           5648 	.byte	214,3
00000ab8 06             5649 	.byte	6
00000ab9 01             5650 	.byte	1
00000aba 00000000*      5651 	.word	_R_DISPLAY_DrawText
00000abe 00000000*      5652 	.word	___ghs_eofn_R_DISPLAY_DrawText
00000ac2 0153           5653 	.byte	1,83
00000ac4 828080fc0b     5654 	.byte	130,128,128,252,11
00000ac9 20             5655 	.byte	32
00000aca 02             5656 	.byte	2
00000acb 28             5657 	.byte	40
00000acc 00             5658 	.byte	0
00000acd 00             5659 	.byte	0
00000ace 00             5660 	.byte	0
00000acf 01             5661 	.byte	1
00000ad0 01             5662 	.byte	1
00000ad1 00             5663 	.byte	0
00000ad2 01             5664 	.byte	1
                        5665 
                        5666 	.section	.debug_frame
                        5667 .LDW_4311cd8:
00000208 00000000*      5668 	.word	.LDW_unq_16-.LDW_unq_15
                        5669 .LDW_unq_15:
0000020c 00000000*      5670 	.word	.LDW_48c3ff0
00000210 00000000*      5671 	.word	_R_DISPLAY_DrawText
00000214 00000000*      5672 	.word	___ghs_eofn_R_DISPLAY_DrawText-_R_DISPLAY_DrawText
00000218 48             5673 	.byte	72
00000219 9f             5674 	.byte	159
0000021a 24             5675 	.byte	36
0000021b 44             5676 	.byte	68
0000021c 9d             5677 	.byte	157
0000021d 08             5678 	.byte	8
0000021e 44             5679 	.byte	68
0000021f 9c             5680 	.byte	156
00000220 0c             5681 	.byte	12
00000221 44             5682 	.byte	68

                                                                      Page 103
                                                              C:\Users\NIKHIL~1.PAT\AppData\Local\Temp\gh_000aesk1.s
00000222 9b             5683 	.byte	155
00000223 10             5684 	.byte	16
00000224 44             5685 	.byte	68
00000225 9a             5686 	.byte	154
00000226 14             5687 	.byte	20
00000227 44             5688 	.byte	68
00000228 99             5689 	.byte	153
00000229 18             5690 	.byte	24
0000022a 44             5691 	.byte	68
0000022b 98             5692 	.byte	152
0000022c 1c             5693 	.byte	28
0000022d 44             5694 	.byte	68
0000022e 97             5695 	.byte	151
0000022f 20             5696 	.byte	32
00000230 01             5697 	.byte	1
00000231 00000000*      5698 	.word	.LDW92
00000235 44             5699 	.byte	68
00000236 df             5700 	.byte	223
00000237 44             5701 	.byte	68
00000238 dd             5702 	.byte	221
00000239 44             5703 	.byte	68
0000023a dc             5704 	.byte	220
0000023b 44             5705 	.byte	68
0000023c db             5706 	.byte	219
0000023d 44             5707 	.byte	68
0000023e da             5708 	.byte	218
0000023f 44             5709 	.byte	68
00000240 d9             5710 	.byte	217
00000241 44             5711 	.byte	68
00000242 d8             5712 	.byte	216
00000243 44             5713 	.byte	68
00000244 d7             5714 	.byte	215
00000245 00             5715 	.byte	0
00000246 00             5716 	.byte	0
00000247 00             5717 	.byte	0
                        5718 .LDW_unq_16:
                        5719 	.section	.debug_line
00000796 000502         5720 	.byte	0,5,2
00000799 00000000*      5721 	.word	_R_DISPLAY_DrawText
0000079d 03             5722 	.byte	3
0000079e d603           5723 	.byte	214,3
000007a0 02             5724 	.byte	2
000007a1 00             5725 	.byte	0
000007a2 01             5726 	.byte	1
000007a3 06             5727 	.byte	6
000007a4 f3             5728 	.byte	243
000007a5 14             5729 	.byte	20
000007a6 000502         5730 	.byte	0,5,2
000007a9 00000000*      5731 	.word	.LDWlin141
000007ad 0c             5732 	.byte	12
000007ae 000502         5733 	.byte	0,5,2
000007b1 00000000*      5734 	.word	.LDWlin142
000007b5 0b             5735 	.byte	11
000007b6 13             5736 	.byte	19
000007b7 03             5737 	.byte	3
000007b8 7c             5738 	.byte	124
000007b9 02             5739 	.byte	2
000007ba 04             5740 	.byte	4
000007bb 01             5741 	.byte	1
000007bc 000502         5742 	.byte	0,5,2
000007bf 00000000*      5743 	.word	.LDWlin143

                                                                      Page 104
                                                              C:\Users\NIKHIL~1.PAT\AppData\Local\Temp\gh_000aesk1.s
000007c3 03             5744 	.byte	3
000007c4 05             5745 	.byte	5
000007c5 02             5746 	.byte	2
000007c6 00             5747 	.byte	0
000007c7 01             5748 	.byte	1
000007c8 0b             5749 	.byte	11
000007c9 02             5750 	.byte	2
000007ca 26             5751 	.byte	38
000007cb 000101         5752 	.byte	0,1,1
                        5753 	.section	.debug_info
                        5754 .LDW_3e91558:
00000ad3 0f             5755 	.byte	15
00000ad4 7800           5756 	.strz	"x"
00000ad6 d603           5757 	.byte	214,3
00000ad8 21             5758 	.byte	33
00000ad9 01             5759 	.byte	1
00000ada 00000000*      5760 	.word	.LDW_4913de8
00000ade 00             5761 	.byte	0
00000adf 016a           5762 	.byte	1,106
                        5763 
                        5764 .LDW_3e915b0:
00000ae1 0f             5765 	.byte	15
00000ae2 7900           5766 	.strz	"y"
00000ae4 d603           5767 	.byte	214,3
00000ae6 2d             5768 	.byte	45
00000ae7 01             5769 	.byte	1
00000ae8 00000000*      5770 	.word	.LDW_4913de8
00000aec 00             5771 	.byte	0
00000aed 0169           5772 	.byte	1,105
                        5773 
                        5774 .LDW_3e91608:
00000aef 0f             5775 	.byte	15
00000af0 6300           5776 	.strz	"c"
00000af2 d603           5777 	.byte	214,3
00000af4 38             5778 	.byte	56
00000af5 01             5779 	.byte	1
00000af6 00000000*      5780 	.word	.LDW_494a128
00000afa 00             5781 	.byte	0
00000afb 016c           5782 	.byte	1,108
                        5783 
                        5784 .LDW_3e91660:
00000afd 0f             5785 	.byte	15
00000afe 636f6c6f7200   5786 	.strz	"color"
00000b04 d603           5787 	.byte	214,3
00000b06 45             5788 	.byte	69
00000b07 01             5789 	.byte	1
00000b08 00000000*      5790 	.word	.LDW_4913e40
00000b0c 00             5791 	.byte	0
00000b0d 0168           5792 	.byte	1,104
                        5793 
                        5794 .LDW_3e916b8:
00000b0f 0f             5795 	.byte	15
00000b10 626700         5796 	.strz	"bg"
00000b13 d603           5797 	.byte	214,3
00000b15 55             5798 	.byte	85
00000b16 01             5799 	.byte	1
00000b17 00000000*      5800 	.word	.LDW_4913e40
00000b1b 00             5801 	.byte	0
00000b1c 0167           5802 	.byte	1,103
                        5803 
                        5804 .LDW_3e91710:

                                                                      Page 105
                                                              C:\Users\NIKHIL~1.PAT\AppData\Local\Temp\gh_000aesk1.s
00000b1e 0f             5805 	.byte	15
00000b1f 73697a6500     5806 	.strz	"size"
00000b24 d603           5807 	.byte	214,3
00000b26 61             5808 	.byte	97
00000b27 01             5809 	.byte	1
00000b28 00000000*      5810 	.word	.LDW_4913de8
00000b2c 00             5811 	.byte	0
00000b2d 016b           5812 	.byte	1,107
                        5813 
                        5814 .LDW_3e90700:
00000b2f 1d             5815 	.byte	29
00000b30 00000000*      5816 	.word	.LDW82
00000b34 00000000*      5817 	.word	.LDW92
                        5818 
                        5819 .LDW_3e91768:
00000b38 04             5820 	.byte	4
00000b39 6900           5821 	.strz	"i"
00000b3b d803           5822 	.byte	216,3
00000b3d 0b             5823 	.byte	11
00000b3e 01             5824 	.byte	1
00000b3f 00000000*      5825 	.word	.LDW_4913de8
00000b43 00             5826 	.byte	0
00000b44 00             5827 	.byte	0
00000b45 016d           5828 	.byte	1,109
                        5829 
00000b47 00             5830 	.byte	0
                        5831 
00000b48 00             5832 	.byte	0
                        5833 
                        5834 .LDW_4948708:
00000b49 13             5835 	.byte	19
00000b4a 777269746543   5836 	.strz	"writeCommand"
00000b50 6f6d6d616e64 
00000b56 00 
00000b57 e803           5837 	.byte	232,3
00000b59 06             5838 	.byte	6
00000b5a 01             5839 	.byte	1
00000b5b 00000000*      5840 	.word	_writeCommand
00000b5f 00000000*      5841 	.word	___ghs_eofn_writeCommand
00000b63 0153           5842 	.byte	1,83
00000b65 828080800a     5843 	.byte	130,128,128,128,10
00000b6a 08             5844 	.byte	8
00000b6b 02             5845 	.byte	2
00000b6c 08             5846 	.byte	8
00000b6d 00             5847 	.byte	0
00000b6e 00             5848 	.byte	0
00000b6f 00             5849 	.byte	0
00000b70 01             5850 	.byte	1
00000b71 01             5851 	.byte	1
00000b72 00             5852 	.byte	0
00000b73 01             5853 	.byte	1
                        5854 
                        5855 	.section	.debug_frame
                        5856 .LDW_4311dd8:
00000248 00000000*      5857 	.word	.LDW_unq_18-.LDW_unq_17
                        5858 .LDW_unq_17:
0000024c 00000000*      5859 	.word	.LDW_48c3ff0
00000250 00000000*      5860 	.word	_writeCommand
00000254 00000000*      5861 	.word	___ghs_eofn_writeCommand-_writeCommand
00000258 46             5862 	.byte	70
00000259 9f             5863 	.byte	159

                                                                      Page 106
                                                              C:\Users\NIKHIL~1.PAT\AppData\Local\Temp\gh_000aesk1.s
0000025a 04             5864 	.byte	4
0000025b 44             5865 	.byte	68
0000025c 9d             5866 	.byte	157
0000025d 00             5867 	.byte	0
0000025e 01             5868 	.byte	1
0000025f 00000000*      5869 	.word	.LDW13
00000263 44             5870 	.byte	68
00000264 df             5871 	.byte	223
00000265 44             5872 	.byte	68
00000266 dd             5873 	.byte	221
00000267 00             5874 	.byte	0
                        5875 .LDW_unq_18:
                        5876 	.section	.debug_line
000007ce 000502         5877 	.byte	0,5,2
000007d1 00000000*      5878 	.word	_writeCommand
000007d5 03             5879 	.byte	3
000007d6 e803           5880 	.byte	232,3
000007d8 02             5881 	.byte	2
000007d9 00             5882 	.byte	0
000007da 01             5883 	.byte	1
000007db 06             5884 	.byte	6
000007dc 43             5885 	.byte	67
000007dd 000502         5886 	.byte	0,5,2
000007e0 00000000*      5887 	.word	.LDWlin144
000007e4 0b             5888 	.byte	11
000007e5 000502         5889 	.byte	0,5,2
000007e8 00000000*      5890 	.word	.LDWlin145
000007ec 0b             5891 	.byte	11
000007ed 02             5892 	.byte	2
000007ee 0c             5893 	.byte	12
000007ef 000101         5894 	.byte	0,1,1
                        5895 	.section	.debug_info
                        5896 .LDW_3e917c0:
00000b74 0f             5897 	.byte	15
00000b75 436f6d6d616e   5898 	.strz	"Command"
00000b7b 6400 
00000b7d e803           5899 	.byte	232,3
00000b7f 1b             5900 	.byte	27
00000b80 01             5901 	.byte	1
00000b81 00000000*      5902 	.word	.LDW_4913de8
00000b85 00             5903 	.byte	0
00000b86 016d           5904 	.byte	1,109
                        5905 
                        5906 .LDW_3e90760:
00000b88 1d             5907 	.byte	29
00000b89 00000000*      5908 	.word	.LDW03
00000b8d 00000000*      5909 	.word	.LDW13
                        5910 
00000b91 00             5911 	.byte	0
                        5912 
00000b92 00             5913 	.byte	0
                        5914 
                        5915 .LDW_49487a0:
00000b93 13             5916 	.byte	19
00000b94 777269746544   5917 	.strz	"writeData"
00000b9a 61746100 
00000b9e f403           5918 	.byte	244,3
00000ba0 06             5919 	.byte	6
00000ba1 01             5920 	.byte	1
00000ba2 00000000*      5921 	.word	_writeData
00000ba6 00000000*      5922 	.word	___ghs_eofn_writeData

                                                                      Page 107
                                                              C:\Users\NIKHIL~1.PAT\AppData\Local\Temp\gh_000aesk1.s
00000baa 0153           5923 	.byte	1,83
00000bac 828080800a     5924 	.byte	130,128,128,128,10
00000bb1 08             5925 	.byte	8
00000bb2 02             5926 	.byte	2
00000bb3 08             5927 	.byte	8
00000bb4 00             5928 	.byte	0
00000bb5 00             5929 	.byte	0
00000bb6 00             5930 	.byte	0
00000bb7 01             5931 	.byte	1
00000bb8 01             5932 	.byte	1
00000bb9 00             5933 	.byte	0
00000bba 01             5934 	.byte	1
                        5935 
                        5936 	.section	.debug_frame
                        5937 .LDW_4311ed8:
00000268 00000000*      5938 	.word	.LDW_unq_1a-.LDW_unq_19
                        5939 .LDW_unq_19:
0000026c 00000000*      5940 	.word	.LDW_48c3ff0
00000270 00000000*      5941 	.word	_writeData
00000274 00000000*      5942 	.word	___ghs_eofn_writeData-_writeData
00000278 46             5943 	.byte	70
00000279 9f             5944 	.byte	159
0000027a 04             5945 	.byte	4
0000027b 44             5946 	.byte	68
0000027c 9d             5947 	.byte	157
0000027d 00             5948 	.byte	0
0000027e 01             5949 	.byte	1
0000027f 00000000*      5950 	.word	.LDW33
00000283 44             5951 	.byte	68
00000284 df             5952 	.byte	223
00000285 44             5953 	.byte	68
00000286 dd             5954 	.byte	221
00000287 00             5955 	.byte	0
                        5956 .LDW_unq_1a:
                        5957 	.section	.debug_line
000007f2 000502         5958 	.byte	0,5,2
000007f5 00000000*      5959 	.word	_writeData
000007f9 03             5960 	.byte	3
000007fa f403           5961 	.byte	244,3
000007fc 02             5962 	.byte	2
000007fd 00             5963 	.byte	0
000007fe 01             5964 	.byte	1
000007ff 06             5965 	.byte	6
00000800 43             5966 	.byte	67
00000801 000502         5967 	.byte	0,5,2
00000804 00000000*      5968 	.word	.LDWlin146
00000808 0b             5969 	.byte	11
00000809 000502         5970 	.byte	0,5,2
0000080c 00000000*      5971 	.word	.LDWlin147
00000810 0b             5972 	.byte	11
00000811 02             5973 	.byte	2
00000812 0c             5974 	.byte	12
00000813 000101         5975 	.byte	0,1,1
                        5976 	.section	.debug_info
                        5977 .LDW_3e91818:
00000bbb 0f             5978 	.byte	15
00000bbc 4461746100     5979 	.strz	"Data"
00000bc1 f403           5980 	.byte	244,3
00000bc3 19             5981 	.byte	25
00000bc4 01             5982 	.byte	1
00000bc5 00000000*      5983 	.word	.LDW_4913e40

                                                                      Page 108
                                                              C:\Users\NIKHIL~1.PAT\AppData\Local\Temp\gh_000aesk1.s
00000bc9 00             5984 	.byte	0
00000bca 016d           5985 	.byte	1,109
                        5986 
                        5987 .LDW_3e907c0:
00000bcc 1d             5988 	.byte	29
00000bcd 00000000*      5989 	.word	.LDW23
00000bd1 00000000*      5990 	.word	.LDW33
                        5991 
00000bd5 00             5992 	.byte	0
                        5993 
00000bd6 00             5994 	.byte	0
                        5995 
                        5996 .LDW_4948838:
00000bd7 13             5997 	.byte	19
00000bd8 777269746542   5998 	.strz	"writeBuffer"
00000bde 756666657200 
00000be4 8104           5999 	.byte	129,4
00000be6 06             6000 	.byte	6
00000be7 01             6001 	.byte	1
00000be8 00000000*      6002 	.word	_writeBuffer
00000bec 00000000*      6003 	.word	___ghs_eofn_writeBuffer
00000bf0 0153           6004 	.byte	1,83
00000bf2 828080800b     6005 	.byte	130,128,128,128,11
00000bf7 0c             6006 	.byte	12
00000bf8 02             6007 	.byte	2
00000bf9 0c             6008 	.byte	12
00000bfa 00             6009 	.byte	0
00000bfb 00             6010 	.byte	0
00000bfc 00             6011 	.byte	0
00000bfd 01             6012 	.byte	1
00000bfe 01             6013 	.byte	1
00000bff 00             6014 	.byte	0
00000c00 01             6015 	.byte	1
                        6016 
                        6017 	.section	.debug_frame
                        6018 .LDW_4311fd8:
00000288 00000000*      6019 	.word	.LDW_unq_1c-.LDW_unq_1b
                        6020 .LDW_unq_1b:
0000028c 00000000*      6021 	.word	.LDW_48c3ff0
00000290 00000000*      6022 	.word	_writeBuffer
00000294 00000000*      6023 	.word	___ghs_eofn_writeBuffer-_writeBuffer
00000298 46             6024 	.byte	70
00000299 9f             6025 	.byte	159
0000029a 08             6026 	.byte	8
0000029b 44             6027 	.byte	68
0000029c 9c             6028 	.byte	156
0000029d 04             6029 	.byte	4
0000029e 44             6030 	.byte	68
0000029f 9d             6031 	.byte	157
000002a0 00             6032 	.byte	0
000002a1 01             6033 	.byte	1
000002a2 00000000*      6034 	.word	.LDW53
000002a6 44             6035 	.byte	68
000002a7 df             6036 	.byte	223
000002a8 44             6037 	.byte	68
000002a9 dd             6038 	.byte	221
000002aa 44             6039 	.byte	68
000002ab dc             6040 	.byte	220
                        6041 .LDW_unq_1c:
                        6042 	.section	.debug_line
00000816 000502         6043 	.byte	0,5,2

                                                                      Page 109
                                                              C:\Users\NIKHIL~1.PAT\AppData\Local\Temp\gh_000aesk1.s
00000819 00000000*      6044 	.word	_writeBuffer
0000081d 03             6045 	.byte	3
0000081e 8104           6046 	.byte	129,4
00000820 02             6047 	.byte	2
00000821 00             6048 	.byte	0
00000822 01             6049 	.byte	1
00000823 06             6050 	.byte	6
00000824 5b             6051 	.byte	91
00000825 000502         6052 	.byte	0,5,2
00000828 00000000*      6053 	.word	.LDWlin148
0000082c 0b             6054 	.byte	11
0000082d 000502         6055 	.byte	0,5,2
00000830 00000000*      6056 	.word	.LDWlin149
00000834 0b             6057 	.byte	11
00000835 02             6058 	.byte	2
00000836 10             6059 	.byte	16
00000837 000101         6060 	.byte	0,1,1
                        6061 	.section	.debug_info
                        6062 .LDW_3e91870:
00000c01 0f             6063 	.byte	15
00000c02 427566666572   6064 	.strz	"Buffer"
00000c08 00 
00000c09 8104           6065 	.byte	129,4
00000c0b 1c             6066 	.byte	28
00000c0c 01             6067 	.byte	1
00000c0d 00000000*      6068 	.word	.LDW_4949fa0
00000c11 00             6069 	.byte	0
00000c12 016d           6070 	.byte	1,109
                        6071 
                        6072 .LDW_3e918c8:
00000c14 0f             6073 	.byte	15
00000c15 4c656e677468   6074 	.strz	"Length"
00000c1b 00 
00000c1c 8104           6075 	.byte	129,4
00000c1e 2d             6076 	.byte	45
00000c1f 01             6077 	.byte	1
00000c20 00000000*      6078 	.word	.LDW_4913e40
00000c24 00             6079 	.byte	0
00000c25 016c           6080 	.byte	1,108
                        6081 
                        6082 .LDW_3e90850:
00000c27 1d             6083 	.byte	29
00000c28 00000000*      6084 	.word	.LDW43
00000c2c 00000000*      6085 	.word	.LDW53
                        6086 
00000c30 00             6087 	.byte	0
                        6088 
00000c31 00             6089 	.byte	0
                        6090 
                        6091 .LDW_49488d0:
00000c32 13             6092 	.byte	19
00000c33 64656c617900   6093 	.strz	"delay"
00000c39 8d04           6094 	.byte	141,4
00000c3b 06             6095 	.byte	6
00000c3c 01             6096 	.byte	1
00000c3d 00000000*      6097 	.word	_delay
00000c41 00000000*      6098 	.word	___ghs_eofn_delay
00000c45 0153           6099 	.byte	1,83
00000c47 02             6100 	.byte	2
00000c48 00             6101 	.byte	0
00000c49 02             6102 	.byte	2

                                                                      Page 110
                                                              C:\Users\NIKHIL~1.PAT\AppData\Local\Temp\gh_000aesk1.s
00000c4a 00             6103 	.byte	0
00000c4b 00             6104 	.byte	0
00000c4c 00             6105 	.byte	0
00000c4d 00             6106 	.byte	0
00000c4e 01             6107 	.byte	1
00000c4f 01             6108 	.byte	1
00000c50 00             6109 	.byte	0
00000c51 01             6110 	.byte	1
                        6111 
                        6112 	.section	.debug_frame
                        6113 .LDW_43120d8:
000002ac 00000000*      6114 	.word	.LDW_unq_1e-.LDW_unq_1d
                        6115 .LDW_unq_1d:
000002b0 00000000*      6116 	.word	.LDW_48c3ff0
000002b4 00000000*      6117 	.word	_delay
000002b8 00000000*      6118 	.word	___ghs_eofn_delay-_delay
000002bc 01             6119 	.byte	1
000002bd 00000000*      6120 	.word	.LDW73
000002c1 00             6121 	.byte	0
000002c2 00             6122 	.byte	0
000002c3 00             6123 	.byte	0
                        6124 .LDW_unq_1e:
                        6125 	.section	.debug_line
0000083a 000502         6126 	.byte	0,5,2
0000083d 00000000*      6127 	.word	_delay
00000841 03             6128 	.byte	3
00000842 8d04           6129 	.byte	141,4
00000844 02             6130 	.byte	2
00000845 00             6131 	.byte	0
00000846 01             6132 	.byte	1
00000847 06             6133 	.byte	6
00000848 03             6134 	.byte	3
00000849 04             6135 	.byte	4
0000084a 02             6136 	.byte	2
0000084b 04             6137 	.byte	4
0000084c 01             6138 	.byte	1
0000084d 02             6139 	.byte	2
0000084e 02             6140 	.byte	2
0000084f 000502         6141 	.byte	0,5,2
00000852 00000000*      6142 	.word	.LDWlin150
00000856 02             6143 	.byte	2
00000857 00             6144 	.byte	0
00000858 000502         6145 	.byte	0,5,2
0000085b 00000000*      6146 	.word	.LDWlin151
0000085f 02             6147 	.byte	2
00000860 00             6148 	.byte	0
00000861 0c             6149 	.byte	12
00000862 02             6150 	.byte	2
00000863 02             6151 	.byte	2
00000864 000101         6152 	.byte	0,1,1
                        6153 	.section	.debug_info
                        6154 .LDW_3e91920:
00000c52 0f             6155 	.byte	15
00000c53 636f756e7400   6156 	.strz	"count"
00000c59 8d04           6157 	.byte	141,4
00000c5b 15             6158 	.byte	21
00000c5c 01             6159 	.byte	1
00000c5d 00000000*      6160 	.word	.LDW_4913e40
00000c61 00             6161 	.byte	0
00000c62 0152           6162 	.byte	1,82
                        6163 

                                                                      Page 111
                                                              C:\Users\NIKHIL~1.PAT\AppData\Local\Temp\gh_000aesk1.s
                        6164 .LDW_3e908b0:
00000c64 1d             6165 	.byte	29
00000c65 00000000*      6166 	.word	.LDW63
00000c69 00000000*      6167 	.word	.LDW73
                        6168 
                        6169 .LDW_3e91978:
00000c6d 04             6170 	.byte	4
00000c6e 6900           6171 	.strz	"i"
00000c70 9004           6172 	.byte	144,4
00000c72 0c             6173 	.byte	12
00000c73 01             6174 	.byte	1
00000c74 00000000*      6175 	.word	.LDW_4914050
00000c78 00             6176 	.byte	0
00000c79 00             6177 	.byte	0
00000c7a 0151           6178 	.byte	1,81
                        6179 
00000c7c 00             6180 	.byte	0
                        6181 
00000c7d 00             6182 	.byte	0
                        6183 
00000c7e 00             6184 	.byte	0
                        6185 
                        6186 	.section	.debug_line
                        6187 .Ldw_line_end:
                        6188 	.section	.debug_macinfo
00000000 01             6189 	.byte	1
00000001 00             6190 	.byte	0
00000002 5f5f474e555f   6191 	.strz	"__GNU_ASM_SUPPORT__ 1"
00000008 41534d5f5355 
0000000e 50504f52545f 
00000014 5f203100 
00000018 01             6192 	.byte	1
00000019 00             6193 	.byte	0
0000001a 5f5f67687320   6194 	.strz	"__ghs 1"
00000020 3100 
00000022 01             6195 	.byte	1
00000023 00             6196 	.byte	0
00000024 5f5f41545452   6197 	.strz	"__ATTRIBUTES 1"
0000002a 494255544553 
00000030 203100 
00000033 01             6198 	.byte	1
00000034 00             6199 	.byte	0
00000035 5f5f4544475f   6200 	.strz	"__EDG__ 1"
0000003b 5f203100 
0000003f 01             6201 	.byte	1
00000040 00             6202 	.byte	0
00000041 5f5f536f6674   6203 	.strz	"__SoftwareFloat__ 1"
00000047 77617265466c 
0000004d 6f61745f5f20 
00000053 3100 
00000055 01             6204 	.byte	1
00000056 00             6205 	.byte	0
00000057 5f5f434f5245   6206 	.strz	"__CORE_V850E3V5__ 1"
0000005d 5f5638353045 
00000063 3356355f5f20 
00000069 3100 
0000006b 01             6207 	.byte	1
0000006c 00             6208 	.byte	0
0000006d 5f5f56383530   6209 	.strz	"__V850E__ 1"
00000073 455f5f203100 
00000079 01             6210 	.byte	1

                                                                      Page 112
                                                              C:\Users\NIKHIL~1.PAT\AppData\Local\Temp\gh_000aesk1.s
0000007a 00             6211 	.byte	0
0000007b 5f5f56383530   6212 	.strz	"__V850E2__ 1"
00000081 45325f5f2031 
00000087 00 
00000088 01             6213 	.byte	1
00000089 00             6214 	.byte	0
0000008a 5f5f56383530   6215 	.strz	"__V850E2R__ 1"
00000090 4532525f5f20 
00000096 3100 
00000098 01             6216 	.byte	1
00000099 00             6217 	.byte	0
0000009a 5f5f56383530   6218 	.strz	"__V850E2V3__ 1"
000000a0 453256335f5f 
000000a6 203100 
000000a9 01             6219 	.byte	1
000000aa 00             6220 	.byte	0
000000ab 5f5f56383530   6221 	.strz	"__V850E3__ 1"
000000b1 45335f5f2031 
000000b7 00 
000000b8 01             6222 	.byte	1
000000b9 00             6223 	.byte	0
000000ba 5f5f56383030   6224 	.strz	"__V800_registermode 32"
000000c0 5f7265676973 
000000c6 7465726d6f64 
000000cc 6520333200 
000000d1 01             6225 	.byte	1
000000d2 00             6226 	.byte	0
000000d3 5f5f4748535f   6227 	.strz	"__GHS__ 1"
000000d9 5f203100 
000000dd 03             6228 	.byte	3
000000de 00             6229 	.byte	0
000000df 01             6230 	.byte	1
000000e0 03             6231 	.byte	3
000000e1 41             6232 	.byte	65
000000e2 02             6233 	.byte	2
000000e3 03             6234 	.byte	3
000000e4 34             6235 	.byte	52
000000e5 03             6236 	.byte	3
000000e6 01             6237 	.byte	1
000000e7 f518           6238 	.byte	245,24
000000e9 503020282a28   6239 	.strz	"P0 (*(volatile uint16 *)0xFFC10000)"
000000ef 766f6c617469 
000000f5 6c652075696e 
000000fb 743136202a29 
00000101 307846464331 
00000107 303030302900 
0000010d 01             6240 	.byte	1
0000010e f618           6241 	.byte	246,24
00000110 503120282a28   6242 	.strz	"P1 (*(volatile uint16 *)0xFFC10004)"
00000116 766f6c617469 
0000011c 6c652075696e 
00000122 743136202a29 
00000128 307846464331 
0000012e 303030342900 
00000134 01             6243 	.byte	1
00000135 f718           6244 	.byte	247,24
00000137 503220282a28   6245 	.strz	"P2 (*(volatile uint16 *)0xFFC10008)"
0000013d 766f6c617469 
00000143 6c652075696e 
00000149 743136202a29 
0000014f 307846464331 

                                                                      Page 113
                                                              C:\Users\NIKHIL~1.PAT\AppData\Local\Temp\gh_000aesk1.s
00000155 303030382900 
0000015b 01             6246 	.byte	1
0000015c f818           6247 	.byte	248,24
0000015e 503820282a28   6248 	.strz	"P8 (*(volatile uint16 *)0xFFC10020)"
00000164 766f6c617469 
0000016a 6c652075696e 
00000170 743136202a29 
00000176 307846464331 
0000017c 303032302900 
00000182 01             6249 	.byte	1
00000183 f918           6250 	.byte	249,24
00000185 503920282a28   6251 	.strz	"P9 (*(volatile uint16 *)0xFFC10024)"
0000018b 766f6c617469 
00000191 6c652075696e 
00000197 743136202a29 
0000019d 307846464331 
000001a3 303032342900 
000001a9 01             6252 	.byte	1
000001aa fa18           6253 	.byte	250,24
000001ac 50313020282a   6254 	.strz	"P10 (*(volatile uint16 *)0xFFC10028)"
000001b2 28766f6c6174 
000001b8 696c65207569 
000001be 6e743136202a 
000001c4 293078464643 
000001ca 313030323829 
000001d0 00 
000001d1 01             6255 	.byte	1
000001d2 fb18           6256 	.byte	251,24
000001d4 50313120282a   6257 	.strz	"P11 (*(volatile uint16 *)0xFFC1002C)"
000001da 28766f6c6174 
000001e0 696c65207569 
000001e6 6e743136202a 
000001ec 293078464643 
000001f2 313030324329 
000001f8 00 
000001f9 01             6258 	.byte	1
000001fa fc18           6259 	.byte	252,24
000001fc 50313220282a   6260 	.strz	"P12 (*(volatile uint16 *)0xFFC10030)"
00000202 28766f6c6174 
00000208 696c65207569 
0000020e 6e743136202a 
00000214 293078464643 
0000021a 313030333029 
00000220 00 
00000221 01             6261 	.byte	1
00000222 fd18           6262 	.byte	253,24
00000224 50313820282a   6263 	.strz	"P18 (*(volatile uint16 *)0xFFC10048)"
0000022a 28766f6c6174 
00000230 696c65207569 
00000236 6e743136202a 
0000023c 293078464643 
00000242 313030343829 
00000248 00 
00000249 01             6264 	.byte	1
0000024a fe18           6265 	.byte	254,24
0000024c 50323020282a   6266 	.strz	"P20 (*(volatile uint16 *)0xFFC10050)"
00000252 28766f6c6174 
00000258 696c65207569 
0000025e 6e743136202a 
00000264 293078464643 
0000026a 313030353029 

                                                                      Page 114
                                                              C:\Users\NIKHIL~1.PAT\AppData\Local\Temp\gh_000aesk1.s
00000270 00 
00000271 01             6267 	.byte	1
00000272 ff18           6268 	.byte	255,24
00000274 41503020282a   6269 	.strz	"AP0 (*(volatile uint16 *)0xFFC100C8)"
0000027a 28766f6c6174 
00000280 696c65207569 
00000286 6e743136202a 
0000028c 293078464643 
00000292 313030433829 
00000298 00 
00000299 01             6270 	.byte	1
0000029a 8019           6271 	.byte	128,25
0000029c 41503120282a   6272 	.strz	"AP1 (*(volatile uint16 *)0xFFC100CC)"
000002a2 28766f6c6174 
000002a8 696c65207569 
000002ae 6e743136202a 
000002b4 293078464643 
000002ba 313030434329 
000002c0 00 
000002c1 01             6273 	.byte	1
000002c2 8d19           6274 	.byte	141,25
000002c4 505052302028   6275 	.strz	"PPR0 (*(const volatile uint16 *)0xFFC10200)"
000002ca 2a28636f6e73 
000002d0 7420766f6c61 
000002d6 74696c652075 
000002dc 696e74313620 
000002e2 2a2930784646 
000002e8 433130323030 
000002ee 2900 
000002f0 01             6276 	.byte	1
000002f1 8e19           6277 	.byte	142,25
000002f3 505052312028   6278 	.strz	"PPR1 (*(const volatile uint16 *)0xFFC10204)"
000002f9 2a28636f6e73 
000002ff 7420766f6c61 
00000305 74696c652075 
0000030b 696e74313620 
00000311 2a2930784646 
00000317 433130323034 
0000031d 2900 
0000031f 01             6279 	.byte	1
00000320 8f19           6280 	.byte	143,25
00000322 505052322028   6281 	.strz	"PPR2 (*(const volatile uint16 *)0xFFC10208)"
00000328 2a28636f6e73 
0000032e 7420766f6c61 
00000334 74696c652075 
0000033a 696e74313620 
00000340 2a2930784646 
00000346 433130323038 
0000034c 2900 
0000034e 01             6282 	.byte	1
0000034f 9019           6283 	.byte	144,25
00000351 505052382028   6284 	.strz	"PPR8 (*(const volatile uint16 *)0xFFC10220)"
00000357 2a28636f6e73 
0000035d 7420766f6c61 
00000363 74696c652075 
00000369 696e74313620 
0000036f 2a2930784646 
00000375 433130323230 
0000037b 2900 
0000037d 01             6285 	.byte	1
0000037e 9119           6286 	.byte	145,25

                                                                      Page 115
                                                              C:\Users\NIKHIL~1.PAT\AppData\Local\Temp\gh_000aesk1.s
00000380 505052392028   6287 	.strz	"PPR9 (*(const volatile uint16 *)0xFFC10224)"
00000386 2a28636f6e73 
0000038c 7420766f6c61 
00000392 74696c652075 
00000398 696e74313620 
0000039e 2a2930784646 
000003a4 433130323234 
000003aa 2900 
000003ac 01             6288 	.byte	1
000003ad 9219           6289 	.byte	146,25
000003af 505052313020   6290 	.strz	"PPR10 (*(const volatile uint16 *)0xFFC10228)"
000003b5 282a28636f6e 
000003bb 737420766f6c 
000003c1 6174696c6520 
000003c7 75696e743136 
000003cd 202a29307846 
000003d3 464331303232 
000003d9 382900 
000003dc 01             6291 	.byte	1
000003dd 9319           6292 	.byte	147,25
000003df 505052313120   6293 	.strz	"PPR11 (*(const volatile uint16 *)0xFFC1022C)"
000003e5 282a28636f6e 
000003eb 737420766f6c 
000003f1 6174696c6520 
000003f7 75696e743136 
000003fd 202a29307846 
00000403 464331303232 
00000409 432900 
0000040c 01             6294 	.byte	1
0000040d 9419           6295 	.byte	148,25
0000040f 505052313220   6296 	.strz	"PPR12 (*(const volatile uint16 *)0xFFC10230)"
00000415 282a28636f6e 
0000041b 737420766f6c 
00000421 6174696c6520 
00000427 75696e743136 
0000042d 202a29307846 
00000433 464331303233 
00000439 302900 
0000043c 01             6297 	.byte	1
0000043d 9519           6298 	.byte	149,25
0000043f 505052313820   6299 	.strz	"PPR18 (*(const volatile uint16 *)0xFFC10248)"
00000445 282a28636f6e 
0000044b 737420766f6c 
00000451 6174696c6520 
00000457 75696e743136 
0000045d 202a29307846 
00000463 464331303234 
00000469 382900 
0000046c 01             6300 	.byte	1
0000046d 9619           6301 	.byte	150,25
0000046f 505052323020   6302 	.strz	"PPR20 (*(const volatile uint16 *)0xFFC10250)"
00000475 282a28636f6e 
0000047b 737420766f6c 
00000481 6174696c6520 
00000487 75696e743136 
0000048d 202a29307846 
00000493 464331303235 
00000499 302900 
0000049c 01             6303 	.byte	1
0000049d 9719           6304 	.byte	151,25
0000049f 415050523020   6305 	.strz	"APPR0 (*(const volatile uint16 *)0xFFC102C8)"

                                                                      Page 116
                                                              C:\Users\NIKHIL~1.PAT\AppData\Local\Temp\gh_000aesk1.s
000004a5 282a28636f6e 
000004ab 737420766f6c 
000004b1 6174696c6520 
000004b7 75696e743136 
000004bd 202a29307846 
000004c3 464331303243 
000004c9 382900 
000004cc 01             6306 	.byte	1
000004cd 9819           6307 	.byte	152,25
000004cf 415050523120   6308 	.strz	"APPR1 (*(const volatile uint16 *)0xFFC102CC)"
000004d5 282a28636f6e 
000004db 737420766f6c 
000004e1 6174696c6520 
000004e7 75696e743136 
000004ed 202a29307846 
000004f3 464331303243 
000004f9 432900 
000004fc 01             6309 	.byte	1
000004fd 9a19           6310 	.byte	154,25
000004ff 504d3020282a   6311 	.strz	"PM0 (*(volatile uint16 *)0xFFC10300)"
00000505 28766f6c6174 
0000050b 696c65207569 
00000511 6e743136202a 
00000517 293078464643 
0000051d 313033303029 
00000523 00 
00000524 01             6312 	.byte	1
00000525 9b19           6313 	.byte	155,25
00000527 504d3120282a   6314 	.strz	"PM1 (*(volatile uint16 *)0xFFC10304)"
0000052d 28766f6c6174 
00000533 696c65207569 
00000539 6e743136202a 
0000053f 293078464643 
00000545 313033303429 
0000054b 00 
0000054c 01             6315 	.byte	1
0000054d 9c19           6316 	.byte	156,25
0000054f 504d3220282a   6317 	.strz	"PM2 (*(volatile uint16 *)0xFFC10308)"
00000555 28766f6c6174 
0000055b 696c65207569 
00000561 6e743136202a 
00000567 293078464643 
0000056d 313033303829 
00000573 00 
00000574 01             6318 	.byte	1
00000575 9d19           6319 	.byte	157,25
00000577 504d3820282a   6320 	.strz	"PM8 (*(volatile uint16 *)0xFFC10320)"
0000057d 28766f6c6174 
00000583 696c65207569 
00000589 6e743136202a 
0000058f 293078464643 
00000595 313033323029 
0000059b 00 
0000059c 01             6321 	.byte	1
0000059d 9e19           6322 	.byte	158,25
0000059f 504d3920282a   6323 	.strz	"PM9 (*(volatile uint16 *)0xFFC10324)"
000005a5 28766f6c6174 
000005ab 696c65207569 
000005b1 6e743136202a 
000005b7 293078464643 
000005bd 313033323429 

                                                                      Page 117
                                                              C:\Users\NIKHIL~1.PAT\AppData\Local\Temp\gh_000aesk1.s
000005c3 00 
000005c4 01             6324 	.byte	1
000005c5 9f19           6325 	.byte	159,25
000005c7 504d31302028   6326 	.strz	"PM10 (*(volatile uint16 *)0xFFC10328)"
000005cd 2a28766f6c61 
000005d3 74696c652075 
000005d9 696e74313620 
000005df 2a2930784646 
000005e5 433130333238 
000005eb 2900 
000005ed 01             6327 	.byte	1
000005ee a019           6328 	.byte	160,25
000005f0 504d31312028   6329 	.strz	"PM11 (*(volatile uint16 *)0xFFC1032C)"
000005f6 2a28766f6c61 
000005fc 74696c652075 
00000602 696e74313620 
00000608 2a2930784646 
0000060e 433130333243 
00000614 2900 
00000616 01             6330 	.byte	1
00000617 a119           6331 	.byte	161,25
00000619 504d31322028   6332 	.strz	"PM12 (*(volatile uint16 *)0xFFC10330)"
0000061f 2a28766f6c61 
00000625 74696c652075 
0000062b 696e74313620 
00000631 2a2930784646 
00000637 433130333330 
0000063d 2900 
0000063f 01             6333 	.byte	1
00000640 a219           6334 	.byte	162,25
00000642 504d31382028   6335 	.strz	"PM18 (*(volatile uint16 *)0xFFC10348)"
00000648 2a28766f6c61 
0000064e 74696c652075 
00000654 696e74313620 
0000065a 2a2930784646 
00000660 433130333438 
00000666 2900 
00000668 01             6336 	.byte	1
00000669 a319           6337 	.byte	163,25
0000066b 504d32302028   6338 	.strz	"PM20 (*(volatile uint16 *)0xFFC10350)"
00000671 2a28766f6c61 
00000677 74696c652075 
0000067d 696e74313620 
00000683 2a2930784646 
00000689 433130333530 
0000068f 2900 
00000691 01             6339 	.byte	1
00000692 a419           6340 	.byte	164,25
00000694 41504d302028   6341 	.strz	"APM0 (*(volatile uint16 *)0xFFC103C8)"
0000069a 2a28766f6c61 
000006a0 74696c652075 
000006a6 696e74313620 
000006ac 2a2930784646 
000006b2 433130334338 
000006b8 2900 
000006ba 01             6342 	.byte	1
000006bb a519           6343 	.byte	165,25
000006bd 41504d312028   6344 	.strz	"APM1 (*(volatile uint16 *)0xFFC103CC)"
000006c3 2a28766f6c61 
000006c9 74696c652075 
000006cf 696e74313620 

                                                                      Page 118
                                                              C:\Users\NIKHIL~1.PAT\AppData\Local\Temp\gh_000aesk1.s
000006d5 2a2930784646 
000006db 433130334343 
000006e1 2900 
000006e3 01             6345 	.byte	1
000006e4 a619           6346 	.byte	166,25
000006e6 504d43302028   6347 	.strz	"PMC0 (*(volatile uint16 *)0xFFC10400)"
000006ec 2a28766f6c61 
000006f2 74696c652075 
000006f8 696e74313620 
000006fe 2a2930784646 
00000704 433130343030 
0000070a 2900 
0000070c 01             6348 	.byte	1
0000070d a719           6349 	.byte	167,25
0000070f 504d43312028   6350 	.strz	"PMC1 (*(volatile uint16 *)0xFFC10404)"
00000715 2a28766f6c61 
0000071b 74696c652075 
00000721 696e74313620 
00000727 2a2930784646 
0000072d 433130343034 
00000733 2900 
00000735 01             6351 	.byte	1
00000736 a819           6352 	.byte	168,25
00000738 504d43322028   6353 	.strz	"PMC2 (*(volatile uint16 *)0xFFC10408)"
0000073e 2a28766f6c61 
00000744 74696c652075 
0000074a 696e74313620 
00000750 2a2930784646 
00000756 433130343038 
0000075c 2900 
0000075e 01             6354 	.byte	1
0000075f a919           6355 	.byte	169,25
00000761 504d43382028   6356 	.strz	"PMC8 (*(volatile uint16 *)0xFFC10420)"
00000767 2a28766f6c61 
0000076d 74696c652075 
00000773 696e74313620 
00000779 2a2930784646 
0000077f 433130343230 
00000785 2900 
00000787 01             6357 	.byte	1
00000788 aa19           6358 	.byte	170,25
0000078a 504d43392028   6359 	.strz	"PMC9 (*(volatile uint16 *)0xFFC10424)"
00000790 2a28766f6c61 
00000796 74696c652075 
0000079c 696e74313620 
000007a2 2a2930784646 
000007a8 433130343234 
000007ae 2900 
000007b0 01             6360 	.byte	1
000007b1 ab19           6361 	.byte	171,25
000007b3 504d43313020   6362 	.strz	"PMC10 (*(volatile uint16 *)0xFFC10428)"
000007b9 282a28766f6c 
000007bf 6174696c6520 
000007c5 75696e743136 
000007cb 202a29307846 
000007d1 464331303432 
000007d7 382900 
000007da 01             6363 	.byte	1
000007db ac19           6364 	.byte	172,25
000007dd 504d43313120   6365 	.strz	"PMC11 (*(volatile uint16 *)0xFFC1042C)"
000007e3 282a28766f6c 

                                                                      Page 119
                                                              C:\Users\NIKHIL~1.PAT\AppData\Local\Temp\gh_000aesk1.s
000007e9 6174696c6520 
000007ef 75696e743136 
000007f5 202a29307846 
000007fb 464331303432 
00000801 432900 
00000804 01             6366 	.byte	1
00000805 ad19           6367 	.byte	173,25
00000807 504d43313220   6368 	.strz	"PMC12 (*(volatile uint16 *)0xFFC10430)"
0000080d 282a28766f6c 
00000813 6174696c6520 
00000819 75696e743136 
0000081f 202a29307846 
00000825 464331303433 
0000082b 302900 
0000082e 01             6369 	.byte	1
0000082f ae19           6370 	.byte	174,25
00000831 504d43313820   6371 	.strz	"PMC18 (*(volatile uint16 *)0xFFC10448)"
00000837 282a28766f6c 
0000083d 6174696c6520 
00000843 75696e743136 
00000849 202a29307846 
0000084f 464331303434 
00000855 382900 
00000858 01             6372 	.byte	1
00000859 af19           6373 	.byte	175,25
0000085b 504d43323020   6374 	.strz	"PMC20 (*(volatile uint16 *)0xFFC10450)"
00000861 282a28766f6c 
00000867 6174696c6520 
0000086d 75696e743136 
00000873 202a29307846 
00000879 464331303435 
0000087f 302900 
00000882 01             6375 	.byte	1
00000883 b019           6376 	.byte	176,25
00000885 504643302028   6377 	.strz	"PFC0 (*(volatile uint16 *)0xFFC10500)"
0000088b 2a28766f6c61 
00000891 74696c652075 
00000897 696e74313620 
0000089d 2a2930784646 
000008a3 433130353030 
000008a9 2900 
000008ab 01             6378 	.byte	1
000008ac b119           6379 	.byte	177,25
000008ae 504643312028   6380 	.strz	"PFC1 (*(volatile uint16 *)0xFFC10504)"
000008b4 2a28766f6c61 
000008ba 74696c652075 
000008c0 696e74313620 
000008c6 2a2930784646 
000008cc 433130353034 
000008d2 2900 
000008d4 01             6381 	.byte	1
000008d5 b219           6382 	.byte	178,25
000008d7 504643382028   6383 	.strz	"PFC8 (*(volatile uint16 *)0xFFC10520)"
000008dd 2a28766f6c61 
000008e3 74696c652075 
000008e9 696e74313620 
000008ef 2a2930784646 
000008f5 433130353230 
000008fb 2900 
000008fd 01             6384 	.byte	1
000008fe b319           6385 	.byte	179,25

                                                                      Page 120
                                                              C:\Users\NIKHIL~1.PAT\AppData\Local\Temp\gh_000aesk1.s
00000900 504643392028   6386 	.strz	"PFC9 (*(volatile uint16 *)0xFFC10524)"
00000906 2a28766f6c61 
0000090c 74696c652075 
00000912 696e74313620 
00000918 2a2930784646 
0000091e 433130353234 
00000924 2900 
00000926 01             6387 	.byte	1
00000927 b419           6388 	.byte	180,25
00000929 504643313020   6389 	.strz	"PFC10 (*(volatile uint16 *)0xFFC10528)"
0000092f 282a28766f6c 
00000935 6174696c6520 
0000093b 75696e743136 
00000941 202a29307846 
00000947 464331303532 
0000094d 382900 
00000950 01             6390 	.byte	1
00000951 b519           6391 	.byte	181,25
00000953 504643313120   6392 	.strz	"PFC11 (*(volatile uint16 *)0xFFC1052C)"
00000959 282a28766f6c 
0000095f 6174696c6520 
00000965 75696e743136 
0000096b 202a29307846 
00000971 464331303532 
00000977 432900 
0000097a 01             6393 	.byte	1
0000097b b619           6394 	.byte	182,25
0000097d 504643313220   6395 	.strz	"PFC12 (*(volatile uint16 *)0xFFC10530)"
00000983 282a28766f6c 
00000989 6174696c6520 
0000098f 75696e743136 
00000995 202a29307846 
0000099b 464331303533 
000009a1 302900 
000009a4 01             6396 	.byte	1
000009a5 b719           6397 	.byte	183,25
000009a7 504643313820   6398 	.strz	"PFC18 (*(volatile uint16 *)0xFFC10548)"
000009ad 282a28766f6c 
000009b3 6174696c6520 
000009b9 75696e743136 
000009bf 202a29307846 
000009c5 464331303534 
000009cb 382900 
000009ce 01             6399 	.byte	1
000009cf b819           6400 	.byte	184,25
000009d1 504643323020   6401 	.strz	"PFC20 (*(volatile uint16 *)0xFFC10550)"
000009d7 282a28766f6c 
000009dd 6174696c6520 
000009e3 75696e743136 
000009e9 202a29307846 
000009ef 464331303535 
000009f5 302900 
000009f8 01             6402 	.byte	1
000009f9 b919           6403 	.byte	185,25
000009fb 504643453020   6404 	.strz	"PFCE0 (*(volatile uint16 *)0xFFC10600)"
00000a01 282a28766f6c 
00000a07 6174696c6520 
00000a0d 75696e743136 
00000a13 202a29307846 
00000a19 464331303630 
00000a1f 302900 

                                                                      Page 121
                                                              C:\Users\NIKHIL~1.PAT\AppData\Local\Temp\gh_000aesk1.s
00000a22 01             6405 	.byte	1
00000a23 ba19           6406 	.byte	186,25
00000a25 504643453820   6407 	.strz	"PFCE8 (*(volatile uint16 *)0xFFC10620)"
00000a2b 282a28766f6c 
00000a31 6174696c6520 
00000a37 75696e743136 
00000a3d 202a29307846 
00000a43 464331303632 
00000a49 302900 
00000a4c 01             6408 	.byte	1
00000a4d bb19           6409 	.byte	187,25
00000a4f 504643453920   6410 	.strz	"PFCE9 (*(volatile uint16 *)0xFFC10624)"
00000a55 282a28766f6c 
00000a5b 6174696c6520 
00000a61 75696e743136 
00000a67 202a29307846 
00000a6d 464331303632 
00000a73 342900 
00000a76 01             6411 	.byte	1
00000a77 bc19           6412 	.byte	188,25
00000a79 504643453130   6413 	.strz	"PFCE10 (*(volatile uint16 *)0xFFC10628)"
00000a7f 20282a28766f 
00000a85 6c6174696c65 
00000a8b 2075696e7431 
00000a91 36202a293078 
00000a97 464643313036 
00000a9d 32382900 
00000aa1 01             6414 	.byte	1
00000aa2 bd19           6415 	.byte	189,25
00000aa4 504643453131   6416 	.strz	"PFCE11 (*(volatile uint16 *)0xFFC1062C)"
00000aaa 20282a28766f 
00000ab0 6c6174696c65 
00000ab6 2075696e7431 
00000abc 36202a293078 
00000ac2 464643313036 
00000ac8 32432900 
00000acc 01             6417 	.byte	1
00000acd be19           6418 	.byte	190,25
00000acf 504643453132   6419 	.strz	"PFCE12 (*(volatile uint16 *)0xFFC10630)"
00000ad5 20282a28766f 
00000adb 6c6174696c65 
00000ae1 2075696e7431 
00000ae7 36202a293078 
00000aed 464643313036 
00000af3 33302900 
00000af7 01             6420 	.byte	1
00000af8 bf19           6421 	.byte	191,25
00000afa 504e4f543020   6422 	.strz	"PNOT0 (*(volatile uint16 *)0xFFC10700)"
00000b00 282a28766f6c 
00000b06 6174696c6520 
00000b0c 75696e743136 
00000b12 202a29307846 
00000b18 464331303730 
00000b1e 302900 
00000b21 01             6423 	.byte	1
00000b22 c019           6424 	.byte	192,25
00000b24 504e4f543120   6425 	.strz	"PNOT1 (*(volatile uint16 *)0xFFC10704)"
00000b2a 282a28766f6c 
00000b30 6174696c6520 
00000b36 75696e743136 
00000b3c 202a29307846 

                                                                      Page 122
                                                              C:\Users\NIKHIL~1.PAT\AppData\Local\Temp\gh_000aesk1.s
00000b42 464331303730 
00000b48 342900 
00000b4b 01             6426 	.byte	1
00000b4c c119           6427 	.byte	193,25
00000b4e 504e4f543220   6428 	.strz	"PNOT2 (*(volatile uint16 *)0xFFC10708)"
00000b54 282a28766f6c 
00000b5a 6174696c6520 
00000b60 75696e743136 
00000b66 202a29307846 
00000b6c 464331303730 
00000b72 382900 
00000b75 01             6429 	.byte	1
00000b76 c219           6430 	.byte	194,25
00000b78 504e4f543820   6431 	.strz	"PNOT8 (*(volatile uint16 *)0xFFC10720)"
00000b7e 282a28766f6c 
00000b84 6174696c6520 
00000b8a 75696e743136 
00000b90 202a29307846 
00000b96 464331303732 
00000b9c 302900 
00000b9f 01             6432 	.byte	1
00000ba0 c319           6433 	.byte	195,25
00000ba2 504e4f543920   6434 	.strz	"PNOT9 (*(volatile uint16 *)0xFFC10724)"
00000ba8 282a28766f6c 
00000bae 6174696c6520 
00000bb4 75696e743136 
00000bba 202a29307846 
00000bc0 464331303732 
00000bc6 342900 
00000bc9 01             6435 	.byte	1
00000bca c419           6436 	.byte	196,25
00000bcc 504e4f543130   6437 	.strz	"PNOT10 (*(volatile uint16 *)0xFFC10728)"
00000bd2 20282a28766f 
00000bd8 6c6174696c65 
00000bde 2075696e7431 
00000be4 36202a293078 
00000bea 464643313037 
00000bf0 32382900 
00000bf4 01             6438 	.byte	1
00000bf5 c519           6439 	.byte	197,25
00000bf7 504e4f543131   6440 	.strz	"PNOT11 (*(volatile uint16 *)0xFFC1072C)"
00000bfd 20282a28766f 
00000c03 6c6174696c65 
00000c09 2075696e7431 
00000c0f 36202a293078 
00000c15 464643313037 
00000c1b 32432900 
00000c1f 01             6441 	.byte	1
00000c20 c619           6442 	.byte	198,25
00000c22 504e4f543132   6443 	.strz	"PNOT12 (*(volatile uint16 *)0xFFC10730)"
00000c28 20282a28766f 
00000c2e 6c6174696c65 
00000c34 2075696e7431 
00000c3a 36202a293078 
00000c40 464643313037 
00000c46 33302900 
00000c4a 01             6444 	.byte	1
00000c4b c719           6445 	.byte	199,25
00000c4d 504e4f543138   6446 	.strz	"PNOT18 (*(volatile uint16 *)0xFFC10748)"
00000c53 20282a28766f 
00000c59 6c6174696c65 

                                                                      Page 123
                                                              C:\Users\NIKHIL~1.PAT\AppData\Local\Temp\gh_000aesk1.s
00000c5f 2075696e7431 
00000c65 36202a293078 
00000c6b 464643313037 
00000c71 34382900 
00000c75 01             6447 	.byte	1
00000c76 c819           6448 	.byte	200,25
00000c78 504e4f543230   6449 	.strz	"PNOT20 (*(volatile uint16 *)0xFFC10750)"
00000c7e 20282a28766f 
00000c84 6c6174696c65 
00000c8a 2075696e7431 
00000c90 36202a293078 
00000c96 464643313037 
00000c9c 35302900 
00000ca0 01             6450 	.byte	1
00000ca1 c919           6451 	.byte	201,25
00000ca3 41504e4f5430   6452 	.strz	"APNOT0 (*(volatile uint16 *)0xFFC107C8)"
00000ca9 20282a28766f 
00000caf 6c6174696c65 
00000cb5 2075696e7431 
00000cbb 36202a293078 
00000cc1 464643313037 
00000cc7 43382900 
00000ccb 01             6453 	.byte	1
00000ccc ca19           6454 	.byte	202,25
00000cce 41504e4f5431   6455 	.strz	"APNOT1 (*(volatile uint16 *)0xFFC107CC)"
00000cd4 20282a28766f 
00000cda 6c6174696c65 
00000ce0 2075696e7431 
00000ce6 36202a293078 
00000cec 464643313037 
00000cf2 43432900 
00000cf6 01             6456 	.byte	1
00000cf7 e119           6457 	.byte	225,25
00000cf9 504643414530   6458 	.strz	"PFCAE0 (*(volatile uint16 *)0xFFC10A00)"
00000cff 20282a28766f 
00000d05 6c6174696c65 
00000d0b 2075696e7431 
00000d11 36202a293078 
00000d17 464643313041 
00000d1d 30302900 
00000d21 01             6459 	.byte	1
00000d22 e219           6460 	.byte	226,25
00000d24 504643414531   6461 	.strz	"PFCAE10 (*(volatile uint16 *)0xFFC10A28)"
00000d2a 3020282a2876 
00000d30 6f6c6174696c 
00000d36 652075696e74 
00000d3c 3136202a2930 
00000d42 784646433130 
00000d48 4132382900 
00000d4d 01             6462 	.byte	1
00000d4e e319           6463 	.byte	227,25
00000d50 504643414531   6464 	.strz	"PFCAE11 (*(volatile uint16 *)0xFFC10A2C)"
00000d56 3120282a2876 
00000d5c 6f6c6174696c 
00000d62 652075696e74 
00000d68 3136202a2930 
00000d6e 784646433130 
00000d74 4132432900 
00000d79 01             6465 	.byte	1
00000d7a e419           6466 	.byte	228,25
00000d7c 504942433020   6467 	.strz	"PIBC0 (*(volatile uint16 *)0xFFC14000)"

                                                                      Page 124
                                                              C:\Users\NIKHIL~1.PAT\AppData\Local\Temp\gh_000aesk1.s
00000d82 282a28766f6c 
00000d88 6174696c6520 
00000d8e 75696e743136 
00000d94 202a29307846 
00000d9a 464331343030 
00000da0 302900 
00000da3 01             6468 	.byte	1
00000da4 e519           6469 	.byte	229,25
00000da6 504942433120   6470 	.strz	"PIBC1 (*(volatile uint16 *)0xFFC14004)"
00000dac 282a28766f6c 
00000db2 6174696c6520 
00000db8 75696e743136 
00000dbe 202a29307846 
00000dc4 464331343030 
00000dca 342900 
00000dcd 01             6471 	.byte	1
00000dce e619           6472 	.byte	230,25
00000dd0 504942433220   6473 	.strz	"PIBC2 (*(volatile uint16 *)0xFFC14008)"
00000dd6 282a28766f6c 
00000ddc 6174696c6520 
00000de2 75696e743136 
00000de8 202a29307846 
00000dee 464331343030 
00000df4 382900 
00000df7 01             6474 	.byte	1
00000df8 e719           6475 	.byte	231,25
00000dfa 504942433820   6476 	.strz	"PIBC8 (*(volatile uint16 *)0xFFC14020)"
00000e00 282a28766f6c 
00000e06 6174696c6520 
00000e0c 75696e743136 
00000e12 202a29307846 
00000e18 464331343032 
00000e1e 302900 
00000e21 01             6477 	.byte	1
00000e22 e819           6478 	.byte	232,25
00000e24 504942433920   6479 	.strz	"PIBC9 (*(volatile uint16 *)0xFFC14024)"
00000e2a 282a28766f6c 
00000e30 6174696c6520 
00000e36 75696e743136 
00000e3c 202a29307846 
00000e42 464331343032 
00000e48 342900 
00000e4b 01             6480 	.byte	1
00000e4c e919           6481 	.byte	233,25
00000e4e 504942433130   6482 	.strz	"PIBC10 (*(volatile uint16 *)0xFFC14028)"
00000e54 20282a28766f 
00000e5a 6c6174696c65 
00000e60 2075696e7431 
00000e66 36202a293078 
00000e6c 464643313430 
00000e72 32382900 
00000e76 01             6483 	.byte	1
00000e77 ea19           6484 	.byte	234,25
00000e79 504942433131   6485 	.strz	"PIBC11 (*(volatile uint16 *)0xFFC1402C)"
00000e7f 20282a28766f 
00000e85 6c6174696c65 
00000e8b 2075696e7431 
00000e91 36202a293078 
00000e97 464643313430 
00000e9d 32432900 
00000ea1 01             6486 	.byte	1

                                                                      Page 125
                                                              C:\Users\NIKHIL~1.PAT\AppData\Local\Temp\gh_000aesk1.s
00000ea2 eb19           6487 	.byte	235,25
00000ea4 504942433132   6488 	.strz	"PIBC12 (*(volatile uint16 *)0xFFC14030)"
00000eaa 20282a28766f 
00000eb0 6c6174696c65 
00000eb6 2075696e7431 
00000ebc 36202a293078 
00000ec2 464643313430 
00000ec8 33302900 
00000ecc 01             6489 	.byte	1
00000ecd ec19           6490 	.byte	236,25
00000ecf 504942433138   6491 	.strz	"PIBC18 (*(volatile uint16 *)0xFFC14048)"
00000ed5 20282a28766f 
00000edb 6c6174696c65 
00000ee1 2075696e7431 
00000ee7 36202a293078 
00000eed 464643313430 
00000ef3 34382900 
00000ef7 01             6492 	.byte	1
00000ef8 ed19           6493 	.byte	237,25
00000efa 504942433230   6494 	.strz	"PIBC20 (*(volatile uint16 *)0xFFC14050)"
00000f00 20282a28766f 
00000f06 6c6174696c65 
00000f0c 2075696e7431 
00000f12 36202a293078 
00000f18 464643313430 
00000f1e 35302900 
00000f22 01             6495 	.byte	1
00000f23 ee19           6496 	.byte	238,25
00000f25 415049424330   6497 	.strz	"APIBC0 (*(volatile uint16 *)0xFFC140C8)"
00000f2b 20282a28766f 
00000f31 6c6174696c65 
00000f37 2075696e7431 
00000f3d 36202a293078 
00000f43 464643313430 
00000f49 43382900 
00000f4d 01             6498 	.byte	1
00000f4e ef19           6499 	.byte	239,25
00000f50 415049424331   6500 	.strz	"APIBC1 (*(volatile uint16 *)0xFFC140CC)"
00000f56 20282a28766f 
00000f5c 6c6174696c65 
00000f62 2075696e7431 
00000f68 36202a293078 
00000f6e 464643313430 
00000f74 43432900 
00000f78 01             6501 	.byte	1
00000f79 fd19           6502 	.byte	253,25
00000f7b 504950433020   6503 	.strz	"PIPC0 (*(volatile uint16 *)0xFFC14200)"
00000f81 282a28766f6c 
00000f87 6174696c6520 
00000f8d 75696e743136 
00000f93 202a29307846 
00000f99 464331343230 
00000f9f 302900 
00000fa2 01             6504 	.byte	1
00000fa3 fe19           6505 	.byte	254,25
00000fa5 504950433130   6506 	.strz	"PIPC10 (*(volatile uint16 *)0xFFC14228)"
00000fab 20282a28766f 
00000fb1 6c6174696c65 
00000fb7 2075696e7431 
00000fbd 36202a293078 
00000fc3 464643313432 

                                                                      Page 126
                                                              C:\Users\NIKHIL~1.PAT\AppData\Local\Temp\gh_000aesk1.s
00000fc9 32382900 
00000fcd 01             6507 	.byte	1
00000fce ff19           6508 	.byte	255,25
00000fd0 504950433131   6509 	.strz	"PIPC11 (*(volatile uint16 *)0xFFC1422C)"
00000fd6 20282a28766f 
00000fdc 6c6174696c65 
00000fe2 2075696e7431 
00000fe8 36202a293078 
00000fee 464643313432 
00000ff4 32432900 
00000ff8 01             6510 	.byte	1
00000ff9 801a           6511 	.byte	128,26
00000ffb 50553020282a   6512 	.strz	"PU0 (*(volatile uint16 *)0xFFC14300)"
00001001 28766f6c6174 
00001007 696c65207569 
0000100d 6e743136202a 
00001013 293078464643 
00001019 313433303029 
0000101f 00 
00001020 01             6513 	.byte	1
00001021 811a           6514 	.byte	129,26
00001023 50553120282a   6515 	.strz	"PU1 (*(volatile uint16 *)0xFFC14304)"
00001029 28766f6c6174 
0000102f 696c65207569 
00001035 6e743136202a 
0000103b 293078464643 
00001041 313433303429 
00001047 00 
00001048 01             6516 	.byte	1
00001049 821a           6517 	.byte	130,26
0000104b 50553220282a   6518 	.strz	"PU2 (*(volatile uint16 *)0xFFC14308)"
00001051 28766f6c6174 
00001057 696c65207569 
0000105d 6e743136202a 
00001063 293078464643 
00001069 313433303829 
0000106f 00 
00001070 01             6519 	.byte	1
00001071 831a           6520 	.byte	131,26
00001073 50553820282a   6521 	.strz	"PU8 (*(volatile uint16 *)0xFFC14320)"
00001079 28766f6c6174 
0000107f 696c65207569 
00001085 6e743136202a 
0000108b 293078464643 
00001091 313433323029 
00001097 00 
00001098 01             6522 	.byte	1
00001099 841a           6523 	.byte	132,26
0000109b 50553920282a   6524 	.strz	"PU9 (*(volatile uint16 *)0xFFC14324)"
000010a1 28766f6c6174 
000010a7 696c65207569 
000010ad 6e743136202a 
000010b3 293078464643 
000010b9 313433323429 
000010bf 00 
000010c0 01             6525 	.byte	1
000010c1 851a           6526 	.byte	133,26
000010c3 505531302028   6527 	.strz	"PU10 (*(volatile uint16 *)0xFFC14328)"
000010c9 2a28766f6c61 
000010cf 74696c652075 
000010d5 696e74313620 

                                                                      Page 127
                                                              C:\Users\NIKHIL~1.PAT\AppData\Local\Temp\gh_000aesk1.s
000010db 2a2930784646 
000010e1 433134333238 
000010e7 2900 
000010e9 01             6528 	.byte	1
000010ea 861a           6529 	.byte	134,26
000010ec 505531312028   6530 	.strz	"PU11 (*(volatile uint16 *)0xFFC1432C)"
000010f2 2a28766f6c61 
000010f8 74696c652075 
000010fe 696e74313620 
00001104 2a2930784646 
0000110a 433134333243 
00001110 2900 
00001112 01             6531 	.byte	1
00001113 871a           6532 	.byte	135,26
00001115 505531322028   6533 	.strz	"PU12 (*(volatile uint16 *)0xFFC14330)"
0000111b 2a28766f6c61 
00001121 74696c652075 
00001127 696e74313620 
0000112d 2a2930784646 
00001133 433134333330 
00001139 2900 
0000113b 01             6534 	.byte	1
0000113c 881a           6535 	.byte	136,26
0000113e 505531382028   6536 	.strz	"PU18 (*(volatile uint16 *)0xFFC14348)"
00001144 2a28766f6c61 
0000114a 74696c652075 
00001150 696e74313620 
00001156 2a2930784646 
0000115c 433134333438 
00001162 2900 
00001164 01             6537 	.byte	1
00001165 891a           6538 	.byte	137,26
00001167 505532302028   6539 	.strz	"PU20 (*(volatile uint16 *)0xFFC14350)"
0000116d 2a28766f6c61 
00001173 74696c652075 
00001179 696e74313620 
0000117f 2a2930784646 
00001185 433134333530 
0000118b 2900 
0000118d 01             6540 	.byte	1
0000118e 8a1a           6541 	.byte	138,26
00001190 50443020282a   6542 	.strz	"PD0 (*(volatile uint16 *)0xFFC14400)"
00001196 28766f6c6174 
0000119c 696c65207569 
000011a2 6e743136202a 
000011a8 293078464643 
000011ae 313434303029 
000011b4 00 
000011b5 01             6543 	.byte	1
000011b6 8b1a           6544 	.byte	139,26
000011b8 50443820282a   6545 	.strz	"PD8 (*(volatile uint16 *)0xFFC14420)"
000011be 28766f6c6174 
000011c4 696c65207569 
000011ca 6e743136202a 
000011d0 293078464643 
000011d6 313434323029 
000011dc 00 
000011dd 01             6546 	.byte	1
000011de 8c1a           6547 	.byte	140,26
000011e0 50443920282a   6548 	.strz	"PD9 (*(volatile uint16 *)0xFFC14424)"
000011e6 28766f6c6174 

                                                                      Page 128
                                                              C:\Users\NIKHIL~1.PAT\AppData\Local\Temp\gh_000aesk1.s
000011ec 696c65207569 
000011f2 6e743136202a 
000011f8 293078464643 
000011fe 313434323429 
00001204 00 
00001205 01             6549 	.byte	1
00001206 8d1a           6550 	.byte	141,26
00001208 504431302028   6551 	.strz	"PD10 (*(volatile uint16 *)0xFFC14428)"
0000120e 2a28766f6c61 
00001214 74696c652075 
0000121a 696e74313620 
00001220 2a2930784646 
00001226 433134343238 
0000122c 2900 
0000122e 01             6552 	.byte	1
0000122f 8e1a           6553 	.byte	142,26
00001231 504431312028   6554 	.strz	"PD11 (*(volatile uint16 *)0xFFC1442C)"
00001237 2a28766f6c61 
0000123d 74696c652075 
00001243 696e74313620 
00001249 2a2930784646 
0000124f 433134343243 
00001255 2900 
00001257 01             6555 	.byte	1
00001258 8f1a           6556 	.byte	143,26
0000125a 504f44433020   6557 	.strz	"PODC0 (*(volatile uint32 *)0xFFC14500)"
00001260 282a28766f6c 
00001266 6174696c6520 
0000126c 75696e743332 
00001272 202a29307846 
00001278 464331343530 
0000127e 302900 
00001281 01             6558 	.byte	1
00001282 901a           6559 	.byte	144,26
00001284 504f44433120   6560 	.strz	"PODC1 (*(volatile uint32 *)0xFFC14504)"
0000128a 282a28766f6c 
00001290 6174696c6520 
00001296 75696e743332 
0000129c 202a29307846 
000012a2 464331343530 
000012a8 342900 
000012ab 01             6561 	.byte	1
000012ac 911a           6562 	.byte	145,26
000012ae 504f44433220   6563 	.strz	"PODC2 (*(volatile uint32 *)0xFFC14508)"
000012b4 282a28766f6c 
000012ba 6174696c6520 
000012c0 75696e743332 
000012c6 202a29307846 
000012cc 464331343530 
000012d2 382900 
000012d5 01             6564 	.byte	1
000012d6 921a           6565 	.byte	146,26
000012d8 504f44433820   6566 	.strz	"PODC8 (*(volatile uint32 *)0xFFC14520)"
000012de 282a28766f6c 
000012e4 6174696c6520 
000012ea 75696e743332 
000012f0 202a29307846 
000012f6 464331343532 
000012fc 302900 
000012ff 01             6567 	.byte	1
00001300 931a           6568 	.byte	147,26

                                                                      Page 129
                                                              C:\Users\NIKHIL~1.PAT\AppData\Local\Temp\gh_000aesk1.s
00001302 504f44433920   6569 	.strz	"PODC9 (*(volatile uint32 *)0xFFC14524)"
00001308 282a28766f6c 
0000130e 6174696c6520 
00001314 75696e743332 
0000131a 202a29307846 
00001320 464331343532 
00001326 342900 
00001329 01             6570 	.byte	1
0000132a 941a           6571 	.byte	148,26
0000132c 504f44433130   6572 	.strz	"PODC10 (*(volatile uint32 *)0xFFC14528)"
00001332 20282a28766f 
00001338 6c6174696c65 
0000133e 2075696e7433 
00001344 32202a293078 
0000134a 464643313435 
00001350 32382900 
00001354 01             6573 	.byte	1
00001355 951a           6574 	.byte	149,26
00001357 504f44433131   6575 	.strz	"PODC11 (*(volatile uint32 *)0xFFC1452C)"
0000135d 20282a28766f 
00001363 6c6174696c65 
00001369 2075696e7433 
0000136f 32202a293078 
00001375 464643313435 
0000137b 32432900 
0000137f 01             6576 	.byte	1
00001380 961a           6577 	.byte	150,26
00001382 504f44433132   6578 	.strz	"PODC12 (*(volatile uint32 *)0xFFC14530)"
00001388 20282a28766f 
0000138e 6c6174696c65 
00001394 2075696e7433 
0000139a 32202a293078 
000013a0 464643313435 
000013a6 33302900 
000013aa 01             6579 	.byte	1
000013ab 971a           6580 	.byte	151,26
000013ad 504f44433138   6581 	.strz	"PODC18 (*(volatile uint32 *)0xFFC14548)"
000013b3 20282a28766f 
000013b9 6c6174696c65 
000013bf 2075696e7433 
000013c5 32202a293078 
000013cb 464643313435 
000013d1 34382900 
000013d5 01             6582 	.byte	1
000013d6 981a           6583 	.byte	152,26
000013d8 504f44433230   6584 	.strz	"PODC20 (*(volatile uint32 *)0xFFC14550)"
000013de 20282a28766f 
000013e4 6c6174696c65 
000013ea 2075696e7433 
000013f0 32202a293078 
000013f6 464643313435 
000013fc 35302900 
00001400 04             6585 	.byte	4
00001401 03             6586 	.byte	3
00001402 35             6587 	.byte	53
00001403 04             6588 	.byte	4
00001404 01             6589 	.byte	1
00001405 3c             6590 	.byte	60
00001406 5f5f4841535f   6591 	.strz	"__HAS_FPU__ "
0000140c 4650555f5f20 
00001412 00 

                                                                      Page 130
                                                              C:\Users\NIKHIL~1.PAT\AppData\Local\Temp\gh_000aesk1.s
00001413 04             6592 	.byte	4
00001414 03             6593 	.byte	3
00001415 36             6594 	.byte	54
00001416 05             6595 	.byte	5
00001417 01             6596 	.byte	1
00001418 37             6597 	.byte	55
00001419 5f494e4c494e   6598 	.strz	"_INLINE_ __inline"
0000141f 455f205f5f69 
00001425 6e6c696e6500 
0000142b 03             6599 	.byte	3
0000142c 3f             6600 	.byte	63
0000142d 06             6601 	.byte	6
0000142e 01             6602 	.byte	1
0000142f 0f             6603 	.byte	15
00001430 5f5f41545452   6604 	.strz	"__ATTRIBUTE(x) __attribute__(x)"
00001436 494255544528 
0000143c 7829205f5f61 
00001442 747472696275 
00001448 74655f5f2878 
0000144e 2900 
00001450 01             6605 	.byte	1
00001451 9101           6606 	.byte	145,1
00001453 5f5f47455453   6607 	.strz	"__GETSP_macro() asm (\"mov sp, %0\" : \"=r\" (result));"
00001459 505f6d616372 
0000145f 6f2829206173 
00001465 6d2028226d6f 
0000146b 762073702c20 
00001471 253022203a20 
00001477 223d72222028 
0000147d 726573756c74 
00001483 29293b00 
00001487 04             6608 	.byte	4
00001488 01             6609 	.byte	1
00001489 46             6610 	.byte	70
0000148a 7533325f5420   6611 	.strz	"u32_T unsigned long"
00001490 756e7369676e 
00001496 6564206c6f6e 
0000149c 6700 
0000149e 01             6612 	.byte	1
0000149f 8803           6613 	.byte	136,3
000014a1 50535720352c   6614 	.strz	"PSW 5, 0"
000014a7 203000 
000014aa 01             6615 	.byte	1
000014ab 9203           6616 	.byte	146,3
000014ad 4d4346473020   6617 	.strz	"MCFG0 0, 1"
000014b3 302c203100 
000014b8 01             6618 	.byte	1
000014b9 9403           6619 	.byte	148,3
000014bb 454241534520   6620 	.strz	"EBASE 3, 1"
000014c1 332c203100 
000014c6 01             6621 	.byte	1
000014c7 9503           6622 	.byte	149,3
000014c9 494e54425020   6623 	.strz	"INTBP 4, 1"
000014cf 342c203100 
000014d4 01             6624 	.byte	1
000014d5 9603           6625 	.byte	150,3
000014d7 4d43544c2035   6626 	.strz	"MCTL 5, 1"
000014dd 2c203100 
000014e1 01             6627 	.byte	1
000014e2 9703           6628 	.byte	151,3
000014e4 50494420362c   6629 	.strz	"PID 6, 1"

                                                                      Page 131
                                                              C:\Users\NIKHIL~1.PAT\AppData\Local\Temp\gh_000aesk1.s
000014ea 203100 
000014ed 01             6630 	.byte	1
000014ee 9803           6631 	.byte	152,3
000014f0 534343464720   6632 	.strz	"SCCFG 11, 1"
000014f6 31312c203100 
000014fc 01             6633 	.byte	1
000014fd 9d03           6634 	.byte	157,3
000014ff 415349442037   6635 	.strz	"ASID 7, 2"
00001505 2c203200 
00001509 01             6636 	.byte	1
0000150a 9f03           6637 	.byte	159,3
0000150c 495350522031   6638 	.strz	"ISPR 10, 2"
00001512 302c203200 
00001517 01             6639 	.byte	1
00001518 a003           6640 	.byte	160,3
0000151a 504d52203131   6641 	.strz	"PMR 11, 2"
00001520 2c203200 
00001524 01             6642 	.byte	1
00001525 a103           6643 	.byte	161,3
00001527 494353522031   6644 	.strz	"ICSR 12, 2"
0000152d 322c203200 
00001532 01             6645 	.byte	1
00001533 a203           6646 	.byte	162,3
00001535 494e54434647   6647 	.strz	"INTCFG 13, 2"
0000153b 2031332c2032 
00001541 00 
00001542 01             6648 	.byte	1
00001543 a403           6649 	.byte	164,3
00001545 4d504d20302c   6650 	.strz	"MPM 0, 5"
0000154b 203500 
0000154e 01             6651 	.byte	1
0000154f a503           6652 	.byte	165,3
00001551 4d5052432031   6653 	.strz	"MPRC 1, 5"
00001557 2c203500 
0000155b 01             6654 	.byte	1
0000155c a603           6655 	.byte	166,3
0000155e 4d504252474e   6656 	.strz	"MPBRGN 4, 5"
00001564 20342c203500 
0000156a 01             6657 	.byte	1
0000156b a703           6658 	.byte	167,3
0000156d 4d505452474e   6659 	.strz	"MPTRGN 5, 5"
00001573 20352c203500 
00001579 01             6660 	.byte	1
0000157a a803           6661 	.byte	168,3
0000157c 4d434120382c   6662 	.strz	"MCA 8, 5"
00001582 203500 
00001585 01             6663 	.byte	1
00001586 a903           6664 	.byte	169,3
00001588 4d435320392c   6665 	.strz	"MCS 9, 5"
0000158e 203500 
00001591 01             6666 	.byte	1
00001592 aa03           6667 	.byte	170,3
00001594 4d4343203130   6668 	.strz	"MCC 10, 5"
0000159a 2c203500 
0000159e 01             6669 	.byte	1
0000159f ab03           6670 	.byte	171,3
000015a1 4d4352203131   6671 	.strz	"MCR 11, 5"
000015a7 2c203500 
000015ab 01             6672 	.byte	1
000015ac ad03           6673 	.byte	173,3
000015ae 4d504c413020   6674 	.strz	"MPLA0 0, 6"

                                                                      Page 132
                                                              C:\Users\NIKHIL~1.PAT\AppData\Local\Temp\gh_000aesk1.s
000015b4 302c203600 
000015b9 01             6675 	.byte	1
000015ba ae03           6676 	.byte	174,3
000015bc 4d5055413020   6677 	.strz	"MPUA0 1, 6"
000015c2 312c203600 
000015c7 01             6678 	.byte	1
000015c8 af03           6679 	.byte	175,3
000015ca 4d5041543020   6680 	.strz	"MPAT0 2, 6"
000015d0 322c203600 
000015d5 01             6681 	.byte	1
000015d6 b003           6682 	.byte	176,3
000015d8 4d504c413120   6683 	.strz	"MPLA1 4, 6"
000015de 342c203600 
000015e3 01             6684 	.byte	1
000015e4 b103           6685 	.byte	177,3
000015e6 4d5055413120   6686 	.strz	"MPUA1 5, 6"
000015ec 352c203600 
000015f1 01             6687 	.byte	1
000015f2 b203           6688 	.byte	178,3
000015f4 4d5041543120   6689 	.strz	"MPAT1 6, 6"
000015fa 362c203600 
000015ff 01             6690 	.byte	1
00001600 b303           6691 	.byte	179,3
00001602 4d504c413220   6692 	.strz	"MPLA2 8, 6"
00001608 382c203600 
0000160d 01             6693 	.byte	1
0000160e b403           6694 	.byte	180,3
00001610 4d5055413220   6695 	.strz	"MPUA2 9, 6"
00001616 392c203600 
0000161b 01             6696 	.byte	1
0000161c b503           6697 	.byte	181,3
0000161e 4d5041543220   6698 	.strz	"MPAT2 10, 6"
00001624 31302c203600 
0000162a 01             6699 	.byte	1
0000162b b603           6700 	.byte	182,3
0000162d 4d504c413320   6701 	.strz	"MPLA3 12, 6"
00001633 31322c203600 
00001639 01             6702 	.byte	1
0000163a b703           6703 	.byte	183,3
0000163c 4d5055413320   6704 	.strz	"MPUA3 13, 6"
00001642 31332c203600 
00001648 01             6705 	.byte	1
00001649 b803           6706 	.byte	184,3
0000164b 4d5041543320   6707 	.strz	"MPAT3 14, 6"
00001651 31342c203600 
00001657 01             6708 	.byte	1
00001658 b903           6709 	.byte	185,3
0000165a 4d504c413420   6710 	.strz	"MPLA4 16, 6"
00001660 31362c203600 
00001666 01             6711 	.byte	1
00001667 ba03           6712 	.byte	186,3
00001669 4d5055413420   6713 	.strz	"MPUA4 17, 6"
0000166f 31372c203600 
00001675 01             6714 	.byte	1
00001676 bb03           6715 	.byte	187,3
00001678 4d5041543420   6716 	.strz	"MPAT4 18, 6"
0000167e 31382c203600 
00001684 01             6717 	.byte	1
00001685 bc03           6718 	.byte	188,3
00001687 4d504c413520   6719 	.strz	"MPLA5 20, 6"
0000168d 32302c203600 

                                                                      Page 133
                                                              C:\Users\NIKHIL~1.PAT\AppData\Local\Temp\gh_000aesk1.s
00001693 01             6720 	.byte	1
00001694 bd03           6721 	.byte	189,3
00001696 4d5055413520   6722 	.strz	"MPUA5 21, 6"
0000169c 32312c203600 
000016a2 01             6723 	.byte	1
000016a3 be03           6724 	.byte	190,3
000016a5 4d5041543520   6725 	.strz	"MPAT5 22, 6"
000016ab 32322c203600 
000016b1 01             6726 	.byte	1
000016b2 bf03           6727 	.byte	191,3
000016b4 4d504c413620   6728 	.strz	"MPLA6 24, 6"
000016ba 32342c203600 
000016c0 01             6729 	.byte	1
000016c1 c003           6730 	.byte	192,3
000016c3 4d5055413620   6731 	.strz	"MPUA6 25, 6"
000016c9 32352c203600 
000016cf 01             6732 	.byte	1
000016d0 c103           6733 	.byte	193,3
000016d2 4d5041543620   6734 	.strz	"MPAT6 26, 6"
000016d8 32362c203600 
000016de 01             6735 	.byte	1
000016df c203           6736 	.byte	194,3
000016e1 4d4c55413720   6737 	.strz	"MLUA7 28, 6"
000016e7 32382c203600 
000016ed 01             6738 	.byte	1
000016ee c303           6739 	.byte	195,3
000016f0 4d5055413720   6740 	.strz	"MPUA7 29, 6"
000016f6 32392c203600 
000016fc 01             6741 	.byte	1
000016fd c403           6742 	.byte	196,3
000016ff 4d5041543720   6743 	.strz	"MPAT7 30, 6"
00001705 33302c203600 
0000170b 01             6744 	.byte	1
0000170c c503           6745 	.byte	197,3
0000170e 4d504c413820   6746 	.strz	"MPLA8 0, 7"
00001714 302c203700 
00001719 01             6747 	.byte	1
0000171a c603           6748 	.byte	198,3
0000171c 4d5055413820   6749 	.strz	"MPUA8 1, 7"
00001722 312c203700 
00001727 01             6750 	.byte	1
00001728 c703           6751 	.byte	199,3
0000172a 4d5041543820   6752 	.strz	"MPAT8 2, 7"
00001730 322c203700 
00001735 01             6753 	.byte	1
00001736 c803           6754 	.byte	200,3
00001738 4d504c413920   6755 	.strz	"MPLA9 4, 7"
0000173e 342c203700 
00001743 01             6756 	.byte	1
00001744 c903           6757 	.byte	201,3
00001746 4d5055413920   6758 	.strz	"MPUA9 5, 7"
0000174c 352c203700 
00001751 01             6759 	.byte	1
00001752 ca03           6760 	.byte	202,3
00001754 4d5041543920   6761 	.strz	"MPAT9 6, 7"
0000175a 362c203700 
0000175f 01             6762 	.byte	1
00001760 cb03           6763 	.byte	203,3
00001762 4d504c413130   6764 	.strz	"MPLA10 8, 7"
00001768 20382c203700 
0000176e 01             6765 	.byte	1

                                                                      Page 134
                                                              C:\Users\NIKHIL~1.PAT\AppData\Local\Temp\gh_000aesk1.s
0000176f cc03           6766 	.byte	204,3
00001771 4d5055413130   6767 	.strz	"MPUA10 9, 7"
00001777 20392c203700 
0000177d 01             6768 	.byte	1
0000177e cd03           6769 	.byte	205,3
00001780 4d5041543130   6770 	.strz	"MPAT10 10, 7"
00001786 2031302c2037 
0000178c 00 
0000178d 01             6771 	.byte	1
0000178e ce03           6772 	.byte	206,3
00001790 4d504c413131   6773 	.strz	"MPLA11 12, 7"
00001796 2031322c2037 
0000179c 00 
0000179d 01             6774 	.byte	1
0000179e cf03           6775 	.byte	207,3
000017a0 4d5055413131   6776 	.strz	"MPUA11 13, 7"
000017a6 2031332c2037 
000017ac 00 
000017ad 01             6777 	.byte	1
000017ae d003           6778 	.byte	208,3
000017b0 4d5041543131   6779 	.strz	"MPAT11 14, 7"
000017b6 2031342c2037 
000017bc 00 
000017bd 01             6780 	.byte	1
000017be d103           6781 	.byte	209,3
000017c0 4d504c413132   6782 	.strz	"MPLA12 16, 7"
000017c6 2031362c2037 
000017cc 00 
000017cd 01             6783 	.byte	1
000017ce d203           6784 	.byte	210,3
000017d0 4d5055413132   6785 	.strz	"MPUA12 17, 7"
000017d6 2031372c2037 
000017dc 00 
000017dd 01             6786 	.byte	1
000017de d303           6787 	.byte	211,3
000017e0 4d5041543132   6788 	.strz	"MPAT12 18, 7"
000017e6 2031382c2037 
000017ec 00 
000017ed 01             6789 	.byte	1
000017ee d403           6790 	.byte	212,3
000017f0 4d504c413133   6791 	.strz	"MPLA13 20, 7"
000017f6 2032302c2037 
000017fc 00 
000017fd 01             6792 	.byte	1
000017fe d503           6793 	.byte	213,3
00001800 4d5055413133   6794 	.strz	"MPUA13 21, 7"
00001806 2032312c2037 
0000180c 00 
0000180d 01             6795 	.byte	1
0000180e d603           6796 	.byte	214,3
00001810 4d5041543133   6797 	.strz	"MPAT13 22, 7"
00001816 2032322c2037 
0000181c 00 
0000181d 01             6798 	.byte	1
0000181e d703           6799 	.byte	215,3
00001820 4d504c413134   6800 	.strz	"MPLA14 24, 7"
00001826 2032342c2037 
0000182c 00 
0000182d 01             6801 	.byte	1
0000182e d803           6802 	.byte	216,3
00001830 4d5055413134   6803 	.strz	"MPUA14 25, 7"

                                                                      Page 135
                                                              C:\Users\NIKHIL~1.PAT\AppData\Local\Temp\gh_000aesk1.s
00001836 2032352c2037 
0000183c 00 
0000183d 01             6804 	.byte	1
0000183e d903           6805 	.byte	217,3
00001840 4d5041543134   6806 	.strz	"MPAT14 26, 7"
00001846 2032362c2037 
0000184c 00 
0000184d 01             6807 	.byte	1
0000184e da03           6808 	.byte	218,3
00001850 4d504c413135   6809 	.strz	"MPLA15 28, 7"
00001856 2032382c2037 
0000185c 00 
0000185d 01             6810 	.byte	1
0000185e db03           6811 	.byte	219,3
00001860 4d5055413135   6812 	.strz	"MPUA15 29, 7"
00001866 2032392c2037 
0000186c 00 
0000186d 01             6813 	.byte	1
0000186e dc03           6814 	.byte	220,3
00001870 4d5041543135   6815 	.strz	"MPAT15 30, 7"
00001876 2033302c2037 
0000187c 00 
0000187d 04             6816 	.byte	4
0000187e 03             6817 	.byte	3
0000187f 47             6818 	.byte	71
00001880 07             6819 	.byte	7
00001881 04             6820 	.byte	4
00001882 04             6821 	.byte	4
00001883 03             6822 	.byte	3
00001884 42             6823 	.byte	66
00001885 08             6824 	.byte	8
00001886 01             6825 	.byte	1
00001887 40             6826 	.byte	64
00001888 535344313335   6827 	.strz	"SSD1351HEIGHT 96"
0000188e 314845494748 
00001894 5420393600 
00001899 01             6828 	.byte	1
0000189a 41             6829 	.byte	65
0000189b 535344313335   6830 	.strz	"SSD1351WIDTH 128"
000018a1 315749445448 
000018a7 2031323800 
000018ac 01             6831 	.byte	1
000018ad 4c             6832 	.byte	76
000018ae 535344313335   6833 	.strz	"SSD1351_CMD_SETCOLUMN 0x15"
000018b4 315f434d445f 
000018ba 534554434f4c 
000018c0 554d4e203078 
000018c6 313500 
000018c9 01             6834 	.byte	1
000018ca 4d             6835 	.byte	77
000018cb 535344313335   6836 	.strz	"SSD1351_CMD_SETROW 0x75"
000018d1 315f434d445f 
000018d7 534554524f57 
000018dd 203078373500 
000018e3 01             6837 	.byte	1
000018e4 4e             6838 	.byte	78
000018e5 535344313335   6839 	.strz	"SSD1351_CMD_WRITERAM 0x5C"
000018eb 315f434d445f 
000018f1 575249544552 
000018f7 414d20307835 
000018fd 4300 

                                                                      Page 136
                                                              C:\Users\NIKHIL~1.PAT\AppData\Local\Temp\gh_000aesk1.s
000018ff 01             6840 	.byte	1
00001900 50             6841 	.byte	80
00001901 535344313335   6842 	.strz	"SSD1351_CMD_SETREMAP 0xA0"
00001907 315f434d445f 
0000190d 53455452454d 
00001913 415020307841 
00001919 3000 
0000191b 01             6843 	.byte	1
0000191c 51             6844 	.byte	81
0000191d 535344313335   6845 	.strz	"SSD1351_CMD_STARTLINE 0xA1"
00001923 315f434d445f 
00001929 53544152544c 
0000192f 494e45203078 
00001935 413100 
00001938 01             6846 	.byte	1
00001939 52             6847 	.byte	82
0000193a 535344313335   6848 	.strz	"SSD1351_CMD_DISPLAYOFFSET 0xA2"
00001940 315f434d445f 
00001946 444953504c41 
0000194c 594f46465345 
00001952 542030784132 
00001958 00 
00001959 01             6849 	.byte	1
0000195a 55             6850 	.byte	85
0000195b 535344313335   6851 	.strz	"SSD1351_CMD_NORMALDISPLAY 0xA6"
00001961 315f434d445f 
00001967 4e4f524d414c 
0000196d 444953504c41 
00001973 592030784136 
00001979 00 
0000197a 01             6852 	.byte	1
0000197b 57             6853 	.byte	87
0000197c 535344313335   6854 	.strz	"SSD1351_CMD_FUNCTIONSELECT 0xAB"
00001982 315f434d445f 
00001988 46554e435449 
0000198e 4f4e53454c45 
00001994 435420307841 
0000199a 4200 
0000199c 01             6855 	.byte	1
0000199d 58             6856 	.byte	88
0000199e 535344313335   6857 	.strz	"SSD1351_CMD_DISPLAYOFF 0xAE"
000019a4 315f434d445f 
000019aa 444953504c41 
000019b0 594f46462030 
000019b6 78414500 
000019ba 01             6858 	.byte	1
000019bb 59             6859 	.byte	89
000019bc 535344313335   6860 	.strz	"SSD1351_CMD_DISPLAYON 0xAF"
000019c2 315f434d445f 
000019c8 444953504c41 
000019ce 594f4e203078 
000019d4 414600 
000019d7 01             6861 	.byte	1
000019d8 5a             6862 	.byte	90
000019d9 535344313335   6863 	.strz	"SSD1351_CMD_PRECHARGE 0xB1"
000019df 315f434d445f 
000019e5 505245434841 
000019eb 524745203078 
000019f1 423100 
000019f4 01             6864 	.byte	1
000019f5 5c             6865 	.byte	92

                                                                      Page 137
                                                              C:\Users\NIKHIL~1.PAT\AppData\Local\Temp\gh_000aesk1.s
000019f6 535344313335   6866 	.strz	"SSD1351_CMD_CLOCKDIV 0xB3"
000019fc 315f434d445f 
00001a02 434c4f434b44 
00001a08 495620307842 
00001a0e 3300 
00001a10 01             6867 	.byte	1
00001a11 5d             6868 	.byte	93
00001a12 535344313335   6869 	.strz	"SSD1351_CMD_SETVSL 0xB4"
00001a18 315f434d445f 
00001a1e 53455456534c 
00001a24 203078423400 
00001a2a 01             6870 	.byte	1
00001a2b 5e             6871 	.byte	94
00001a2c 535344313335   6872 	.strz	"SSD1351_CMD_SETGPIO 0xB5"
00001a32 315f434d445f 
00001a38 534554475049 
00001a3e 4f2030784235 
00001a44 00 
00001a45 01             6873 	.byte	1
00001a46 5f             6874 	.byte	95
00001a47 535344313335   6875 	.strz	"SSD1351_CMD_PRECHARGE2 0xB6"
00001a4d 315f434d445f 
00001a53 505245434841 
00001a59 524745322030 
00001a5f 78423600 
00001a63 01             6876 	.byte	1
00001a64 63             6877 	.byte	99
00001a65 535344313335   6878 	.strz	"SSD1351_CMD_VCOMH 0xBE"
00001a6b 315f434d445f 
00001a71 56434f4d4820 
00001a77 3078424500 
00001a7c 01             6879 	.byte	1
00001a7d 64             6880 	.byte	100
00001a7e 535344313335   6881 	.strz	"SSD1351_CMD_CONTRASTABC 0xC1"
00001a84 315f434d445f 
00001a8a 434f4e545241 
00001a90 535441424320 
00001a96 3078433100 
00001a9b 01             6882 	.byte	1
00001a9c 65             6883 	.byte	101
00001a9d 535344313335   6884 	.strz	"SSD1351_CMD_CONTRASTMASTER 0xC7"
00001aa3 315f434d445f 
00001aa9 434f4e545241 
00001aaf 53544d415354 
00001ab5 455220307843 
00001abb 3700 
00001abd 01             6885 	.byte	1
00001abe 66             6886 	.byte	102
00001abf 535344313335   6887 	.strz	"SSD1351_CMD_MUXRATIO 0xCA"
00001ac5 315f434d445f 
00001acb 4d5558524154 
00001ad1 494f20307843 
00001ad7 4100 
00001ad9 01             6888 	.byte	1
00001ada 67             6889 	.byte	103
00001adb 535344313335   6890 	.strz	"SSD1351_CMD_COMMANDLOCK 0xFD"
00001ae1 315f434d445f 
00001ae7 434f4d4d414e 
00001aed 444c4f434b20 
00001af3 3078464400 
00001af8 04             6891 	.byte	4

                                                                      Page 138
                                                              C:\Users\NIKHIL~1.PAT\AppData\Local\Temp\gh_000aesk1.s
00001af9 03             6892 	.byte	3
00001afa 43             6893 	.byte	67
00001afb 09             6894 	.byte	9
00001afc 04             6895 	.byte	4
00001afd 03             6896 	.byte	3
00001afe 46             6897 	.byte	70
00001aff 0a             6898 	.byte	10
00001b00 04             6899 	.byte	4
00001b01 03             6900 	.byte	3
00001b02 47             6901 	.byte	71
00001b03 0b             6902 	.byte	11
00001b04 04             6903 	.byte	4
00001b05 03             6904 	.byte	3
00001b06 48             6905 	.byte	72
00001b07 0c             6906 	.byte	12
00001b08 04             6907 	.byte	4
00001b09 04             6908 	.byte	4
00001b0a 00             6909 	.byte	0
                        6910 	.section	.debug_abbrev
00000153 00             6911 	.byte	0
                        6912 	.section	.debug_info
                        6913 .Ldw_end:
                        6914 .rh850_flags REGMODE32,DATA_ALIGN8,GP_FIX,EP_NONFIX,TP_FIX,REG2_NONRESERVE,G3K,SDA_EXTRA_REGS_0
