                                                                      Page 1
                                                              C:\Users\NIKHIL~1.PAT\AppData\Local\Temp\gh_000aeoo1.s
Command Line: C:\ghs\comp_201517\ease850.exe -w -elf -b0 -I..\..\source\modules\ -I..\..\source\peripherals -IC:\Users\nikhil.patil\Documents\renesas\RH850_F1L_sample\source\subproject -I..\..\device -IC:\Users\nikhil.patil\Documents\renesas\RH850_F1L_sample\source\test5 -IC:\Users\nikhil.patil\Documents\renesas\RH850_F1L_sample\source\subprojtest -IC:\ghs\comp_201517\lib\rh850 -cg_underscore -cpu=rh850g3k -nofpu -no_v850_simd -rh850_fpsimd=none -nomacro -patch_dbo=C:\Users\nikhil.patil\Documents\renesas\RH850_F1L_sample\toolchain\GHS\output\obj\r_tasks.dbo -source=r_tasks.c -o output\obj\gh_000aeoo1.o -list=output\list\r_tasks.lst C:\Users\NIKHIL~1.PAT\AppData\Local\Temp\gh_000aeoo1.s 
Original File: C:\Users\NIKHIL~1.PAT\AppData\Local\Temp\gh_000aeoo1.s
Source File: r_tasks.c
Directory: C:\Users\nikhil.patil\Documents\renesas\RH850_F1L_sample\toolchain\GHS
Host OS: Windows 7 Service Pack 1
EASE: Copyright (C) 1983-2015 Green Hills Software.  All Rights Reserved.
Release: Compiler v2015.1.7
Build Directory: [Directory] BTOWORKER6:c:/build_2015_1_bto/2015-10-21.2100-2015_1_bto/win32-comp-ecom
Revision: [VCInfo] http://toolsvc/branches/release-branch-70-bto/src@544153 (built by build)
Revision Date: Thu Oct 22 01:50:13 2015

Release Date: Thu Oct 22 03:32:32 2015

                           1 --Driver Command: ccv850 -c -MD -I..\..\source\modules\
                           2 --		-I..\..\source\peripherals
                           3 --		-IC:\Users\nikhil.patil\Documents\renesas\RH850_F1L_sample\source\subproject
                           4 --		-I..\..\device
                           5 --		-IC:\Users\nikhil.patil\Documents\renesas\RH850_F1L_sample\source\test5
                           6 --		-IC:\Users\nikhil.patil\Documents\renesas\RH850_F1L_sample\source\subprojtest
                           7 --		-G -object_dir=output\obj -list -list_dir=output/list -passsource
                           8 --		-bsp generic -fsoft -cpu=rh850g3k -D__GHS__ -dwarf2 -large_sda
                           9 --		-sda -filetype.c ..\..\source\app\r_tasks.c -o
                          10 --		output\obj\r_tasks.o
                          11 --Source File:   ..\..\source\app\r_tasks.c
                          12 --Directory:     
                          13 --		C:\Users\nikhil.patil\Documents\renesas\RH850_F1L_sample\toolchain\GHS
                          14 --Compile Date:  Thu Jan 18 08:13:35 2018
                          15 --Host OS:       Win32
                          16 --Version:       C-RH850 2015.1.7 RELEASE VERSION
                          17 --Release:       Compiler v2015.1.7
                          18 --Revision Date: Thu Oct 22 02:06:12 2015
                          19 --Release Date:  Thu Oct 22 03:34:32 2015
                          20 -- ecom  -g -w
                          21 
                          22 --1: /*===========================================================================*/
                          23 --2: /* Project:  F1x StarterKit Sample Software                                  */
                          24 --3: /* Module :  r_tasks.c                                                       */
                          25 --4: /* Version:  V1.00                                                           */
                          26 --5: /*===========================================================================*/
                          27 --6: /*                                  COPYRIGHT                                */
                          28 --7: /*===========================================================================*/
                          29 --8: /* Copyright (c) 2016 by Renesas Electronics Europe GmbH,                    */
                          30 --9: /*               a company of the Renesas Electronics Corporation            */
                          31 --10: /*===========================================================================*/
                          32 --11: /* In case of any question please do not hesitate to contact:                */
                          33 --12: /*                                                                           */
                          34 --13: /*        ABG Software Tool Support                                          */
                          35 --14: /*                                                                           */
                          36 --15: /*        Renesas Electronics Europe GmbH                                    */
                          37 --16: /*        Arcadiastrasse 10                                                  */
                          38 --17: /*        D-40472 Duesseldorf, Germany                                       */
                          39 --18: /*                                                                           */
                          40 --19: /*        e-mail: software_support-eu@lm.renesas.com                         */
                          41 --20: /*        FAX:   +49 - (0)211 / 65 03 - 11 31                                */
                          42 --21: /*                                                                           */
                          43 --22: /*===========================================================================*/
                          44 --23: /* Warranty Disclaimer                                                       */
                          45 --24: /*                                                                           */
                          46 --25: /* Because the Product(s) is licensed free of charge, there is no warranty   */
                          47 --26: /* of any kind whatsoever and expressly disclaimed and excluded by Renesas,  */
                          48 --27: /* either expressed or implied, including but not limited to those for       */
                          49 --28: /* non-infringement of intellectual property, merchantability and/or         */
                          50 --29: /* fitness for the particular purpose.                                       */

                                                                      Page 2
                                                              C:\Users\NIKHIL~1.PAT\AppData\Local\Temp\gh_000aeoo1.s
                          51 --30: /* Renesas shall not have any obligation to maintain, service or provide bug */
                          52 --31: /* fixes for the supplied Product(s) and/or the Application.                 */
                          53 --32: /*                                                                           */
                          54 --33: /* Each User is solely responsible for determining the appropriateness of    */
                          55 --34: /* using the Product(s) and assumes all risks associated with its exercise   */
                          56 --35: /* of rights under this Agreement, including, but not limited to the risks   */
                          57 --36: /* and costs of program errors, compliance with applicable laws, damage to   */
                          58 --37: /* or loss of data, programs or equipment, and unavailability or             */
                          59 --38: /* interruption of operations.                                               */
                          60 --39: /*                                                                           */
                          61 --40: /* Limitation of Liability                                                   */
                          62 --41: /*                                                                           */
                          63 --42: /* In no event shall Renesas be liable to the User for any incidental,       */
                          64 --43: /* consequential, indirect, or punitive damage (including but not limited    */
                          65 --44: /* to lost profits) regardless of whether such liability is based on breach  */
                          66 --45: /* of contract, tort, strict liability, breach of warranties, failure of     */
                          67 --46: /* essential purpose or otherwise and even if advised of the possibility of  */
                          68 --47: /* such damages. Renesas shall not be liable for any services or products    */
                          69 --48: /* provided by third party vendors, developers or consultants identified or  */
                          70 --49: /* referred to the User by Renesas in connection with the Product(s) and/or  */
                          71 --50: /* the Application.                                                          */
                          72 --51: /*                                                                           */
                          73 --52: /*===========================================================================*/
                          74 --53: /* History:                                                                  */
                          75 --54: /*              V1.00: Initial version                                       */
                          76 --55: /*                                                                           */
                          77 --56: /*===========================================================================*/
                          78 --57: /*                                                                           */
                          79 --58: /* This file contains the basic tasks and mode handling.                     */
                          80 --59: /*                                                                           */
                          81 --60: /*===========================================================================*/
                          82 --62: /*===========================================================================*/
                          83 --63: /* Includes */
                          84 --64: /*===========================================================================*/
                          85 --65: #include "r_device.h"
                          86 --66: #include "r_tasks.h"
                          87 --67: #include <stdio.h>
                          88 --69: /* Include application */
                          89 --70: #include "renesas128x96.h"
                          90 --72: /* Include modules */
                          91 --73: #include "can/r_can.h"
                          92 --74: #include "display/r_display.h"
                          93 --75: #include "led/r_led.h"
                          94 --76: #include "lin/r_lin.h"
                          95 --77: #include "system/r_system.h"
                          96 --78: #include "uart/r_uart.h"
                          97 --79: #include "user_input/r_ui.h"
                          98 --81: /* Include Peripherals */
                          99 --82: #include "enc/r_enc.h"
                         100 --83: #include "intc/r_intc.h"
                         101 --84: #include "stbc/r_stbc.h"
                         102 --85: #include "tau/r_tau.h"
                         103 --86: #include "adc/r_adc.h"
                         104 --87: #include "pwmd/r_pwmd.h"
                         105 --88: #include "rlin/r_rlin.h"
                         106 --91: /*===========================================================================*/
                         107 --92: /* Defines */
                         108 --93: /*===========================================================================*/
                         109 --94: /* Some defines for dynamic LED1,LED2 and ring LEDs behavior */
                         110 --95: #define R_LED_WAVE_DOWN 0
                         111 --96: #define R_LED_WAVE_UP	1

                                                                      Page 3
                                                              C:\Users\NIKHIL~1.PAT\AppData\Local\Temp\gh_000aeoo1.s
                         112 --97: #define R_LED1_WAVE 	0
                         113 --98: #define R_LED2_WAVE     1
                         114 --100: /* DeepSTOP counter 30s */
                         115 --101: #define DEEPSTOP_COUNT_DOWN        30000u
                         116 --103: /* Time in ms status is updated and output */
                         117 --104: #define STATUS_UPDATE_INTERVAL      100u
                         118 --105: /*===========================================================================*/
                         119 --106: /* Variables */
                         120 --107: /*===========================================================================*/
                         121 --108: /* Mode is stored in Retention RAM (so it is retained during DeepSTOP) */
                         122 --109: #ifdef __GHS__
                         123 --110:   #pragma ghs startdata 
                         124 --111:   #pragma ghs section bss  = ".rdata"
                         125 --112:   r_System_s g_SystemStatus;
                         126 --113:   #pragma ghs section bss = default
                         127 --114:   #pragma ghs enddata
                         128 --115: #endif
                         129 --117: #ifdef __IAR__
                         130 --118:   #pragma location="RETENTION_RAM.noinit"
                         131 --119:   __no_init __brel23 r_System_s g_SystemStatus;
                         132 --120: #endif
                         133 --122: #ifdef __CSP__
                         134 --123:   #pragma section r0_disp32 "RETENTION_RAM"
                         135 --124:   r_System_s g_SystemStatus;
                         136 --125:   #pragma section default
                         137 --126: #endif
                         138 --128: /* Pattern to turn on all ring LEDs successively */
                         139 --129: const uint16_t g_LEDRingPattern[16]={ 0x0001, 0x0003, 0x0007, 0x000F,
                         140 --130:                                 0x001F, 0x003F, 0x007F, 0x00FF,
                         141 --131:                                 0x80FF, 0xC0FF, 0xE0FF, 0xF0FF,
                         142 --132:                                 0xF8FF, 0xFCFF, 0xFEFF, 0xFFFF };
                         143 --134:                                 /* RED        YELLOW        GREEN      CYAN          BLUE       MAGENTA       WHITE       */ 
                         144 --135: const uint16_t g_FixedRGBColors[7][3] = {{4095,0,0},{4095,4095,0},{0,4095,0},{0,4095,4095},{0,0,4095},{4095,0,4095},{4095,4095,4095}};
                         145 --138: /* Potentiometer and Encoder status variables for global use */
                         146 --139: uint32_t g_Pot1Value, g_Enc1Value, g_Enc1Compare;
                         147 --141: /* Char array for status print */
                         148 --142: char_t g_StatusText[100];
                         149 --146: /*===========================================================================*/
                         150 --147: /* Functions */
                         151 --148: /*===========================================================================*/
                         152 --151: /*****************************************************************************
                         153 --152: ** Function:    PrintText
                         154 --153: ** Description: Prints the text with printf in the Compiler IO and via UART.
                         155 --154: ** Parameter:   TextArray - Array containing Text to be sent. 
                         156 --155: ** Return:      None
                         157 --156: ******************************************************************************/
                         158 --157: void PrintText(char_t* TextArray)
                         159 	.text
                         160 ..bof.C.3A.5CUsers.5Cnikhil.2Epatil.5CDocuments.5Crenesas.5CRH850_F1L_sample.5Ctoolchain.5CGHS.5Coutput.5Cobj.5Cr_tasks...43.3A.5CUsers.5Cnikhil.2Epatil.5CDocuments.5Crenesas.5CRH850_F1L_sample.5Ctoolchain.5CGHS..5A609D7F..0::
                         161 	.align	2
                         162 	.global	_PrintText
                         163 _PrintText:
00000000 581a            164 	add	-8,sp
00000002 63ff0500        165 	st.w	lp,4[sp]
00000006 63ef0100        166 	st.w	r29,0[sp]
0000000a 06e8            167 	mov	r6,r29
                         168 --	    .bf
                         169 .LDW01:
                         170 --158: {
                         171 --159:   R_UART_SendString(TextArray);
0000000c 1d30            172 	mov	r29,r6

                                                                      Page 4
                                                              C:\Users\NIKHIL~1.PAT\AppData\Local\Temp\gh_000aeoo1.s
                         173 	jarl	_R_UART_SendString,lp
                         173 <EXPANSION BEGIN>
                         173 jarl22 _R_UART_SendString , lp 
0000000e 80ff0000*       173 <EXPANSION END>
                         174 --160:   
                         175 --161:   #ifdef __GHS__ 
                         176 --162:   printf((const char_t*)TextArray);
                         177 --line162
                         178 ..lin.C.3A.5CUsers.5Cnikhil.2Epatil.5CDocuments.5Crenesas.5CRH850_F1L_sample.5Ctoolchain.5CGHS.5Coutput.5Cobj.5Cr_tasks.1::
                         179 .LDWlin1:
00000012 1d30            180 	mov	r29,r6
                         181 	jarl	_printf,lp
                         181 <EXPANSION BEGIN>
                         181 jarl22 _printf , lp 
00000014 80ff0000*       181 <EXPANSION END>
                         182 --163:   #endif
                         183 --164: }
                         184 --	    .ef
                         185 .LDW11:
                         186 --line164
                         187 ..lin.C.3A.5CUsers.5Cnikhil.2Epatil.5CDocuments.5Crenesas.5CRH850_F1L_sample.5Ctoolchain.5CGHS.5Coutput.5Cobj.5Cr_tasks.2::
                         188 .LDWlin2:
00000018 23ff0500        189 	ld.w	4[sp],lp
0000001c 23ef0100        190 	ld.w	0[sp],r29
00000020 481a            191 	add	8,sp
00000022 7f00            192 	jmp	[lp]
                         193 	.global	___ghs_eofn_PrintText
                         194 ___ghs_eofn_PrintText:
                         195 	.type	_PrintText,@function
                         196 	.size	_PrintText,.-_PrintText
                         197 	.align	2
                         198 
                         199 --_TextArray	r29	param
                         200 
                         201 	.section ".bss","awb"
                         202 .L38:
                         203 	.type	.L38,@object
                         204 	.size	.L38,0
                         205 	.data
                         206 	.text
                         207 
                         208 
                         209 --165: /*****************************************************************************
                         210 --166: ** Function:    PwmErrorCallBack
                         211 --167: ** Description: Function called in case of ADC detected PWM upper/lowe limit
                         212 --168: **              error.
                         213 --169: ** Parameter:   ADCA0ULER - Upper/lowe limit error information register
                         214 --170: ** Return:      None
                         215 --171: ******************************************************************************/
                         216 --172: void PwmErrorCallBack(uint32_t ErrorStatus)
                         217 	.align	2
                         218 	.align	2
                         219 	.align	2
                         220 	.global	_PwmErrorCallBack
                         221 _PwmErrorCallBack:
00000024 501a            222 	add	-16,sp
00000026 63ff0d00        223 	st.w	lp,12[sp]
0000002a 63df0900        224 	st.w	r27,8[sp]
0000002e 63e70500        225 	st.w	r28,4[sp]
00000032 63ef0100        226 	st.w	r29,0[sp]
00000036 06d8            227 	mov	r6,r27

                                                                      Page 5
                                                              C:\Users\NIKHIL~1.PAT\AppData\Local\Temp\gh_000aeoo1.s
00000038 3d0600000000*   228 	mov	.L142,r29
0000003e 3c0600000000*   229 	mov	_g_SystemStatus,r28
                         230 --	    .bf
                         231 .LDW21:
                         232 --173: {
                         233 --174:     /* Error on physical channel 1 - Red LED */
                         234 --175:     if((ErrorStatus & 0x1F) == 0x01)
00000044 db0e1f00        235 	andi	31,r27,r1
00000048 610a            236 	cmp	1,r1
0000004a ba0d*           237 	bne	.L58
                         238 --176:     {   
                         239 --177:       if(g_SystemStatus.LEDR_Error == R_OK)
                         240 --line177
                         241 ..lin.C.3A.5CUsers.5Cnikhil.2Epatil.5CDocuments.5Crenesas.5CRH850_F1L_sample.5Ctoolchain.5CGHS.5Coutput.5Cobj.5Cr_tasks.3::
                         242 .LDWlin3:
0000004c 3c0f1d00        243 	ld.w	28[r28],r1
00000050 e009            244 	cmp	zero,r1
00000052 fa05*           245 	bne	.L58
                         246 --178:       {
                         247 --179:         g_SystemStatus.LEDR_Error = R_ERROR_NOTIFY;
                         248 --line179
                         249 ..lin.C.3A.5CUsers.5Cnikhil.2Epatil.5CDocuments.5Crenesas.5CRH850_F1L_sample.5Ctoolchain.5CGHS.5Coutput.5Cobj.5Cr_tasks.4::
                         250 .LDWlin4:
00000054 020a            251 	mov	2,r1
00000056 7c0f1d00        252 	st.w	r1,28[r28]
                         253 --180:         R_LED_PwmStop(LEDR);
0000005a 0032            254 	mov	0,r6
                         255 	jarl	_R_LED_PwmStop,lp
                         255 <EXPANSION BEGIN>
                         255 jarl22 _R_LED_PwmStop , lp 
0000005c 80ff0000*       255 <EXPANSION END>
                         256 .L58:
                         257 --181:       }
                         258 --182:     }
                         259 --183:     /* Error on physical channel 2 - Blue LED */
                         260 --184:     if((ErrorStatus & 0x1F) == 0x02)
                         261 --line184
                         262 ..lin.C.3A.5CUsers.5Cnikhil.2Epatil.5CDocuments.5Crenesas.5CRH850_F1L_sample.5Ctoolchain.5CGHS.5Coutput.5Cobj.5Cr_tasks.5::
                         263 .LDWlin5:
00000060 db0e1f00        264 	andi	31,r27,r1
00000064 620a            265 	cmp	2,r1
00000066 ba0d*           266 	bne	.L62
                         267 --185:     {
                         268 --186:       if(g_SystemStatus.LEDB_Error == R_OK)
                         269 --line186
                         270 ..lin.C.3A.5CUsers.5Cnikhil.2Epatil.5CDocuments.5Crenesas.5CRH850_F1L_sample.5Ctoolchain.5CGHS.5Coutput.5Cobj.5Cr_tasks.6::
                         271 .LDWlin6:
00000068 3c0f2500        272 	ld.w	36[r28],r1
0000006c e009            273 	cmp	zero,r1
0000006e fa05*           274 	bne	.L62
                         275 --187:       {
                         276 --188:         g_SystemStatus.LEDB_Error = R_ERROR_NOTIFY;
                         277 --line188
                         278 ..lin.C.3A.5CUsers.5Cnikhil.2Epatil.5CDocuments.5Crenesas.5CRH850_F1L_sample.5Ctoolchain.5CGHS.5Coutput.5Cobj.5Cr_tasks.7::
                         279 .LDWlin7:
00000070 020a            280 	mov	2,r1
00000072 7c0f2500        281 	st.w	r1,36[r28]
                         282 --189:         R_LED_PwmStop(LEDB);
00000076 0232            283 	mov	2,r6
                         284 	jarl	_R_LED_PwmStop,lp
                         284 <EXPANSION BEGIN>

                                                                      Page 6
                                                              C:\Users\NIKHIL~1.PAT\AppData\Local\Temp\gh_000aeoo1.s
                         284 jarl22 _R_LED_PwmStop , lp 
00000078 80ff0000*       284 <EXPANSION END>
                         285 .L62:
                         286 --190:       }
                         287 --191:     }
                         288 --192:     /* Error on physical channel 3 - Green LED */
                         289 --193:     if((ErrorStatus & 0x1F) == 0x03)
                         290 --line193
                         291 ..lin.C.3A.5CUsers.5Cnikhil.2Epatil.5CDocuments.5Crenesas.5CRH850_F1L_sample.5Ctoolchain.5CGHS.5Coutput.5Cobj.5Cr_tasks.8::
                         292 .LDWlin8:
0000007c db0e1f00        293 	andi	31,r27,r1
00000080 630a            294 	cmp	3,r1
00000082 ba0d*           295 	bne	.L66
                         296 --194:     {
                         297 --195:       if(g_SystemStatus.LEDG_Error == R_OK)
                         298 --line195
                         299 ..lin.C.3A.5CUsers.5Cnikhil.2Epatil.5CDocuments.5Crenesas.5CRH850_F1L_sample.5Ctoolchain.5CGHS.5Coutput.5Cobj.5Cr_tasks.9::
                         300 .LDWlin9:
00000084 3c0f2100        301 	ld.w	32[r28],r1
00000088 e009            302 	cmp	zero,r1
0000008a fa05*           303 	bne	.L66
                         304 --196:       {
                         305 --197:         g_SystemStatus.LEDG_Error = R_ERROR_NOTIFY;
                         306 --line197
                         307 ..lin.C.3A.5CUsers.5Cnikhil.2Epatil.5CDocuments.5Crenesas.5CRH850_F1L_sample.5Ctoolchain.5CGHS.5Coutput.5Cobj.5Cr_tasks.10::
                         308 .LDWlin10:
0000008c 020a            309 	mov	2,r1
0000008e 7c0f2100        310 	st.w	r1,32[r28]
                         311 --198:         R_LED_PwmStop(LEDG);
00000092 0132            312 	mov	1,r6
                         313 	jarl	_R_LED_PwmStop,lp
                         313 <EXPANSION BEGIN>
                         313 jarl22 _R_LED_PwmStop , lp 
00000094 80ff0000*       313 <EXPANSION END>
                         314 .L66:
                         315 --199:       }
                         316 --200:     }
                         317 --201: }
                         318 --	    .ef
                         319 .LDW31:
                         320 --line201
                         321 ..lin.C.3A.5CUsers.5Cnikhil.2Epatil.5CDocuments.5Crenesas.5CRH850_F1L_sample.5Ctoolchain.5CGHS.5Coutput.5Cobj.5Cr_tasks.11::
                         322 .LDWlin11:
00000098 23ff0d00        323 	ld.w	12[sp],lp
0000009c 23ef0100        324 	ld.w	0[sp],r29
000000a0 23e70500        325 	ld.w	4[sp],r28
000000a4 23df0900        326 	ld.w	8[sp],r27
000000a8 031e1000        327 	addi	16,sp,sp
000000ac 7f00            328 	jmp	[lp]
                         329 	.global	___ghs_eofn_PwmErrorCallBack
                         330 ___ghs_eofn_PwmErrorCallBack:
                         331 	.type	_PwmErrorCallBack,@function
                         332 	.size	_PwmErrorCallBack,.-_PwmErrorCallBack
                         333 	.align	2
                         334 
                         335 --_ErrorStatus	r27	param
                         336 
                         337 	.data
                         338 .L142:
                         339 	.type	.L142,@object
                         340 	.size	.L142,0

                                                                      Page 7
                                                              C:\Users\NIKHIL~1.PAT\AppData\Local\Temp\gh_000aeoo1.s
                         341 	.text
                         342 
                         343 
                         344 --203: void RgbLedDiagOutput(void)
                         345 	.align	2
                         346 	.align	2
                         347 	.global	_RgbLedDiagOutput
                         348 _RgbLedDiagOutput:
000000ae 581a            349 	add	-8,sp
000000b0 63ff0500        350 	st.w	lp,4[sp]
000000b4 63ef0100        351 	st.w	r29,0[sp]
000000b8 3d0600000000*   352 	mov	_g_SystemStatus,r29
                         353 --	    .bf
                         354 .LDW41:
                         355 --204: {
                         356 --205:   if(g_SystemStatus.LEDR_Error == R_ERROR_NOTIFY)
000000be 3d0f1d00        357 	ld.w	28[r29],r1
000000c2 620a            358 	cmp	2,r1
000000c4 9a0d*           359 	bne	.L192
                         360 --206:   {
                         361 --207:     g_SystemStatus.LEDR_Error = R_ERROR;
                         362 --line207
                         363 ..lin.C.3A.5CUsers.5Cnikhil.2Epatil.5CDocuments.5Crenesas.5CRH850_F1L_sample.5Ctoolchain.5CGHS.5Coutput.5Cobj.5Cr_tasks.12::
                         364 .LDWlin12:
000000c6 010a            365 	mov	1,r1
000000c8 7d0f1d00        366 	st.w	r1,28[r29]
                         367 --208:     PrintText("\r>RGB LED error: red LED        \n\r");
000000cc 260600000000*   368 	mov	.L288,r6
                         369 	jarl	_PrintText,lp
                         369 <EXPANSION BEGIN>
                         369 jarl22 _PrintText , lp 
000000d2 bfff2eff*       369 <EXPANSION END>
                         370 .L192:
                         371 --209:   }
                         372 --210:   if(g_SystemStatus.LEDG_Error == R_ERROR_NOTIFY)
                         373 --line210
                         374 ..lin.C.3A.5CUsers.5Cnikhil.2Epatil.5CDocuments.5Crenesas.5CRH850_F1L_sample.5Ctoolchain.5CGHS.5Coutput.5Cobj.5Cr_tasks.13::
                         375 .LDWlin13:
000000d6 3d0f2100        376 	ld.w	32[r29],r1
000000da 620a            377 	cmp	2,r1
000000dc 9a0d*           378 	bne	.L194
                         379 --211:   {
                         380 --212:     g_SystemStatus.LEDG_Error = R_ERROR;
                         381 --line212
                         382 ..lin.C.3A.5CUsers.5Cnikhil.2Epatil.5CDocuments.5Crenesas.5CRH850_F1L_sample.5Ctoolchain.5CGHS.5Coutput.5Cobj.5Cr_tasks.14::
                         383 .LDWlin14:
000000de 010a            384 	mov	1,r1
000000e0 7d0f2100        385 	st.w	r1,32[r29]
                         386 --213:     PrintText("\r>RGB LED error: green LED      \n\r");
000000e4 260600000000*   387 	mov	.L289,r6
                         388 	jarl	_PrintText,lp
                         388 <EXPANSION BEGIN>
                         388 jarl22 _PrintText , lp 
000000ea bfff16ff*       388 <EXPANSION END>
                         389 .L194:
                         390 --214:   }
                         391 --215:   if(g_SystemStatus.LEDB_Error == R_ERROR_NOTIFY)
                         392 --line215
                         393 ..lin.C.3A.5CUsers.5Cnikhil.2Epatil.5CDocuments.5Crenesas.5CRH850_F1L_sample.5Ctoolchain.5CGHS.5Coutput.5Cobj.5Cr_tasks.15::
                         394 .LDWlin15:
000000ee 3d0f2500        395 	ld.w	36[r29],r1

                                                                      Page 8
                                                              C:\Users\NIKHIL~1.PAT\AppData\Local\Temp\gh_000aeoo1.s
000000f2 620a            396 	cmp	2,r1
000000f4 9a0d*           397 	bne	.L196
                         398 --216:   {
                         399 --217:     g_SystemStatus.LEDB_Error = R_ERROR;
                         400 --line217
                         401 ..lin.C.3A.5CUsers.5Cnikhil.2Epatil.5CDocuments.5Crenesas.5CRH850_F1L_sample.5Ctoolchain.5CGHS.5Coutput.5Cobj.5Cr_tasks.16::
                         402 .LDWlin16:
000000f6 010a            403 	mov	1,r1
000000f8 7d0f2500        404 	st.w	r1,36[r29]
                         405 --218:     PrintText("\r>RGB LED error: blue LED       \n\r");
000000fc 260600000000*   406 	mov	.L290,r6
                         407 	jarl	_PrintText,lp
                         407 <EXPANSION BEGIN>
                         407 jarl22 _PrintText , lp 
00000102 bffffefe*       407 <EXPANSION END>
                         408 .L196:
                         409 --219:   }
                         410 --220: }
                         411 --	    .ef
                         412 .LDW51:
                         413 --line220
                         414 ..lin.C.3A.5CUsers.5Cnikhil.2Epatil.5CDocuments.5Crenesas.5CRH850_F1L_sample.5Ctoolchain.5CGHS.5Coutput.5Cobj.5Cr_tasks.17::
                         415 .LDWlin17:
00000106 23ff0500        416 	ld.w	4[sp],lp
0000010a 23ef0100        417 	ld.w	0[sp],r29
0000010e 481a            418 	add	8,sp
00000110 7f00            419 	jmp	[lp]
                         420 	.global	___ghs_eofn_RgbLedDiagOutput
                         421 ___ghs_eofn_RgbLedDiagOutput:
                         422 	.type	_RgbLedDiagOutput,@function
                         423 	.size	_RgbLedDiagOutput,.-_RgbLedDiagOutput
                         424 	.align	2
                         425 --.L259	.L288	static
                         426 --.L260	.L289	static
                         427 --.L261	.L290	static
                         428 
                         429 	.section ".bss","awb"
                         430 .L258:
                         431 	.type	.L258,@object
                         432 	.size	.L258,0
                         433 	.section ".rodata","a"
                         434 .L288:--	"\r>RGB LED error: red LED        \n\r"
00000000 0d3e5247        435 	.byte	13,62,82,71
00000004 42204c45        436 	.byte	66,32,76,69
00000008 44206572        437 	.byte	68,32,101,114
0000000c 726f723a        438 	.byte	114,111,114,58
00000010 20726564        439 	.byte	32,114,101,100
00000014 204c4544        440 	.byte	32,76,69,68
00000018 20202020        441 	.byte	32,32,32,32
0000001c 20202020        442 	.byte	32,32,32,32
00000020 0a0d            443 	.byte	10,13
00000022 00              444 	.byte	0
                         445 	.type	.L288,@object
                         446 	.size	.L288,35
                         447 .L289:--	"\r>RGB LED error: green LED      \n\r"
00000023 0d3e5247        448 	.byte	13,62,82,71
00000027 42204c45        449 	.byte	66,32,76,69
0000002b 44206572        450 	.byte	68,32,101,114
0000002f 726f723a        451 	.byte	114,111,114,58
00000033 20677265        452 	.byte	32,103,114,101
00000037 656e204c        453 	.byte	101,110,32,76

                                                                      Page 9
                                                              C:\Users\NIKHIL~1.PAT\AppData\Local\Temp\gh_000aeoo1.s
0000003b 45442020        454 	.byte	69,68,32,32
0000003f 20202020        455 	.byte	32,32,32,32
00000043 0a0d            456 	.byte	10,13
00000045 00              457 	.byte	0
                         458 	.type	.L289,@object
                         459 	.size	.L289,35
                         460 .L290:--	"\r>RGB LED error: blue LED       \n\r"
00000046 0d3e5247        461 	.byte	13,62,82,71
0000004a 42204c45        462 	.byte	66,32,76,69
0000004e 44206572        463 	.byte	68,32,101,114
00000052 726f723a        464 	.byte	114,111,114,58
00000056 20626c75        465 	.byte	32,98,108,117
0000005a 65204c45        466 	.byte	101,32,76,69
0000005e 44202020        467 	.byte	68,32,32,32
00000062 20202020        468 	.byte	32,32,32,32
00000066 0a0d            469 	.byte	10,13
00000068 00              470 	.byte	0
                         471 	.type	.L290,@object
                         472 	.size	.L290,35
                         473 	.data
                         474 	.text
                         475 
                         476 
                         477 --222: /*****************************************************************************
                         478 --223: ** Function:    UpperByteMirror
                         479 --224: ** Description: Mirrors the upper byte of a 16bit value to match LED Ring arrangement. 
                         480 --225: ** Parameter:   CurrentValue - Value that shall be mirrored. 
                         481 --226: ** Return:      loc_MirroredValue
                         482 --227: ******************************************************************************/
                         483 --228: uint16_t UpperByteMirror(uint16_t CurrentValue)
                         484 	.align	2
                         485 	.align	2
                         486 	.global	_UpperByteMirror
                         487 _UpperByteMirror:
00000112 c69effff        488 	andi	65535,r6,r19
                         489 --	    .bf
                         490 .LDW61:
                         491 --229: {
                         492 --230:     uint16_t loc_MirroredValue, i;
                         493 --231:     
                         494 --232:     loc_MirroredValue = CurrentValue;
00000116 1308            495 	mov	r19,r1
                         496 --233:     loc_MirroredValue &= 0x00FF;
00000118 8100            497 	zxb	r1
0000011a c100            498 	zxh	r1
                         499 --234:     
                         500 --235:     CurrentValue >>= 8;
0000011c 889a            501 	shr	8,r19
                         502 --236:     for(i=0; i<8; i++)
0000011e 0012            503 	mov	0,r2
00000120 0000            504 	nop
                         505 .L307:
                         506 --237:     {
                         507 --238:         if(CurrentValue & (1<<i))
00000122 0192            508 	mov	1,r18
00000124 e297c290        509 	shl	r2,r18,r18
00000128 5391            510 	and	r19,r18
0000012a f205*           511 	be	.L308
                         512 --239:         {
                         513 --240:             loc_MirroredValue |= (0x8000>>i);
                         514 --line240

                                                                      Page 10
                                                              C:\Users\NIKHIL~1.PAT\AppData\Local\Temp\gh_000aeoo1.s
                         515 ..lin.C.3A.5CUsers.5Cnikhil.2Epatil.5CDocuments.5Crenesas.5CRH850_F1L_sample.5Ctoolchain.5CGHS.5Coutput.5Cobj.5Cr_tasks.18::
                         516 .LDWlin18:
0000012c 80960080        517 	ori	32768,zero,r18
00000130 e297a290        518 	sar	r2,r18,r18
00000134 1209            519 	or	r18,r1
00000136 c100            520 	zxh	r1
                         521 .L308:
00000138 4112            522 	add	1,r2
0000013a c200            523 	zxh	r2
0000013c 6812            524 	cmp	8,r2
0000013e a1f5*           525 	bl	.L307
                         526 --241:         }
                         527 --242:     }
                         528 --243:     
                         529 --244:     return loc_MirroredValue;
                         530 --line244
                         531 ..lin.C.3A.5CUsers.5Cnikhil.2Epatil.5CDocuments.5Crenesas.5CRH850_F1L_sample.5Ctoolchain.5CGHS.5Coutput.5Cobj.5Cr_tasks.19::
                         532 .LDWlin19:
00000140 0150            533 	mov	r1,r10
                         534 --	    .ef
                         535 .LDW71:
00000142 7f00            536 	jmp	[lp]
                         537 	.global	___ghs_eofn_UpperByteMirror
                         538 ___ghs_eofn_UpperByteMirror:
                         539 	.type	_UpperByteMirror,@function
                         540 	.size	_UpperByteMirror,.-_UpperByteMirror
                         541 	.align	2
                         542 --_loc_MirroredValue	r1	local
                         543 --_i	r2	local
                         544 
                         545 --_CurrentValue	r19	param
                         546 
                         547 	.section ".bss","awb"
                         548 .L370:
                         549 	.type	.L370,@object
                         550 	.size	.L370,0
                         551 	.data
                         552 	.text
                         553 
                         554 --245: }
                         555 
                         556 --247: /*****************************************************************************
                         557 --248: ** Function:    LedUpdate
                         558 --249: ** Description: Function that is called periodically in Mode 2 creating a 
                         559 --250: **              dynamic LED behavior. 
                         560 --251: ** Parameter:   None
                         561 --252: ** Return:      None
                         562 --253: ******************************************************************************/
                         563 --254: void LedUpdate(void)
                         564 	.align	2
                         565 	.align	2
                         566 	.global	_LedUpdate
                         567 _LedUpdate:
00000144 5c1a            568 	add	-4,sp
00000146 63ff0100        569 	st.w	lp,0[sp]
                         570 --	    .bf
                         571 .LDW81:
                         572 --255: {
                         573 --256:     static uint32_t loc_LED1Duty = 0, 
                         574 --257:                     loc_LED2Duty = 0,
                         575 --258:                     loc_LEDWaveDirection = R_LED_WAVE_UP,

                                                                      Page 11
                                                              C:\Users\NIKHIL~1.PAT\AppData\Local\Temp\gh_000aeoo1.s
                         576 --259:                     loc_LEDWave = R_LED1_WAVE,
                         577 --260:                     loc_UpdateCounter = 0,
                         578 --261:                     loc_LEDRingMask = 1,
                         579 --262:                     loc_temp;
                         580 --263:                     
                         581 --264:     
                         582 --265:     /* Update execution frequency depending on Pot1 position */
                         583 --266:     R_TAUJ0_CDR_Update(TAUJ0C1, (6000-g_Pot1Value));
0000014a 840709080000*   584 	ld.w	sdaoff23(_g_Pot1Value)[gp],r1
00000150 20167017        585 	movea	6000,zero,r2
00000154 0232            586 	mov	2,r6
00000156 8209            587 	subr	r2,r1
00000158 0138            588 	mov	r1,r7
0000015a c700            589 	zxh	r7
                         590 	jarl	_R_TAUJ0_CDR_Update,lp
                         590 <EXPANSION BEGIN>
                         590 jarl22 _R_TAUJ0_CDR_Update , lp 
0000015c 80ff0000*       590 <EXPANSION END>
                         591 --268:     
                         592 --269:     if(loc_LEDWave == R_LED1_WAVE)
                         593 --line269
                         594 ..lin.C.3A.5CUsers.5Cnikhil.2Epatil.5CDocuments.5Crenesas.5CRH850_F1L_sample.5Ctoolchain.5CGHS.5Coutput.5Cobj.5Cr_tasks.20::
                         595 .LDWlin20:
00000160 840709080000*   596 	ld.w	sdaoff23(.L750)[gp],r1
00000166 e009            597 	cmp	zero,r1
00000168 fa3d*           598 	bne	.L411
                         599 --270:     {
                         600 --271:         if(loc_LEDWaveDirection == R_LED_WAVE_UP)
                         601 --line271
                         602 ..lin.C.3A.5CUsers.5Cnikhil.2Epatil.5CDocuments.5Crenesas.5CRH850_F1L_sample.5Ctoolchain.5CGHS.5Coutput.5Cobj.5Cr_tasks.21::
                         603 .LDWlin21:
0000016a 840709080000*   604 	ld.w	sdaoff23(.L749)[gp],r1
00000170 610a            605 	cmp	1,r1
00000172 ca1d*           606 	bne	.L413
                         607 --272:         {
                         608 --273:             loc_LED1Duty++;
                         609 --line273
                         610 ..lin.C.3A.5CUsers.5Cnikhil.2Epatil.5CDocuments.5Crenesas.5CRH850_F1L_sample.5Ctoolchain.5CGHS.5Coutput.5Cobj.5Cr_tasks.22::
                         611 .LDWlin22:
00000174 840709080000*   612 	ld.w	sdaoff23(.L747)[gp],r1
0000017a 410a            613 	add	1,r1
0000017c 84070f080000*   614 	st.w	r1,sdaoff23(.L747)[gp]
                         615 --274:             R_LED_SetPwmDuty(LED1, (loc_LED1Duty*41));
00000182 840709080000*   616 	ld.w	sdaoff23(.L747)[gp],r1
00000188 0332            617 	mov	3,r6
0000018a e90f4602        618 	mulu	41,r1,zero
0000018e 0138            619 	mov	r1,r7
00000190 c700            620 	zxh	r7
                         621 	jarl	_R_LED_SetPwmDuty,lp
                         621 <EXPANSION BEGIN>
                         621 jarl22 _R_LED_SetPwmDuty , lp 
00000192 80ff0000*       621 <EXPANSION END>
                         622 --275:             if(loc_LED1Duty == 99)
                         623 --line275
                         624 ..lin.C.3A.5CUsers.5Cnikhil.2Epatil.5CDocuments.5Crenesas.5CRH850_F1L_sample.5Ctoolchain.5CGHS.5Coutput.5Cobj.5Cr_tasks.23::
                         625 .LDWlin23:
00000196 840709080000*   626 	ld.w	sdaoff23(.L747)[gp],r1
0000019c 01069dff        627 	addi	-99,r1,zero
000001a0 ba25*           628 	bne	.L411
                         629 --276:             {
                         630 --277:                 loc_LEDWaveDirection = R_LED_WAVE_DOWN;

                                                                      Page 12
                                                              C:\Users\NIKHIL~1.PAT\AppData\Local\Temp\gh_000aeoo1.s
                         631 --line277
                         632 ..lin.C.3A.5CUsers.5Cnikhil.2Epatil.5CDocuments.5Crenesas.5CRH850_F1L_sample.5Ctoolchain.5CGHS.5Coutput.5Cobj.5Cr_tasks.24::
                         633 .LDWlin24:
000001a2 84070f000000*   634 	st.w	zero,sdaoff23(.L749)[gp]
000001a8 f51d*           635 	br	.L411
                         636 .L413:
                         637 --278:             }
                         638 --279:         }
                         639 --280:         else
                         640 --281:         {
                         641 --282:             loc_LED1Duty--;
                         642 --line282
                         643 ..lin.C.3A.5CUsers.5Cnikhil.2Epatil.5CDocuments.5Crenesas.5CRH850_F1L_sample.5Ctoolchain.5CGHS.5Coutput.5Cobj.5Cr_tasks.25::
                         644 .LDWlin25:
000001aa 840709080000*   645 	ld.w	sdaoff23(.L747)[gp],r1
000001b0 5f0a            646 	add	-1,r1
000001b2 84070f080000*   647 	st.w	r1,sdaoff23(.L747)[gp]
                         648 --283:             R_LED_SetPwmDuty(LED1, (loc_LED1Duty*41));
000001b8 840709080000*   649 	ld.w	sdaoff23(.L747)[gp],r1
000001be 0332            650 	mov	3,r6
000001c0 e90f4602        651 	mulu	41,r1,zero
000001c4 0138            652 	mov	r1,r7
000001c6 c700            653 	zxh	r7
                         654 	jarl	_R_LED_SetPwmDuty,lp
                         654 <EXPANSION BEGIN>
                         654 jarl22 _R_LED_SetPwmDuty , lp 
000001c8 80ff0000*       654 <EXPANSION END>
                         655 --284:             if(loc_LED1Duty == 0)
                         656 --line284
                         657 ..lin.C.3A.5CUsers.5Cnikhil.2Epatil.5CDocuments.5Crenesas.5CRH850_F1L_sample.5Ctoolchain.5CGHS.5Coutput.5Cobj.5Cr_tasks.26::
                         658 .LDWlin26:
000001cc 840709080000*   659 	ld.w	sdaoff23(.L747)[gp],r1
000001d2 e009            660 	cmp	zero,r1
000001d4 9a0d*           661 	bne	.L411
                         662 --285:             {
                         663 --286:                 loc_LEDWaveDirection = R_LED_WAVE_UP;
                         664 --line286
                         665 ..lin.C.3A.5CUsers.5Cnikhil.2Epatil.5CDocuments.5Crenesas.5CRH850_F1L_sample.5Ctoolchain.5CGHS.5Coutput.5Cobj.5Cr_tasks.27::
                         666 .LDWlin27:
000001d6 010a            667 	mov	1,r1
000001d8 84070f080000*   668 	st.w	r1,sdaoff23(.L749)[gp]
                         669 --287:                 loc_LEDWave = R_LED2_WAVE;
000001de 010a            670 	mov	1,r1
000001e0 84070f080000*   671 	st.w	r1,sdaoff23(.L750)[gp]
                         672 .L411:
                         673 --288:             }
                         674 --289:         }
                         675 --290:     }
                         676 --291:     if(loc_LEDWave == R_LED2_WAVE)
000001e6 840709080000*   677 	ld.w	sdaoff23(.L750)[gp],r1
000001ec 610a            678 	cmp	1,r1
000001ee ea3d*           679 	bne	.L420
                         680 --292:     {
                         681 --293:         if(loc_LEDWaveDirection == R_LED_WAVE_UP)
                         682 --line293
                         683 ..lin.C.3A.5CUsers.5Cnikhil.2Epatil.5CDocuments.5Crenesas.5CRH850_F1L_sample.5Ctoolchain.5CGHS.5Coutput.5Cobj.5Cr_tasks.28::
                         684 .LDWlin28:
000001f0 840709080000*   685 	ld.w	sdaoff23(.L749)[gp],r1
000001f6 610a            686 	cmp	1,r1
000001f8 ca1d*           687 	bne	.L422
                         688 --294:         {

                                                                      Page 13
                                                              C:\Users\NIKHIL~1.PAT\AppData\Local\Temp\gh_000aeoo1.s
                         689 --295:             loc_LED2Duty++;
                         690 --line295
                         691 ..lin.C.3A.5CUsers.5Cnikhil.2Epatil.5CDocuments.5Crenesas.5CRH850_F1L_sample.5Ctoolchain.5CGHS.5Coutput.5Cobj.5Cr_tasks.29::
                         692 .LDWlin29:
000001fa 840709080000*   693 	ld.w	sdaoff23(.L748)[gp],r1
00000200 410a            694 	add	1,r1
00000202 84070f080000*   695 	st.w	r1,sdaoff23(.L748)[gp]
                         696 --296:             R_LED_SetPwmDuty(LED2, (loc_LED2Duty*41));
00000208 840709080000*   697 	ld.w	sdaoff23(.L748)[gp],r1
0000020e 0432            698 	mov	4,r6
00000210 e90f4602        699 	mulu	41,r1,zero
00000214 0138            700 	mov	r1,r7
00000216 c700            701 	zxh	r7
                         702 	jarl	_R_LED_SetPwmDuty,lp
                         702 <EXPANSION BEGIN>
                         702 jarl22 _R_LED_SetPwmDuty , lp 
00000218 80ff0000*       702 <EXPANSION END>
                         703 --297:             if(loc_LED2Duty == 99)
                         704 --line297
                         705 ..lin.C.3A.5CUsers.5Cnikhil.2Epatil.5CDocuments.5Crenesas.5CRH850_F1L_sample.5Ctoolchain.5CGHS.5Coutput.5Cobj.5Cr_tasks.30::
                         706 .LDWlin30:
0000021c 840709080000*   707 	ld.w	sdaoff23(.L748)[gp],r1
00000222 01069dff        708 	addi	-99,r1,zero
00000226 aa25*           709 	bne	.L420
                         710 --298:             {
                         711 --299:                 loc_LEDWaveDirection = R_LED_WAVE_DOWN;
                         712 --line299
                         713 ..lin.C.3A.5CUsers.5Cnikhil.2Epatil.5CDocuments.5Crenesas.5CRH850_F1L_sample.5Ctoolchain.5CGHS.5Coutput.5Cobj.5Cr_tasks.31::
                         714 .LDWlin31:
00000228 84070f000000*   715 	st.w	zero,sdaoff23(.L749)[gp]
0000022e e51d*           716 	br	.L420
                         717 .L422:
                         718 --300:             }
                         719 --301:         }
                         720 --302:         else
                         721 --303:         {
                         722 --304:             loc_LED2Duty--;
                         723 --line304
                         724 ..lin.C.3A.5CUsers.5Cnikhil.2Epatil.5CDocuments.5Crenesas.5CRH850_F1L_sample.5Ctoolchain.5CGHS.5Coutput.5Cobj.5Cr_tasks.32::
                         725 .LDWlin32:
00000230 840709080000*   726 	ld.w	sdaoff23(.L748)[gp],r1
00000236 5f0a            727 	add	-1,r1
00000238 84070f080000*   728 	st.w	r1,sdaoff23(.L748)[gp]
                         729 --305:             R_LED_SetPwmDuty(LED2, (loc_LED2Duty*41));
0000023e 840709080000*   730 	ld.w	sdaoff23(.L748)[gp],r1
00000244 0432            731 	mov	4,r6
00000246 e90f4602        732 	mulu	41,r1,zero
0000024a 0138            733 	mov	r1,r7
0000024c c700            734 	zxh	r7
                         735 	jarl	_R_LED_SetPwmDuty,lp
                         735 <EXPANSION BEGIN>
                         735 jarl22 _R_LED_SetPwmDuty , lp 
0000024e 80ff0000*       735 <EXPANSION END>
                         736 --306:             if(loc_LED2Duty == 0)
                         737 --line306
                         738 ..lin.C.3A.5CUsers.5Cnikhil.2Epatil.5CDocuments.5Crenesas.5CRH850_F1L_sample.5Ctoolchain.5CGHS.5Coutput.5Cobj.5Cr_tasks.33::
                         739 .LDWlin33:
00000252 840709080000*   740 	ld.w	sdaoff23(.L748)[gp],r1
00000258 e009            741 	cmp	zero,r1
0000025a 8a0d*           742 	bne	.L420
                         743 --307:             {

                                                                      Page 14
                                                              C:\Users\NIKHIL~1.PAT\AppData\Local\Temp\gh_000aeoo1.s
                         744 --308:                 loc_LEDWaveDirection = R_LED_WAVE_UP;
                         745 --line308
                         746 ..lin.C.3A.5CUsers.5Cnikhil.2Epatil.5CDocuments.5Crenesas.5CRH850_F1L_sample.5Ctoolchain.5CGHS.5Coutput.5Cobj.5Cr_tasks.34::
                         747 .LDWlin34:
0000025c 010a            748 	mov	1,r1
0000025e 84070f080000*   749 	st.w	r1,sdaoff23(.L749)[gp]
                         750 --309:                 loc_LEDWave = R_LED1_WAVE;
00000264 84070f000000*   751 	st.w	zero,sdaoff23(.L750)[gp]
                         752 .L420:
                         753 --310:             }
                         754 --311:         }
                         755 --312:     }
                         756 --314:     /* Nummber of circulating ring LEDs is set bei Enc1 */
                         757 --315:     if(g_Enc1Compare != g_Enc1Value)
0000026a 840709080000*   758 	ld.w	sdaoff23(_g_Enc1Value)[gp],r1
00000270 840709100000*   759 	ld.w	sdaoff23(_g_Enc1Compare)[gp],r2
00000276 e111            760 	cmp	r1,r2
00000278 e255*           761 	be	.L429
                         762 --316:     {
                         763 --317:       g_SystemStatus.DeepSTOP_Counter = 0;
                         764 --line317
                         765 ..lin.C.3A.5CUsers.5Cnikhil.2Epatil.5CDocuments.5Crenesas.5CRH850_F1L_sample.5Ctoolchain.5CGHS.5Coutput.5Cobj.5Cr_tasks.35::
                         766 .LDWlin35:
0000027a 2b0600000000*   767 	mov	_g_SystemStatus+12,r11
00000280 6b070100        768 	st.w	zero,0[r11]
                         769 --318:         if(R_ENCA0_GetFlags() & R_ENCA_DOWN_COUNT)
                         770 	jarl	_R_ENCA0_GetFlags,lp
                         770 <EXPANSION BEGIN>
                         770 jarl22 _R_ENCA0_GetFlags , lp 
00000284 80ff0000*       770 <EXPANSION END>
00000288 8352            771 	shr	3,r10
0000028a a925*           772 	bnl	.L431
                         773 --319:         {
                         774 --320:             loc_temp = loc_LEDRingMask;
                         775 --line320
                         776 ..lin.C.3A.5CUsers.5Cnikhil.2Epatil.5CDocuments.5Crenesas.5CRH850_F1L_sample.5Ctoolchain.5CGHS.5Coutput.5Cobj.5Cr_tasks.36::
                         777 .LDWlin36:
0000028c 840709080000*   778 	ld.w	sdaoff23(.L752)[gp],r1
00000292 84070f080000*   779 	st.w	r1,sdaoff23(.L753)[gp]
                         780 --321:             loc_temp <<= 1;
00000298 840709080000*   781 	ld.w	sdaoff23(.L753)[gp],r1
0000029e c10a            782 	shl	1,r1
000002a0 84070f080000*   783 	st.w	r1,sdaoff23(.L753)[gp]
                         784 --322:             loc_LEDRingMask |= loc_temp;
000002a6 840709080000*   785 	ld.w	sdaoff23(.L752)[gp],r1
000002ac 840709100000*   786 	ld.w	sdaoff23(.L753)[gp],r2
000002b2 0209            787 	or	r2,r1
000002b4 84070f080000*   788 	st.w	r1,sdaoff23(.L752)[gp]
                         789 --323:             if(loc_LEDRingMask == 0)
000002ba 840709080000*   790 	ld.w	sdaoff23(.L752)[gp],r1
000002c0 e009            791 	cmp	zero,r1
000002c2 9a35*           792 	bne	.L429
                         793 --324:             {
                         794 --325:                 loc_LEDRingMask = 1;
                         795 --line325
                         796 ..lin.C.3A.5CUsers.5Cnikhil.2Epatil.5CDocuments.5Crenesas.5CRH850_F1L_sample.5Ctoolchain.5CGHS.5Coutput.5Cobj.5Cr_tasks.37::
                         797 .LDWlin37:
000002c4 010a            798 	mov	1,r1
000002c6 84070f080000*   799 	st.w	r1,sdaoff23(.L752)[gp]
000002cc c52d*           800 	br	.L429
                         801 .L431:

                                                                      Page 15
                                                              C:\Users\NIKHIL~1.PAT\AppData\Local\Temp\gh_000aeoo1.s
                         802 --326:             }
                         803 --327:         }
                         804 --328:         else
                         805 --329:         {
                         806 --330:             if(loc_LEDRingMask >= 0xFFFFF)
                         807 --line330
                         808 ..lin.C.3A.5CUsers.5Cnikhil.2Epatil.5CDocuments.5Crenesas.5CRH850_F1L_sample.5Ctoolchain.5CGHS.5Coutput.5Cobj.5Cr_tasks.38::
                         809 .LDWlin38:
000002ce 840709100000*   810 	ld.w	sdaoff23(.L752)[gp],r2
000002d4 2106ffff0f00    811 	mov	1048575,r1
000002da e111            812 	cmp	r1,r2
000002dc 810d*           813 	bl	.L436
                         814 --331:             {
                         815 --332:                 loc_LEDRingMask = 0xFFFFE;
                         816 --line332
                         817 ..lin.C.3A.5CUsers.5Cnikhil.2Epatil.5CDocuments.5Crenesas.5CRH850_F1L_sample.5Ctoolchain.5CGHS.5Coutput.5Cobj.5Cr_tasks.39::
                         818 .LDWlin39:
000002de 2106feff0f00    819 	mov	1048574,r1
000002e4 84070f080000*   820 	st.w	r1,sdaoff23(.L752)[gp]
000002ea d51d*           821 	br	.L429
                         822 .L436:
                         823 --333:             }
                         824 --334:             else
                         825 --335:             {
                         826 --336:                 loc_temp = loc_LEDRingMask;
                         827 --line336
                         828 ..lin.C.3A.5CUsers.5Cnikhil.2Epatil.5CDocuments.5Crenesas.5CRH850_F1L_sample.5Ctoolchain.5CGHS.5Coutput.5Cobj.5Cr_tasks.40::
                         829 .LDWlin40:
000002ec 840709080000*   830 	ld.w	sdaoff23(.L752)[gp],r1
000002f2 84070f080000*   831 	st.w	r1,sdaoff23(.L753)[gp]
                         832 --337:                 loc_temp >>= 1;
000002f8 840709080000*   833 	ld.w	sdaoff23(.L753)[gp],r1
000002fe 810a            834 	shr	1,r1
00000300 84070f080000*   835 	st.w	r1,sdaoff23(.L753)[gp]
                         836 --338:                 loc_temp |= 0x80000;
00000306 2b0600000000*   837 	mov	sdaoff23(.L753+2),r11
0000030c cb1f0000        838 	set1	3,0[r11]
                         839 --339:                 loc_LEDRingMask &= loc_temp;
00000310 840709080000*   840 	ld.w	sdaoff23(.L752)[gp],r1
00000316 840709100000*   841 	ld.w	sdaoff23(.L753)[gp],r2
0000031c 4209            842 	and	r2,r1
0000031e 84070f080000*   843 	st.w	r1,sdaoff23(.L752)[gp]
                         844 .L429:
                         845 --340:             }
                         846 --341:         }
                         847 --342:     }
                         848 --344:     g_Enc1Compare = g_Enc1Value;
00000324 840709080000*   849 	ld.w	sdaoff23(_g_Enc1Value)[gp],r1
0000032a 84070f080000*   850 	st.w	r1,sdaoff23(_g_Enc1Compare)[gp]
                         851 --345:     
                         852 --346:     /* Update ring LED output */
                         853 --347:     if(!(loc_UpdateCounter%20))
00000330 840709080000*   854 	ld.w	sdaoff23(.L751)[gp],r1
00000336 20161400        855 	movea	20,zero,r2
0000033a e20ffe0a        856 	divqu	r2,r1,r1
0000033e e009            857 	cmp	zero,r1
00000340 da15*           858 	bne	.L439
                         859 --348:     {
                         860 --349:         /* This part mirrors the upper byte because of the LED Ring order */
                         861 --350:         loc_temp = UpperByteMirror(loc_LEDRingMask);
                         862 --line350

                                                                      Page 16
                                                              C:\Users\NIKHIL~1.PAT\AppData\Local\Temp\gh_000aeoo1.s
                         863 ..lin.C.3A.5CUsers.5Cnikhil.2Epatil.5CDocuments.5Crenesas.5CRH850_F1L_sample.5Ctoolchain.5CGHS.5Coutput.5Cobj.5Cr_tasks.41::
                         864 .LDWlin41:
00000342 a40707300000*   865 	ld.hu	sdaoff23(.L752)[gp],r6
                         866 	jarl	_UpperByteMirror,lp
                         866 <EXPANSION BEGIN>
                         866 jarl22 _UpperByteMirror , lp 
00000348 bfffcafd*       866 <EXPANSION END>
0000034c 84070f500000*   867 	st.w	r10,sdaoff23(.L753)[gp]
                         868 --351:         
                         869 --352:         R_LED_RingUpdate(loc_temp);
                         870 --line352
                         871 ..lin.C.3A.5CUsers.5Cnikhil.2Epatil.5CDocuments.5Crenesas.5CRH850_F1L_sample.5Ctoolchain.5CGHS.5Coutput.5Cobj.5Cr_tasks.42::
                         872 .LDWlin42:
00000352 a40707300000*   873 	ld.hu	sdaoff23(.L753)[gp],r6
                         874 	jarl	_R_LED_RingUpdate,lp
                         874 <EXPANSION BEGIN>
                         874 jarl22 _R_LED_RingUpdate , lp 
00000358 80ff0000*       874 <EXPANSION END>
                         875 --353:         loc_LEDRingMask <<= 1;
                         876 --line353
                         877 ..lin.C.3A.5CUsers.5Cnikhil.2Epatil.5CDocuments.5Crenesas.5CRH850_F1L_sample.5Ctoolchain.5CGHS.5Coutput.5Cobj.5Cr_tasks.43::
                         878 .LDWlin43:
0000035c 840709080000*   879 	ld.w	sdaoff23(.L752)[gp],r1
00000362 c10a            880 	shl	1,r1
00000364 84070f080000*   881 	st.w	r1,sdaoff23(.L752)[gp]
                         882 .L439:
                         883 --354:     }
                         884 --355:     if(loc_LEDRingMask & (1<<20))
0000036a 840709080000*   885 	ld.w	sdaoff23(.L752)[gp],r1
00000370 950a            886 	shr	21,r1
00000372 e905*           887 	bnl	.L441
                         888 --356:     {
                         889 --357:         loc_LEDRingMask |= 0x01;
                         890 --line357
                         891 ..lin.C.3A.5CUsers.5Cnikhil.2Epatil.5CDocuments.5Crenesas.5CRH850_F1L_sample.5Ctoolchain.5CGHS.5Coutput.5Cobj.5Cr_tasks.44::
                         892 .LDWlin44:
00000374 2b0600000000*   893 	mov	sdaoff23(.L752),r11
0000037a cb070000        894 	set1	0,0[r11]
                         895 .L441:
                         896 --358:     }
                         897 --359:     loc_LEDRingMask &= 0xFFFFF;
0000037e 840709080000*   898 	ld.w	sdaoff23(.L752)[gp],r1
00000384 2206ffff0f00    899 	mov	1048575,r2
0000038a 4209            900 	and	r2,r1
0000038c 84070f080000*   901 	st.w	r1,sdaoff23(.L752)[gp]
                         902 --360:     
                         903 --361:     loc_UpdateCounter++;
00000392 840709080000*   904 	ld.w	sdaoff23(.L751)[gp],r1
00000398 410a            905 	add	1,r1
0000039a 84070f080000*   906 	st.w	r1,sdaoff23(.L751)[gp]
                         907 --362: }
                         908 --	    .ef
                         909 .LDW91:
000003a0 23ff0100        910 	ld.w	0[sp],lp
000003a4 441a            911 	add	4,sp
000003a6 7f00            912 	jmp	[lp]
                         913 	.global	___ghs_eofn_LedUpdate
                         914 ___ghs_eofn_LedUpdate:
                         915 	.type	_LedUpdate,@function
                         916 	.size	_LedUpdate,.-_LedUpdate
                         917 	.align	2

                                                                      Page 17
                                                              C:\Users\NIKHIL~1.PAT\AppData\Local\Temp\gh_000aeoo1.s
                         918 --_loc_LED1Duty	sdaoff23(.L747)	static
                         919 --_loc_LED2Duty	sdaoff23(.L748)	static
                         920 --_loc_LEDWaveDirection	sdaoff23(.L749)	static
                         921 --_loc_LEDWave	sdaoff23(.L750)	static
                         922 --_loc_UpdateCounter	sdaoff23(.L751)	static
                         923 --_loc_LEDRingMask	sdaoff23(.L752)	static
                         924 --_loc_temp	sdaoff23(.L753)	static
                         925 
                         926 	.section ".bss","awb"
                         927 .L646:
                         928 	.type	.L646,@object
                         929 	.size	.L646,0
                         930 	.section ".sdata","aw"
                         931 	.align	4
                         932 .L747:
                         933 	.global	_loc_LED1Duty.LedUpdate.C.3A.5CUsers.5Cnikhil.2Epatil.5CDocuments.5Crenesas.5CRH850_F1L_sample.5Ctoolchain.5CGHS.5Coutput.5Cobj.5Cr_tasks..0
                         934 _loc_LED1Duty.LedUpdate.C.3A.5CUsers.5Cnikhil.2Epatil.5CDocuments.5Crenesas.5CRH850_F1L_sample.5Ctoolchain.5CGHS.5Coutput.5Cobj.5Cr_tasks..0:
00000000 00000000        935 	.byte	0,0,0,0
                         936 	.type	_loc_LED1Duty.LedUpdate.C.3A.5CUsers.5Cnikhil.2Epatil.5CDocuments.5Crenesas.5CRH850_F1L_sample.5Ctoolchain.5CGHS.5Coutput.5Cobj.5Cr_tasks..0,@object
                         937 	.size	_loc_LED1Duty.LedUpdate.C.3A.5CUsers.5Cnikhil.2Epatil.5CDocuments.5Crenesas.5CRH850_F1L_sample.5Ctoolchain.5CGHS.5Coutput.5Cobj.5Cr_tasks..0,4
                         938 	.type	.L747,@object
                         939 	.size	.L747,4
                         940 .L748:
                         941 	.global	_loc_LED2Duty.LedUpdate.C.3A.5CUsers.5Cnikhil.2Epatil.5CDocuments.5Crenesas.5CRH850_F1L_sample.5Ctoolchain.5CGHS.5Coutput.5Cobj.5Cr_tasks..1
                         942 _loc_LED2Duty.LedUpdate.C.3A.5CUsers.5Cnikhil.2Epatil.5CDocuments.5Crenesas.5CRH850_F1L_sample.5Ctoolchain.5CGHS.5Coutput.5Cobj.5Cr_tasks..1:
00000004 00000000        943 	.byte	0,0,0,0
                         944 	.type	_loc_LED2Duty.LedUpdate.C.3A.5CUsers.5Cnikhil.2Epatil.5CDocuments.5Crenesas.5CRH850_F1L_sample.5Ctoolchain.5CGHS.5Coutput.5Cobj.5Cr_tasks..1,@object
                         945 	.size	_loc_LED2Duty.LedUpdate.C.3A.5CUsers.5Cnikhil.2Epatil.5CDocuments.5Crenesas.5CRH850_F1L_sample.5Ctoolchain.5CGHS.5Coutput.5Cobj.5Cr_tasks..1,4
                         946 	.type	.L748,@object
                         947 	.size	.L748,4
                         948 .L749:
                         949 	.global	_loc_LEDWaveDirection.LedUpdate.C.3A.5CUsers.5Cnikhil.2Epatil.5CDocuments.5Crenesas.5CRH850_F1L_sample.5Ctoolchain.5CGHS.5Coutput.5Cobj.5Cr_tasks..2
                         950 _loc_LEDWaveDirection.LedUpdate.C.3A.5CUsers.5Cnikhil.2Epatil.5CDocuments.5Crenesas.5CRH850_F1L_sample.5Ctoolchain.5CGHS.5Coutput.5Cobj.5Cr_tasks..2:
00000008 01000000        951 	.byte	1,0,0,0
                         952 	.type	_loc_LEDWaveDirection.LedUpdate.C.3A.5CUsers.5Cnikhil.2Epatil.5CDocuments.5Crenesas.5CRH850_F1L_sample.5Ctoolchain.5CGHS.5Coutput.5Cobj.5Cr_tasks..2,@object
                         953 	.size	_loc_LEDWaveDirection.LedUpdate.C.3A.5CUsers.5Cnikhil.2Epatil.5CDocuments.5Crenesas.5CRH850_F1L_sample.5Ctoolchain.5CGHS.5Coutput.5Cobj.5Cr_tasks..2,4
                         954 	.type	.L749,@object
                         955 	.size	.L749,4
                         956 .L750:
                         957 	.global	_loc_LEDWave.LedUpdate.C.3A.5CUsers.5Cnikhil.2Epatil.5CDocuments.5Crenesas.5CRH850_F1L_sample.5Ctoolchain.5CGHS.5Coutput.5Cobj.5Cr_tasks..3
                         958 _loc_LEDWave.LedUpdate.C.3A.5CUsers.5Cnikhil.2Epatil.5CDocuments.5Crenesas.5CRH850_F1L_sample.5Ctoolchain.5CGHS.5Coutput.5Cobj.5Cr_tasks..3:
0000000c 00000000        959 	.byte	0,0,0,0
                         960 	.type	_loc_LEDWave.LedUpdate.C.3A.5CUsers.5Cnikhil.2Epatil.5CDocuments.5Crenesas.5CRH850_F1L_sample.5Ctoolchain.5CGHS.5Coutput.5Cobj.5Cr_tasks..3,@object
                         961 	.size	_loc_LEDWave.LedUpdate.C.3A.5CUsers.5Cnikhil.2Epatil.5CDocuments.5Crenesas.5CRH850_F1L_sample.5Ctoolchain.5CGHS.5Coutput.5Cobj.5Cr_tasks..3,4
                         962 	.type	.L750,@object
                         963 	.size	.L750,4
                         964 .L751:
                         965 	.global	_loc_UpdateCounter.LedUpdate.C.3A.5CUsers.5Cnikhil.2Epatil.5CDocuments.5Crenesas.5CRH850_F1L_sample.5Ctoolchain.5CGHS.5Coutput.5Cobj.5Cr_tasks..4
                         966 _loc_UpdateCounter.LedUpdate.C.3A.5CUsers.5Cnikhil.2Epatil.5CDocuments.5Crenesas.5CRH850_F1L_sample.5Ctoolchain.5CGHS.5Coutput.5Cobj.5Cr_tasks..4:
00000010 00000000        967 	.byte	0,0,0,0
                         968 	.type	_loc_UpdateCounter.LedUpdate.C.3A.5CUsers.5Cnikhil.2Epatil.5CDocuments.5Crenesas.5CRH850_F1L_sample.5Ctoolchain.5CGHS.5Coutput.5Cobj.5Cr_tasks..4,@object
                         969 	.size	_loc_UpdateCounter.LedUpdate.C.3A.5CUsers.5Cnikhil.2Epatil.5CDocuments.5Crenesas.5CRH850_F1L_sample.5Ctoolchain.5CGHS.5Coutput.5Cobj.5Cr_tasks..4,4
                         970 	.type	.L751,@object
                         971 	.size	.L751,4
                         972 .L752:
                         973 	.global	_loc_LEDRingMask.LedUpdate.C.3A.5CUsers.5Cnikhil.2Epatil.5CDocuments.5Crenesas.5CRH850_F1L_sample.5Ctoolchain.5CGHS.5Coutput.5Cobj.5Cr_tasks..5
                         974 _loc_LEDRingMask.LedUpdate.C.3A.5CUsers.5Cnikhil.2Epatil.5CDocuments.5Crenesas.5CRH850_F1L_sample.5Ctoolchain.5CGHS.5Coutput.5Cobj.5Cr_tasks..5:
00000014 01000000        975 	.byte	1,0,0,0
                         976 	.type	_loc_LEDRingMask.LedUpdate.C.3A.5CUsers.5Cnikhil.2Epatil.5CDocuments.5Crenesas.5CRH850_F1L_sample.5Ctoolchain.5CGHS.5Coutput.5Cobj.5Cr_tasks..5,@object
                         977 	.size	_loc_LEDRingMask.LedUpdate.C.3A.5CUsers.5Cnikhil.2Epatil.5CDocuments.5Crenesas.5CRH850_F1L_sample.5Ctoolchain.5CGHS.5Coutput.5Cobj.5Cr_tasks..5,4
                         978 	.type	.L752,@object

                                                                      Page 18
                                                              C:\Users\NIKHIL~1.PAT\AppData\Local\Temp\gh_000aeoo1.s
                         979 	.size	.L752,4
                         980 	.section ".sbss","awb"
                         981 	.align	4
                         982 	.global	_loc_temp.LedUpdate.C.3A.5CUsers.5Cnikhil.2Epatil.5CDocuments.5Crenesas.5CRH850_F1L_sample.5Ctoolchain.5CGHS.5Coutput.5Cobj.5Cr_tasks..6
                         983 _loc_temp.LedUpdate.C.3A.5CUsers.5Cnikhil.2Epatil.5CDocuments.5Crenesas.5CRH850_F1L_sample.5Ctoolchain.5CGHS.5Coutput.5Cobj.5Cr_tasks..6:
00000000 00000000        984 .L753:	.space	4
                         985 	.type	_loc_temp.LedUpdate.C.3A.5CUsers.5Cnikhil.2Epatil.5CDocuments.5Crenesas.5CRH850_F1L_sample.5Ctoolchain.5CGHS.5Coutput.5Cobj.5Cr_tasks..6,@object
                         986 	.size	_loc_temp.LedUpdate.C.3A.5CUsers.5Cnikhil.2Epatil.5CDocuments.5Crenesas.5CRH850_F1L_sample.5Ctoolchain.5CGHS.5Coutput.5Cobj.5Cr_tasks..6,4
                         987 	.type	.L753,@object
                         988 	.size	.L753,4
                         989 	.data
                         990 	.text
                         991 
                         992 
                         993 --365: /*****************************************************************************
                         994 --366: ** Function:    PrintStatus
                         995 --367: ** Description: Current status such as DeepSTOP timer and Pot1 position via UART.
                         996 --368: ** Parameter:   None
                         997 --369: ** Return:      None
                         998 --370: ******************************************************************************/
                         999 --371: void PrintStatus(void)
                        1000 	.align	2
                        1001 	.align	2
                        1002 	.global	_PrintStatus
                        1003 _PrintStatus:
000003a8 541a           1004 	add	-12,sp
000003aa 63ff0900       1005 	st.w	lp,8[sp]
000003ae 63e70500       1006 	st.w	r28,4[sp]
000003b2 63ef0100       1007 	st.w	r29,0[sp]
                        1008 --	    .bf
                        1009 .LDW02:
                        1010 --372: {
                        1011 --373:     char_t *tmp = g_StatusText;
000003b6 3c0600000000*  1012 	mov	_g_StatusText,r28
                        1013 --374:     uint32_t loc_percentPot;
                        1014 --375:     
                        1015 --376:     
                        1016 --377:     loc_percentPot = g_Pot1Value/40;
000003bc 840709100000*  1017 	ld.w	sdaoff23(_g_Pot1Value)[gp],r2
000003c2 3206cdcccccc   1018 	mov	-858993459,r18
000003c8 e297229a       1019 	mulu	r2,r18,r19
000003cc 13e8           1020 	mov	r19,r29
000003ce 85ea           1021 	shr	5,r29
                        1022 --378:     
                        1023 --379:     if( loc_percentPot > 100)
000003d0 1d069bff       1024 	addi	-101,r29,zero
000003d4 b905*          1025 	bnl	.L805
                        1026 --380:     {
                        1027 --381:       loc_percentPot = 100;
                        1028 --line381
                        1029 ..lin.C.3A.5CUsers.5Cnikhil.2Epatil.5CDocuments.5Crenesas.5CRH850_F1L_sample.5Ctoolchain.5CGHS.5Coutput.5Cobj.5Cr_tasks.45::
                        1030 .LDWlin45:
000003d6 20ee6400       1031 	movea	100,zero,r29
                        1032 .L805:
                        1033 --382:     }
                        1034 --383:     
                        1035 --384:     sprintf(tmp, "\rPot1: %3i%%, DeepSTOP in %2is", loc_percentPot, (30-(g_SystemStatus.DeepSTOP_Counter/1000)));
000003da 220600000000*  1036 	mov	_g_SystemStatus+12,r2
000003e0 22170100       1037 	ld.w	0[r2],r2
000003e4 3206d34d6210   1038 	mov	274877907,r18
000003ea 1c30           1039 	mov	r28,r6

                                                                      Page 19
                                                              C:\Users\NIKHIL~1.PAT\AppData\Local\Temp\gh_000aeoo1.s
000003ec 1d40           1040 	mov	r29,r8
000003ee e297229a       1041 	mulu	r2,r18,r19
000003f2 20161e00       1042 	movea	30,zero,r2
000003f6 270600000000*  1043 	mov	.L876,r7
000003fc 869a           1044 	shr	6,r19
000003fe b311           1045 	sub	r19,r2
00000400 0248           1046 	mov	r2,r9
                        1047 	jarl	_sprintf,lp
                        1047 <EXPANSION BEGIN>
                        1047 jarl22 _sprintf , lp 
00000402 80ff0000*      1047 <EXPANSION END>
                        1048 --385:     R_UART_SendString(tmp);
                        1049 --line385
                        1050 ..lin.C.3A.5CUsers.5Cnikhil.2Epatil.5CDocuments.5Crenesas.5CRH850_F1L_sample.5Ctoolchain.5CGHS.5Coutput.5Cobj.5Cr_tasks.46::
                        1051 .LDWlin46:
00000406 1c30           1052 	mov	r28,r6
                        1053 	jarl	_R_UART_SendString,lp
                        1053 <EXPANSION BEGIN>
                        1053 jarl22 _R_UART_SendString , lp 
00000408 80ff0000*      1053 <EXPANSION END>
                        1054 --386: }
                        1055 --	    .ef
                        1056 .LDW12:
                        1057 --line386
                        1058 ..lin.C.3A.5CUsers.5Cnikhil.2Epatil.5CDocuments.5Crenesas.5CRH850_F1L_sample.5Ctoolchain.5CGHS.5Coutput.5Cobj.5Cr_tasks.47::
                        1059 .LDWlin47:
0000040c 23ff0900       1060 	ld.w	8[sp],lp
00000410 23ef0100       1061 	ld.w	0[sp],r29
00000414 23e70500       1062 	ld.w	4[sp],r28
00000418 4c1a           1063 	add	12,sp
0000041a 7f00           1064 	jmp	[lp]
                        1065 	.global	___ghs_eofn_PrintStatus
                        1066 ___ghs_eofn_PrintStatus:
                        1067 	.type	_PrintStatus,@function
                        1068 	.size	_PrintStatus,.-_PrintStatus
                        1069 	.align	2
                        1070 --_tmp	r28	local
                        1071 --_loc_percentPot	r29	local
                        1072 --.L855	.L876	static
                        1073 
                        1074 	.section ".bss","awb"
                        1075 .L854:
                        1076 	.type	.L854,@object
                        1077 	.size	.L854,0
                        1078 	.section ".rodata","a"
                        1079 .L876:--	"\rPot1: %3i%%, DeepSTOP in %2is"
00000069 0d506f74       1080 	.byte	13,80,111,116
0000006d 313a2025       1081 	.byte	49,58,32,37
00000071 33692525       1082 	.byte	51,105,37,37
00000075 2c204465       1083 	.byte	44,32,68,101
00000079 65705354       1084 	.byte	101,112,83,84
0000007d 4f502069       1085 	.byte	79,80,32,105
00000081 6e202532       1086 	.byte	110,32,37,50
00000085 6973           1087 	.byte	105,115
00000087 00             1088 	.byte	0
                        1089 	.type	.L876,@object
                        1090 	.size	.L876,31
                        1091 	.data
                        1092 	.text
                        1093 
                        1094 

                                                                      Page 20
                                                              C:\Users\NIKHIL~1.PAT\AppData\Local\Temp\gh_000aeoo1.s
                        1095 --388: /*****************************************************************************
                        1096 --389: ** Function:    SwitchRGBColor
                        1097 --390: ** Description: Switches the color of the RGB to colors given in g_FixedRGBColors
                        1098 --391: ** Parameter:   None
                        1099 --392: ** Return:      None
                        1100 --393: ******************************************************************************/
                        1101 --394: void SwitchRGBColor(void)
                        1102 	.align	2
                        1103 	.align	2
                        1104 	.global	_SwitchRGBColor
                        1105 _SwitchRGBColor:
0000041c 541a           1106 	add	-12,sp
0000041e 63ff0900       1107 	st.w	lp,8[sp]
00000422 63e70500       1108 	st.w	r28,4[sp]
00000426 63ef0100       1109 	st.w	r29,0[sp]
0000042a 3d0600000000*  1110 	mov	_g_SystemStatus+16,r29
00000430 3c0600000000*  1111 	mov	_g_FixedRGBColors,r28
                        1112 --	    .bf
                        1113 .LDW22:
                        1114 --395: {
                        1115 --396:     if(g_SystemStatus.CurrentRGB == WHITE)
00000436 3d0f0100       1116 	ld.w	0[r29],r1
0000043a 660a           1117 	cmp	6,r1
0000043c ca05*          1118 	bne	.L888
                        1119 --397:     {
                        1120 --398:         g_SystemStatus.CurrentRGB = RED;
                        1121 --line398
                        1122 ..lin.C.3A.5CUsers.5Cnikhil.2Epatil.5CDocuments.5Crenesas.5CRH850_F1L_sample.5Ctoolchain.5CGHS.5Coutput.5Cobj.5Cr_tasks.48::
                        1123 .LDWlin48:
0000043e 7d070100       1124 	st.w	zero,0[r29]
00000442 e505*          1125 	br	.L890
                        1126 .L888:
                        1127 --399:     }
                        1128 --400:     else
                        1129 --401:     {
                        1130 --402:         g_SystemStatus.CurrentRGB++;
                        1131 --line402
                        1132 ..lin.C.3A.5CUsers.5Cnikhil.2Epatil.5CDocuments.5Crenesas.5CRH850_F1L_sample.5Ctoolchain.5CGHS.5Coutput.5Cobj.5Cr_tasks.49::
                        1133 .LDWlin49:
00000444 3d0f0100       1134 	ld.w	0[r29],r1
00000448 410a           1135 	add	1,r1
0000044a 7d0f0100       1136 	st.w	r1,0[r29]
                        1137 .L890:
                        1138 --403:     }    
                        1139 --404:     R_LED_SetPwmDuty(LEDR, g_FixedRGBColors[g_SystemStatus.CurrentRGB][LEDR]);
0000044e 3d0f0000       1140 	ld.h	0[r29],r1
00000452 0032           1141 	mov	0,r6
00000454 e10e0300       1142 	mulhi	3,r1,r1
00000458 c10a           1143 	shl	1,r1
0000045a 01f0           1144 	mov	r1,ep
0000045c dcf1           1145 	add	r28,ep
0000045e 7038           1146 	sld.hu	0[ep],r7
                        1147 	jarl	_R_LED_SetPwmDuty,lp
                        1147 <EXPANSION BEGIN>
                        1147 jarl22 _R_LED_SetPwmDuty , lp 
00000460 80ff0000*      1147 <EXPANSION END>
                        1148 --405:     R_LED_SetPwmDuty(LEDG, g_FixedRGBColors[g_SystemStatus.CurrentRGB][LEDG]);
                        1149 --line405
                        1150 ..lin.C.3A.5CUsers.5Cnikhil.2Epatil.5CDocuments.5Crenesas.5CRH850_F1L_sample.5Ctoolchain.5CGHS.5Coutput.5Cobj.5Cr_tasks.50::
                        1151 .LDWlin50:
00000464 3d0f0000       1152 	ld.h	0[r29],r1

                                                                      Page 21
                                                              C:\Users\NIKHIL~1.PAT\AppData\Local\Temp\gh_000aeoo1.s
00000468 1cf60200       1153 	addi	2,r28,ep
0000046c 0132           1154 	mov	1,r6
0000046e e10e0300       1155 	mulhi	3,r1,r1
00000472 c10a           1156 	shl	1,r1
00000474 c1f1           1157 	add	r1,ep
00000476 7038           1158 	sld.hu	0[ep],r7
                        1159 	jarl	_R_LED_SetPwmDuty,lp
                        1159 <EXPANSION BEGIN>
                        1159 jarl22 _R_LED_SetPwmDuty , lp 
00000478 80ff0000*      1159 <EXPANSION END>
                        1160 --406:     R_LED_SetPwmDuty(LEDB, g_FixedRGBColors[g_SystemStatus.CurrentRGB][LEDB]);
                        1161 --line406
                        1162 ..lin.C.3A.5CUsers.5Cnikhil.2Epatil.5CDocuments.5Crenesas.5CRH850_F1L_sample.5Ctoolchain.5CGHS.5Coutput.5Cobj.5Cr_tasks.51::
                        1163 .LDWlin51:
0000047c 3d0f0000       1164 	ld.h	0[r29],r1
00000480 1cf60400       1165 	addi	4,r28,ep
00000484 0232           1166 	mov	2,r6
00000486 e10e0300       1167 	mulhi	3,r1,r1
0000048a c10a           1168 	shl	1,r1
0000048c c1f1           1169 	add	r1,ep
0000048e 7038           1170 	sld.hu	0[ep],r7
                        1171 	jarl	_R_LED_SetPwmDuty,lp
                        1171 <EXPANSION BEGIN>
                        1171 jarl22 _R_LED_SetPwmDuty , lp 
00000490 80ff0000*      1171 <EXPANSION END>
                        1172 --407: }
                        1173 --	    .ef
                        1174 .LDW32:
                        1175 --line407
                        1176 ..lin.C.3A.5CUsers.5Cnikhil.2Epatil.5CDocuments.5Crenesas.5CRH850_F1L_sample.5Ctoolchain.5CGHS.5Coutput.5Cobj.5Cr_tasks.52::
                        1177 .LDWlin52:
00000494 23ff0900       1178 	ld.w	8[sp],lp
00000498 23ef0100       1179 	ld.w	0[sp],r29
0000049c 23e70500       1180 	ld.w	4[sp],r28
000004a0 4c1a           1181 	add	12,sp
000004a2 7f00           1182 	jmp	[lp]
                        1183 	.global	___ghs_eofn_SwitchRGBColor
                        1184 ___ghs_eofn_SwitchRGBColor:
                        1185 	.type	_SwitchRGBColor,@function
                        1186 	.size	_SwitchRGBColor,.-_SwitchRGBColor
                        1187 	.align	2
                        1188 
                        1189 	.section ".bss","awb"
                        1190 .L934:
                        1191 	.type	.L934,@object
                        1192 	.size	.L934,0
                        1193 	.data
                        1194 	.text
                        1195 
                        1196 
                        1197 --409: /*****************************************************************************
                        1198 --410: ** Function:    Mode1
                        1199 --411: ** Description: 
                        1200 --412: ** Parameter:   None
                        1201 --413: ** Return:      None
                        1202 --414: ******************************************************************************/
                        1203 --415: void Mode1(void)
                        1204 	.align	2
                        1205 	.align	2
                        1206 	.global	_Mode1
                        1207 _Mode1:

                                                                      Page 22
                                                              C:\Users\NIKHIL~1.PAT\AppData\Local\Temp\gh_000aeoo1.s
000004a4 031ee0ff       1208 	addi	-32,sp,sp
000004a8 63ff1d00       1209 	st.w	lp,28[sp]
000004ac 63d70d00       1210 	st.w	r26,12[sp]
000004b0 63e70500       1211 	st.w	r28,4[sp]
000004b4 63ef0100       1212 	st.w	r29,0[sp]
000004b8 63bf1900       1213 	st.w	r23,24[sp]
000004bc 63c71500       1214 	st.w	r24,20[sp]
000004c0 63cf1100       1215 	st.w	r25,16[sp]
000004c4 63df0900       1216 	st.w	r27,8[sp]
000004c8 3d0600000000*  1217 	mov	_g_SystemStatus,r29
000004ce 3c0600000000*  1218 	mov	_g_LEDRingPattern,r28
000004d4 3a0600000000*  1219 	mov	_g_FixedRGBColors,r26
                        1220 --	    .bf
                        1221 .LDW42:
                        1222 --416: {
                        1223 --417:     r_Button_t loc_ButtonS1State, loc_ButtonEnc1State;
                        1224 --418:     static uint16_t loc_PatternNr = 0;
                        1225 --419:     uint16_t loc_tmpPot1;
                        1226 --420:     uint32_t loc_i;
                        1227 --421:     /* Reset the counter values */
                        1228 --422:     g_SystemStatus.System_Counter = 0u;                
000004da 7d070900       1229 	st.w	zero,8[r29]
                        1230 --423:     g_SystemStatus.DeepSTOP_Counter = 0u;
000004de 7d070d00       1231 	st.w	zero,12[r29]
                        1232 --424:     
                        1233 --425:     /* Reset RGB Status */
                        1234 --426:     g_SystemStatus.LEDR_Error = R_OK;
000004e2 7d071d00       1235 	st.w	zero,28[r29]
                        1236 --427:     g_SystemStatus.LEDG_Error = R_OK;
000004e6 7d072100       1237 	st.w	zero,32[r29]
                        1238 --428:     g_SystemStatus.LEDB_Error = R_OK;
000004ea 7d072500       1239 	st.w	zero,36[r29]
                        1240 --429: 	
                        1241 --430:     R_UI_ButtonS1_Init();
                        1242 	jarl	_R_UI_ButtonS1_Init,lp
                        1242 <EXPANSION BEGIN>
                        1242 jarl22 _R_UI_ButtonS1_Init , lp 
000004ee 80ff0000*      1242 <EXPANSION END>
                        1243 --431:     R_UI_ButtonEnc1_Init();
                        1244 --line431
                        1245 ..lin.C.3A.5CUsers.5Cnikhil.2Epatil.5CDocuments.5Crenesas.5CRH850_F1L_sample.5Ctoolchain.5CGHS.5Coutput.5Cobj.5Cr_tasks.53::
                        1246 .LDWlin53:
                        1247 	jarl	_R_UI_ButtonEnc1_Init,lp
                        1247 <EXPANSION BEGIN>
                        1247 jarl22 _R_UI_ButtonEnc1_Init , lp 
000004f2 80ff0000*      1247 <EXPANSION END>
                        1248 --432:     
                        1249 --433:     /* Init LEDs and PWM Diagnosis */
                        1250 --434:     R_LED_SetPwmDuty(LEDR, g_FixedRGBColors[g_SystemStatus.CurrentRGB][LEDR]);
                        1251 --line434
                        1252 ..lin.C.3A.5CUsers.5Cnikhil.2Epatil.5CDocuments.5Crenesas.5CRH850_F1L_sample.5Ctoolchain.5CGHS.5Coutput.5Cobj.5Cr_tasks.54::
                        1253 .LDWlin54:
000004f6 3d0f1000       1254 	ld.h	16[r29],r1
000004fa 0032           1255 	mov	0,r6
000004fc e10e0300       1256 	mulhi	3,r1,r1
00000500 c10a           1257 	shl	1,r1
00000502 01f0           1258 	mov	r1,ep
00000504 daf1           1259 	add	r26,ep
00000506 7038           1260 	sld.hu	0[ep],r7
                        1261 	jarl	_R_LED_SetPwmDuty,lp
                        1261 <EXPANSION BEGIN>

                                                                      Page 23
                                                              C:\Users\NIKHIL~1.PAT\AppData\Local\Temp\gh_000aeoo1.s
                        1261 jarl22 _R_LED_SetPwmDuty , lp 
00000508 80ff0000*      1261 <EXPANSION END>
                        1262 --435:     R_LED_SetPwmDuty(LEDG, g_FixedRGBColors[g_SystemStatus.CurrentRGB][LEDG]);
                        1263 --line435
                        1264 ..lin.C.3A.5CUsers.5Cnikhil.2Epatil.5CDocuments.5Crenesas.5CRH850_F1L_sample.5Ctoolchain.5CGHS.5Coutput.5Cobj.5Cr_tasks.55::
                        1265 .LDWlin55:
0000050c 3d0f1000       1266 	ld.h	16[r29],r1
00000510 1af60200       1267 	addi	2,r26,ep
00000514 0132           1268 	mov	1,r6
00000516 e10e0300       1269 	mulhi	3,r1,r1
0000051a c10a           1270 	shl	1,r1
0000051c c1f1           1271 	add	r1,ep
0000051e 7038           1272 	sld.hu	0[ep],r7
                        1273 	jarl	_R_LED_SetPwmDuty,lp
                        1273 <EXPANSION BEGIN>
                        1273 jarl22 _R_LED_SetPwmDuty , lp 
00000520 80ff0000*      1273 <EXPANSION END>
                        1274 --436:     R_LED_SetPwmDuty(LEDB, g_FixedRGBColors[g_SystemStatus.CurrentRGB][LEDB]);
                        1275 --line436
                        1276 ..lin.C.3A.5CUsers.5Cnikhil.2Epatil.5CDocuments.5Crenesas.5CRH850_F1L_sample.5Ctoolchain.5CGHS.5Coutput.5Cobj.5Cr_tasks.56::
                        1277 .LDWlin56:
00000524 3d0f1000       1278 	ld.h	16[r29],r1
00000528 1af60400       1279 	addi	4,r26,ep
0000052c 0232           1280 	mov	2,r6
0000052e e10e0300       1281 	mulhi	3,r1,r1
00000532 c10a           1282 	shl	1,r1
00000534 c1f1           1283 	add	r1,ep
00000536 7038           1284 	sld.hu	0[ep],r7
                        1285 	jarl	_R_LED_SetPwmDuty,lp
                        1285 <EXPANSION BEGIN>
                        1285 jarl22 _R_LED_SetPwmDuty , lp 
00000538 80ff0000*      1285 <EXPANSION END>
                        1286 --438:     R_LED_PwmStart(LED1);
                        1287 --line438
                        1288 ..lin.C.3A.5CUsers.5Cnikhil.2Epatil.5CDocuments.5Crenesas.5CRH850_F1L_sample.5Ctoolchain.5CGHS.5Coutput.5Cobj.5Cr_tasks.57::
                        1289 .LDWlin57:
0000053c 0332           1290 	mov	3,r6
                        1291 	jarl	_R_LED_PwmStart,lp
                        1291 <EXPANSION BEGIN>
                        1291 jarl22 _R_LED_PwmStart , lp 
0000053e 80ff0000*      1291 <EXPANSION END>
                        1292 --439:     R_LED_PwmStart(LED2);
                        1293 --line439
                        1294 ..lin.C.3A.5CUsers.5Cnikhil.2Epatil.5CDocuments.5Crenesas.5CRH850_F1L_sample.5Ctoolchain.5CGHS.5Coutput.5Cobj.5Cr_tasks.58::
                        1295 .LDWlin58:
00000542 0432           1296 	mov	4,r6
                        1297 	jarl	_R_LED_PwmStart,lp
                        1297 <EXPANSION BEGIN>
                        1297 jarl22 _R_LED_PwmStart , lp 
00000544 80ff0000*      1297 <EXPANSION END>
                        1298 --440:     R_LED_PwmStart(LEDR);
                        1299 --line440
                        1300 ..lin.C.3A.5CUsers.5Cnikhil.2Epatil.5CDocuments.5Crenesas.5CRH850_F1L_sample.5Ctoolchain.5CGHS.5Coutput.5Cobj.5Cr_tasks.59::
                        1301 .LDWlin59:
00000548 0032           1302 	mov	0,r6
                        1303 	jarl	_R_LED_PwmStart,lp
                        1303 <EXPANSION BEGIN>
                        1303 jarl22 _R_LED_PwmStart , lp 
0000054a 80ff0000*      1303 <EXPANSION END>
                        1304 --441:     R_LED_PwmStart(LEDG);
                        1305 --line441

                                                                      Page 24
                                                              C:\Users\NIKHIL~1.PAT\AppData\Local\Temp\gh_000aeoo1.s
                        1306 ..lin.C.3A.5CUsers.5Cnikhil.2Epatil.5CDocuments.5Crenesas.5CRH850_F1L_sample.5Ctoolchain.5CGHS.5Coutput.5Cobj.5Cr_tasks.60::
                        1307 .LDWlin60:
0000054e 0132           1308 	mov	1,r6
                        1309 	jarl	_R_LED_PwmStart,lp
                        1309 <EXPANSION BEGIN>
                        1309 jarl22 _R_LED_PwmStart , lp 
00000550 80ff0000*      1309 <EXPANSION END>
                        1310 --442:     R_LED_PwmStart(LEDB);
                        1311 --line442
                        1312 ..lin.C.3A.5CUsers.5Cnikhil.2Epatil.5CDocuments.5Crenesas.5CRH850_F1L_sample.5Ctoolchain.5CGHS.5Coutput.5Cobj.5Cr_tasks.61::
                        1313 .LDWlin61:
00000554 0232           1314 	mov	2,r6
                        1315 	jarl	_R_LED_PwmStart,lp
                        1315 <EXPANSION BEGIN>
                        1315 jarl22 _R_LED_PwmStart , lp 
00000556 80ff0000*      1315 <EXPANSION END>
                        1316 --443:     
                        1317 --444:     R_ADCA0_AssignLimitErrorCB(PwmErrorCallBack);
                        1318 --line444
                        1319 ..lin.C.3A.5CUsers.5Cnikhil.2Epatil.5CDocuments.5Crenesas.5CRH850_F1L_sample.5Ctoolchain.5CGHS.5Coutput.5Cobj.5Cr_tasks.62::
                        1320 .LDWlin62:
0000055a 260600000000*  1321 	mov	_PwmErrorCallBack,r6
                        1322 	jarl	_R_ADCA0_AssignLimitErrorCB,lp
                        1322 <EXPANSION BEGIN>
                        1322 jarl22 _R_ADCA0_AssignLimitErrorCB , lp 
00000560 80ff0000*      1322 <EXPANSION END>
                        1323 --445:     R_INTC_SetTableBit((uint16_t*)R_ICADCA0ERR);
                        1324 --line445
                        1325 ..lin.C.3A.5CUsers.5Cnikhil.2Epatil.5CDocuments.5Crenesas.5CRH850_F1L_sample.5Ctoolchain.5CGHS.5Coutput.5Cobj.5Cr_tasks.63::
                        1326 .LDWlin63:
00000564 20365ea0       1327 	movea	-24482,zero,r6
                        1328 	jarl	_R_INTC_SetTableBit,lp
                        1328 <EXPANSION BEGIN>
                        1328 jarl22 _R_INTC_SetTableBit , lp 
00000568 80ff0000*      1328 <EXPANSION END>
                        1329 --446:     R_INTC_UnmaskInterrupt((uint16_t*)R_ICADCA0ERR);
                        1330 --line446
                        1331 ..lin.C.3A.5CUsers.5Cnikhil.2Epatil.5CDocuments.5Crenesas.5CRH850_F1L_sample.5Ctoolchain.5CGHS.5Coutput.5Cobj.5Cr_tasks.64::
                        1332 .LDWlin64:
0000056c 20365ea0       1333 	movea	-24482,zero,r6
                        1334 	jarl	_R_INTC_UnmaskInterrupt,lp
                        1334 <EXPANSION BEGIN>
                        1334 jarl22 _R_INTC_UnmaskInterrupt , lp 
00000570 80ff0000*      1334 <EXPANSION END>
                        1335 --447:     R_ADCA0_SetUpperLowerLimit(0,1000,600);
                        1336 --line447
                        1337 ..lin.C.3A.5CUsers.5Cnikhil.2Epatil.5CDocuments.5Crenesas.5CRH850_F1L_sample.5Ctoolchain.5CGHS.5Coutput.5Cobj.5Cr_tasks.65::
                        1338 .LDWlin65:
00000574 0032           1339 	mov	0,r6
00000576 203ee803       1340 	movea	1000,zero,r7
0000057a 20465802       1341 	movea	600,zero,r8
                        1342 	jarl	_R_ADCA0_SetUpperLowerLimit,lp
                        1342 <EXPANSION BEGIN>
                        1342 jarl22 _R_ADCA0_SetUpperLowerLimit , lp 
0000057e 80ff0000*      1342 <EXPANSION END>
                        1343 --448:     R_ADCA0_PwsaTriggerEnable();
                        1344 --line448
                        1345 ..lin.C.3A.5CUsers.5Cnikhil.2Epatil.5CDocuments.5Crenesas.5CRH850_F1L_sample.5Ctoolchain.5CGHS.5Coutput.5Cobj.5Cr_tasks.66::
                        1346 .LDWlin66:
                        1347 	jarl	_R_ADCA0_PwsaTriggerEnable,lp
                        1347 <EXPANSION BEGIN>

                                                                      Page 25
                                                              C:\Users\NIKHIL~1.PAT\AppData\Local\Temp\gh_000aeoo1.s
                        1347 jarl22 _R_ADCA0_PwsaTriggerEnable , lp 
00000582 80ff0000*      1347 <EXPANSION END>
                        1348 --449:     R_PWMD_DiagStart();
                        1349 --line449
                        1350 ..lin.C.3A.5CUsers.5Cnikhil.2Epatil.5CDocuments.5Crenesas.5CRH850_F1L_sample.5Ctoolchain.5CGHS.5Coutput.5Cobj.5Cr_tasks.67::
                        1351 .LDWlin67:
                        1352 	jarl	_R_PWMD_DiagStart,lp
                        1352 <EXPANSION BEGIN>
                        1352 jarl22 _R_PWMD_DiagStart , lp 
00000586 80ff0000*      1352 <EXPANSION END>
                        1353 --450:       
                        1354 --451:     R_LED_RingOutputEnable();
                        1355 --line451
                        1356 ..lin.C.3A.5CUsers.5Cnikhil.2Epatil.5CDocuments.5Crenesas.5CRH850_F1L_sample.5Ctoolchain.5CGHS.5Coutput.5Cobj.5Cr_tasks.68::
                        1357 .LDWlin68:
                        1358 	jarl	_R_LED_RingOutputEnable,lp
                        1358 <EXPANSION BEGIN>
                        1358 jarl22 _R_LED_RingOutputEnable , lp 
0000058a 80ff0000*      1358 <EXPANSION END>
                        1359 --452:     
                        1360 --453:     /* Initial Encoder read */
                        1361 --454:     g_Enc1Value = R_ENCA0_Read();
                        1362 --line454
                        1363 ..lin.C.3A.5CUsers.5Cnikhil.2Epatil.5CDocuments.5Crenesas.5CRH850_F1L_sample.5Ctoolchain.5CGHS.5Coutput.5Cobj.5Cr_tasks.69::
                        1364 .LDWlin69:
                        1365 	jarl	_R_ENCA0_Read,lp
                        1365 <EXPANSION BEGIN>
                        1365 jarl22 _R_ENCA0_Read , lp 
0000058e 80ff0000*      1365 <EXPANSION END>
00000592 84070f500000*  1366 	st.w	r10,sdaoff23(_g_Enc1Value)[gp]
                        1367 --455:     g_Enc1Compare = g_Enc1Value;
                        1368 --line455
                        1369 ..lin.C.3A.5CUsers.5Cnikhil.2Epatil.5CDocuments.5Crenesas.5CRH850_F1L_sample.5Ctoolchain.5CGHS.5Coutput.5Cobj.5Cr_tasks.70::
                        1370 .LDWlin70:
00000598 840709080000*  1371 	ld.w	sdaoff23(_g_Enc1Value)[gp],r1
0000059e 84070f080000*  1372 	st.w	r1,sdaoff23(_g_Enc1Compare)[gp]
                        1373 --456:     
                        1374 --457:     if(loc_PatternNr > 15)
000005a4 a40707080000*  1375 	ld.hu	sdaoff23(.L1608)[gp],r1
000005aa 6f0a           1376 	cmp	15,r1
000005ac e30d*          1377 	bnh	.L966
                        1378 --458:     {
                        1379 --459:         R_LED_RingUpdate(~g_LEDRingPattern[loc_PatternNr-16]);
                        1380 --line459
                        1381 ..lin.C.3A.5CUsers.5Cnikhil.2Epatil.5CDocuments.5Crenesas.5CRH850_F1L_sample.5Ctoolchain.5CGHS.5Coutput.5Cobj.5Cr_tasks.71::
                        1382 .LDWlin71:
000005ae a40707080000*  1383 	ld.hu	sdaoff23(.L1608)[gp],r1
000005b4 1cf6e0ff       1384 	addi	-32,r28,ep
000005b8 c10a           1385 	shl	1,r1
000005ba c1f1           1386 	add	r1,ep
000005bc 7008           1387 	sld.hu	0[ep],r1
000005be 2130           1388 	not	r1,r6
000005c0 c600           1389 	zxh	r6
                        1390 	jarl	_R_LED_RingUpdate,lp
                        1390 <EXPANSION BEGIN>
                        1390 jarl22 _R_LED_RingUpdate , lp 
000005c2 80ff0000*      1390 <EXPANSION END>
000005c6 a50d*          1391 	br	.L968
                        1392 .L966:
                        1393 --460:     }
                        1394 --461:     else

                                                                      Page 26
                                                              C:\Users\NIKHIL~1.PAT\AppData\Local\Temp\gh_000aeoo1.s
                        1395 --462:     {
                        1396 --463:         R_LED_RingUpdate(g_LEDRingPattern[loc_PatternNr]);
                        1397 --line463
                        1398 ..lin.C.3A.5CUsers.5Cnikhil.2Epatil.5CDocuments.5Crenesas.5CRH850_F1L_sample.5Ctoolchain.5CGHS.5Coutput.5Cobj.5Cr_tasks.72::
                        1399 .LDWlin72:
000005c8 a40707080000*  1400 	ld.hu	sdaoff23(.L1608)[gp],r1
000005ce c10a           1401 	shl	1,r1
000005d0 01f0           1402 	mov	r1,ep
000005d2 dcf1           1403 	add	r28,ep
000005d4 7030           1404 	sld.hu	0[ep],r6
                        1405 	jarl	_R_LED_RingUpdate,lp
                        1405 <EXPANSION BEGIN>
                        1405 jarl22 _R_LED_RingUpdate , lp 
000005d6 80ff0000*      1405 <EXPANSION END>
                        1406 .L968:
                        1407 --464:     }
                        1408 --465:     
                        1409 --466:     R_SYSTEM_TimerStart();
                        1410 --line466
                        1411 ..lin.C.3A.5CUsers.5Cnikhil.2Epatil.5CDocuments.5Crenesas.5CRH850_F1L_sample.5Ctoolchain.5CGHS.5Coutput.5Cobj.5Cr_tasks.73::
                        1412 .LDWlin73:
                        1413 	jarl	_R_SYSTEM_TimerStart,lp
                        1413 <EXPANSION BEGIN>
                        1413 jarl22 _R_SYSTEM_TimerStart , lp 
000005da 80ff0000*      1413 <EXPANSION END>
                        1414 --467:     
                        1415 --468:     /* Enter Mode1 loop */
                        1416 --469:     while(g_SystemStatus.CurrentMode == R_MODE1)
                        1417 --line469
                        1418 ..lin.C.3A.5CUsers.5Cnikhil.2Epatil.5CDocuments.5Crenesas.5CRH850_F1L_sample.5Ctoolchain.5CGHS.5Coutput.5Cobj.5Cr_tasks.74::
                        1419 .LDWlin74:
000005de 8007d201*      1420 	br	.L969
                        1421 .L971:
                        1422 --470:     {
                        1423 --471:         /* Update LED1 and LED2 Duty Cycle depending on position of Potentiometer 1 */
                        1424 --472:         g_Pot1Value = R_ADCA0_PinRead(AP0_0);
                        1425 --line472
                        1426 ..lin.C.3A.5CUsers.5Cnikhil.2Epatil.5CDocuments.5Crenesas.5CRH850_F1L_sample.5Ctoolchain.5CGHS.5Coutput.5Cobj.5Cr_tasks.75::
                        1427 .LDWlin75:
000005e2 0032           1428 	mov	0,r6
                        1429 	jarl	_R_ADCA0_PinRead,lp
                        1429 <EXPANSION BEGIN>
                        1429 jarl22 _R_ADCA0_PinRead , lp 
000005e4 80ff0000*      1429 <EXPANSION END>
000005e8 84070f500000*  1430 	st.w	r10,sdaoff23(_g_Pot1Value)[gp]
                        1431 --473:         R_LED_SetPwmDuty(LED1, g_Pot1Value);
                        1432 --line473
                        1433 ..lin.C.3A.5CUsers.5Cnikhil.2Epatil.5CDocuments.5Crenesas.5CRH850_F1L_sample.5Ctoolchain.5CGHS.5Coutput.5Cobj.5Cr_tasks.76::
                        1434 .LDWlin76:
000005ee a40707380000*  1435 	ld.hu	sdaoff23(_g_Pot1Value)[gp],r7
000005f4 0332           1436 	mov	3,r6
                        1437 	jarl	_R_LED_SetPwmDuty,lp
                        1437 <EXPANSION BEGIN>
                        1437 jarl22 _R_LED_SetPwmDuty , lp 
000005f6 80ff0000*      1437 <EXPANSION END>
                        1438 --474:         if(g_Pot1Value <= 4050)
                        1439 --line474
                        1440 ..lin.C.3A.5CUsers.5Cnikhil.2Epatil.5CDocuments.5Crenesas.5CRH850_F1L_sample.5Ctoolchain.5CGHS.5Coutput.5Cobj.5Cr_tasks.77::
                        1441 .LDWlin77:
000005fa 840709080000*  1442 	ld.w	sdaoff23(_g_Pot1Value)[gp],r1
00000600 01062df0       1443 	addi	-4051,r1,zero

                                                                      Page 27
                                                              C:\Users\NIKHIL~1.PAT\AppData\Local\Temp\gh_000aeoo1.s
00000604 d10d*          1444 	bl	.L972
                        1445 --475:         {
                        1446 --476:             R_LED_SetPwmDuty(LED2, (4095-g_Pot1Value));
                        1447 --line476
                        1448 ..lin.C.3A.5CUsers.5Cnikhil.2Epatil.5CDocuments.5Crenesas.5CRH850_F1L_sample.5Ctoolchain.5CGHS.5Coutput.5Cobj.5Cr_tasks.78::
                        1449 .LDWlin78:
00000606 840709080000*  1450 	ld.w	sdaoff23(_g_Pot1Value)[gp],r1
0000060c 2016ff0f       1451 	movea	4095,zero,r2
00000610 0432           1452 	mov	4,r6
00000612 8209           1453 	subr	r2,r1
00000614 0138           1454 	mov	r1,r7
00000616 c700           1455 	zxh	r7
                        1456 	jarl	_R_LED_SetPwmDuty,lp
                        1456 <EXPANSION BEGIN>
                        1456 jarl22 _R_LED_SetPwmDuty , lp 
00000618 80ff0000*      1456 <EXPANSION END>
0000061c d505*          1457 	br	.L974
                        1458 .L972:
                        1459 --477:         }
                        1460 --478:         else
                        1461 --479:         {
                        1462 --480:             R_LED_SetPwmDuty(LED2, 0);
                        1463 --line480
                        1464 ..lin.C.3A.5CUsers.5Cnikhil.2Epatil.5CDocuments.5Crenesas.5CRH850_F1L_sample.5Ctoolchain.5CGHS.5Coutput.5Cobj.5Cr_tasks.79::
                        1465 .LDWlin79:
0000061e 0432           1466 	mov	4,r6
00000620 003a           1467 	mov	0,r7
                        1468 	jarl	_R_LED_SetPwmDuty,lp
                        1468 <EXPANSION BEGIN>
                        1468 jarl22 _R_LED_SetPwmDuty , lp 
00000622 80ff0000*      1468 <EXPANSION END>
                        1469 .L974:
                        1470 --481:         }
                        1471 --482:         
                        1472 --483:         /* Follow encoder position with LED ring */
                        1473 --484:         if(g_Enc1Compare != g_Enc1Value)
                        1474 --line484
                        1475 ..lin.C.3A.5CUsers.5Cnikhil.2Epatil.5CDocuments.5Crenesas.5CRH850_F1L_sample.5Ctoolchain.5CGHS.5Coutput.5Cobj.5Cr_tasks.80::
                        1476 .LDWlin80:
00000626 840709080000*  1477 	ld.w	sdaoff23(_g_Enc1Value)[gp],r1
0000062c 840709100000*  1478 	ld.w	sdaoff23(_g_Enc1Compare)[gp],r2
00000632 e111           1479 	cmp	r1,r2
00000634 e245*          1480 	be	.L975
                        1481 --485:         {
                        1482 --486:           g_SystemStatus.DeepSTOP_Counter = 0;
                        1483 --line486
                        1484 ..lin.C.3A.5CUsers.5Cnikhil.2Epatil.5CDocuments.5Crenesas.5CRH850_F1L_sample.5Ctoolchain.5CGHS.5Coutput.5Cobj.5Cr_tasks.81::
                        1485 .LDWlin81:
00000636 7d070d00       1486 	st.w	zero,12[r29]
                        1487 --487:           if(R_ENCA0_GetFlags() & R_ENCA_DOWN_COUNT)
                        1488 	jarl	_R_ENCA0_GetFlags,lp
                        1488 <EXPANSION BEGIN>
                        1488 jarl22 _R_ENCA0_GetFlags , lp 
0000063a 80ff0000*      1488 <EXPANSION END>
0000063e 8352           1489 	shr	3,r10
00000640 b915*          1490 	bnl	.L977
                        1491 --488:           {
                        1492 --489:               if(loc_PatternNr == 31)
                        1493 --line489
                        1494 ..lin.C.3A.5CUsers.5Cnikhil.2Epatil.5CDocuments.5Crenesas.5CRH850_F1L_sample.5Ctoolchain.5CGHS.5Coutput.5Cobj.5Cr_tasks.82::
                        1495 .LDWlin82:

                                                                      Page 28
                                                              C:\Users\NIKHIL~1.PAT\AppData\Local\Temp\gh_000aeoo1.s
00000642 a40707080000*  1496 	ld.hu	sdaoff23(.L1608)[gp],r1
00000648 0106e1ff       1497 	addi	-31,r1,zero
0000064c da05*          1498 	bne	.L979
                        1499 --490:               {
                        1500 --491:                   loc_PatternNr = 0;
                        1501 --line491
                        1502 ..lin.C.3A.5CUsers.5Cnikhil.2Epatil.5CDocuments.5Crenesas.5CRH850_F1L_sample.5Ctoolchain.5CGHS.5Coutput.5Cobj.5Cr_tasks.83::
                        1503 .LDWlin83:
0000064e a4070d000000*  1504 	st.h	zero,sdaoff23(.L1608)[gp]
00000654 b51d*          1505 	br	.L982
                        1506 .L979:
                        1507 --492:               }
                        1508 --493:               else
                        1509 --494:               {
                        1510 --495:                   loc_PatternNr++;
                        1511 --line495
                        1512 ..lin.C.3A.5CUsers.5Cnikhil.2Epatil.5CDocuments.5Crenesas.5CRH850_F1L_sample.5Ctoolchain.5CGHS.5Coutput.5Cobj.5Cr_tasks.84::
                        1513 .LDWlin84:
00000656 a40707080000*  1514 	ld.hu	sdaoff23(.L1608)[gp],r1
0000065c 410a           1515 	add	1,r1
0000065e a4070d080000*  1516 	st.h	r1,sdaoff23(.L1608)[gp]
00000664 b515*          1517 	br	.L982
                        1518 .L977:
                        1519 --496:               }
                        1520 --497:           }
                        1521 --498:           else
                        1522 --499:           {
                        1523 --500:               if(loc_PatternNr == 0)
                        1524 --line500
                        1525 ..lin.C.3A.5CUsers.5Cnikhil.2Epatil.5CDocuments.5Crenesas.5CRH850_F1L_sample.5Ctoolchain.5CGHS.5Coutput.5Cobj.5Cr_tasks.85::
                        1526 .LDWlin85:
00000666 a40707080000*  1527 	ld.hu	sdaoff23(.L1608)[gp],r1
0000066c e009           1528 	cmp	zero,r1
0000066e fa05*          1529 	bne	.L983
                        1530 --501:               {
                        1531 --502:                   loc_PatternNr = 31;
                        1532 --line502
                        1533 ..lin.C.3A.5CUsers.5Cnikhil.2Epatil.5CDocuments.5Crenesas.5CRH850_F1L_sample.5Ctoolchain.5CGHS.5Coutput.5Cobj.5Cr_tasks.86::
                        1534 .LDWlin86:
00000670 200e1f00       1535 	movea	31,zero,r1
00000674 a4070d080000*  1536 	st.h	r1,sdaoff23(.L1608)[gp]
0000067a 850d*          1537 	br	.L982
                        1538 .L983:
                        1539 --503:               }
                        1540 --504:               else
                        1541 --505:               {
                        1542 --506:                   loc_PatternNr--;
                        1543 --line506
                        1544 ..lin.C.3A.5CUsers.5Cnikhil.2Epatil.5CDocuments.5Crenesas.5CRH850_F1L_sample.5Ctoolchain.5CGHS.5Coutput.5Cobj.5Cr_tasks.87::
                        1545 .LDWlin87:
0000067c a40707080000*  1546 	ld.hu	sdaoff23(.L1608)[gp],r1
00000682 5f0a           1547 	add	-1,r1
00000684 a4070d080000*  1548 	st.h	r1,sdaoff23(.L1608)[gp]
                        1549 .L982:
                        1550 --507:               }
                        1551 --508:           }
                        1552 --509:           if(loc_PatternNr > 15)
0000068a a40707080000*  1553 	ld.hu	sdaoff23(.L1608)[gp],r1
00000690 6f0a           1554 	cmp	15,r1
00000692 e30d*          1555 	bnh	.L986
                        1556 --510:           {

                                                                      Page 29
                                                              C:\Users\NIKHIL~1.PAT\AppData\Local\Temp\gh_000aeoo1.s
                        1557 --511:               R_LED_RingUpdate(~g_LEDRingPattern[loc_PatternNr-16]);
                        1558 --line511
                        1559 ..lin.C.3A.5CUsers.5Cnikhil.2Epatil.5CDocuments.5Crenesas.5CRH850_F1L_sample.5Ctoolchain.5CGHS.5Coutput.5Cobj.5Cr_tasks.88::
                        1560 .LDWlin88:
00000694 a40707080000*  1561 	ld.hu	sdaoff23(.L1608)[gp],r1
0000069a 1cf6e0ff       1562 	addi	-32,r28,ep
0000069e c10a           1563 	shl	1,r1
000006a0 c1f1           1564 	add	r1,ep
000006a2 7008           1565 	sld.hu	0[ep],r1
000006a4 2130           1566 	not	r1,r6
000006a6 c600           1567 	zxh	r6
                        1568 	jarl	_R_LED_RingUpdate,lp
                        1568 <EXPANSION BEGIN>
                        1568 jarl22 _R_LED_RingUpdate , lp 
000006a8 80ff0000*      1568 <EXPANSION END>
000006ac a50d*          1569 	br	.L975
                        1570 .L986:
                        1571 --512:           }
                        1572 --513:           else
                        1573 --514:           {
                        1574 --515:               R_LED_RingUpdate(g_LEDRingPattern[loc_PatternNr]);
                        1575 --line515
                        1576 ..lin.C.3A.5CUsers.5Cnikhil.2Epatil.5CDocuments.5Crenesas.5CRH850_F1L_sample.5Ctoolchain.5CGHS.5Coutput.5Cobj.5Cr_tasks.89::
                        1577 .LDWlin89:
000006ae a40707080000*  1578 	ld.hu	sdaoff23(.L1608)[gp],r1
000006b4 c10a           1579 	shl	1,r1
000006b6 01f0           1580 	mov	r1,ep
000006b8 dcf1           1581 	add	r28,ep
000006ba 7030           1582 	sld.hu	0[ep],r6
                        1583 	jarl	_R_LED_RingUpdate,lp
                        1583 <EXPANSION BEGIN>
                        1583 jarl22 _R_LED_RingUpdate , lp 
000006bc 80ff0000*      1583 <EXPANSION END>
                        1584 .L975:
                        1585 --516:           }
                        1586 --517:         }
                        1587 --518:         g_Enc1Compare = g_Enc1Value;
                        1588 --line518
                        1589 ..lin.C.3A.5CUsers.5Cnikhil.2Epatil.5CDocuments.5Crenesas.5CRH850_F1L_sample.5Ctoolchain.5CGHS.5Coutput.5Cobj.5Cr_tasks.90::
                        1590 .LDWlin90:
000006c0 840709080000*  1591 	ld.w	sdaoff23(_g_Enc1Value)[gp],r1
000006c6 84070f080000*  1592 	st.w	r1,sdaoff23(_g_Enc1Compare)[gp]
                        1593 --519:     
                        1594 --520:         g_Enc1Value = R_ENCA0_Read();
                        1595 	jarl	_R_ENCA0_Read,lp
                        1595 <EXPANSION BEGIN>
                        1595 jarl22 _R_ENCA0_Read , lp 
000006cc 80ff0000*      1595 <EXPANSION END>
000006d0 84070f500000*  1596 	st.w	r10,sdaoff23(_g_Enc1Value)[gp]
                        1597 --521:     
                        1598 --523:         /* Print RGB LED diagnostic information */
                        1599 --524:         RgbLedDiagOutput();
                        1600 --line524
                        1601 ..lin.C.3A.5CUsers.5Cnikhil.2Epatil.5CDocuments.5Crenesas.5CRH850_F1L_sample.5Ctoolchain.5CGHS.5Coutput.5Cobj.5Cr_tasks.91::
                        1602 .LDWlin91:
                        1603 	jarl	_RgbLedDiagOutput,lp
                        1603 <EXPANSION BEGIN>
                        1603 jarl22 _RgbLedDiagOutput , lp 
000006d6 bfffd8f9*      1603 <EXPANSION END>
                        1604 --525:                
                        1605 --526:         /* Print time to DeepSTOP and Pot1 position via UART */

                                                                      Page 30
                                                              C:\Users\NIKHIL~1.PAT\AppData\Local\Temp\gh_000aeoo1.s
                        1606 --527:         if(!(g_SystemStatus.System_Counter % STATUS_UPDATE_INTERVAL))
                        1607 --line527
                        1608 ..lin.C.3A.5CUsers.5Cnikhil.2Epatil.5CDocuments.5Crenesas.5CRH850_F1L_sample.5Ctoolchain.5CGHS.5Coutput.5Cobj.5Cr_tasks.92::
                        1609 .LDWlin92:
000006da 3d0f0900       1610 	ld.w	8[r29],r1
000006de 20166400       1611 	movea	100,zero,r2
000006e2 e20ffe0a       1612 	divqu	r2,r1,r1
000006e6 e009           1613 	cmp	zero,r1
000006e8 ea1d*          1614 	bne	.L989
                        1615 --528:         {
                        1616 --529:             PrintStatus();
                        1617 --line529
                        1618 ..lin.C.3A.5CUsers.5Cnikhil.2Epatil.5CDocuments.5Crenesas.5CRH850_F1L_sample.5Ctoolchain.5CGHS.5Coutput.5Cobj.5Cr_tasks.93::
                        1619 .LDWlin93:
                        1620 	jarl	_PrintStatus,lp
                        1620 <EXPANSION BEGIN>
                        1620 jarl22 _PrintStatus , lp 
000006ea bfffbefc*      1620 <EXPANSION END>
                        1621 --530:             
                        1622 --531:             /* If Pot1 was changed more than DEEPSTOP_POTI_SENSE (defined in r_system.h), reset DeepSTOP counter */
                        1623 --532:             if(g_Pot1Value > loc_tmpPot1)
                        1624 --line532
                        1625 ..lin.C.3A.5CUsers.5Cnikhil.2Epatil.5CDocuments.5Crenesas.5CRH850_F1L_sample.5Ctoolchain.5CGHS.5Coutput.5Cobj.5Cr_tasks.94::
                        1626 .LDWlin94:
000006ee 840709080000*  1627 	ld.w	sdaoff23(_g_Pot1Value)[gp],r1
000006f4 f909           1628 	cmp	r25,r1
000006f6 b30d*          1629 	bnh	.L991
                        1630 --533:             {
                        1631 --534:                 if((g_Pot1Value - loc_tmpPot1)>DEEPSTOP_POTI_SENSE)
                        1632 --line534
                        1633 ..lin.C.3A.5CUsers.5Cnikhil.2Epatil.5CDocuments.5Crenesas.5CRH850_F1L_sample.5Ctoolchain.5CGHS.5Coutput.5Cobj.5Cr_tasks.95::
                        1634 .LDWlin95:
000006f8 840709080000*  1635 	ld.w	sdaoff23(_g_Pot1Value)[gp],r1
000006fe b909           1636 	sub	r25,r1
00000700 0106fffe       1637 	addi	-257,r1,zero
00000704 d90d*          1638 	bnl	.L995
                        1639 --535:                 {
                        1640 --536:                     g_SystemStatus.DeepSTOP_Counter = 0;
                        1641 --line536
                        1642 ..lin.C.3A.5CUsers.5Cnikhil.2Epatil.5CDocuments.5Crenesas.5CRH850_F1L_sample.5Ctoolchain.5CGHS.5Coutput.5Cobj.5Cr_tasks.96::
                        1643 .LDWlin96:
00000706 7d070d00       1644 	st.w	zero,12[r29]
0000070a a50d*          1645 	br	.L995
                        1646 .L991:
                        1647 --537:                 }
                        1648 --538:             }
                        1649 --539:             else
                        1650 --540:             {
                        1651 --541:                 if((loc_tmpPot1 - g_Pot1Value)>DEEPSTOP_POTI_SENSE)
                        1652 --line541
                        1653 ..lin.C.3A.5CUsers.5Cnikhil.2Epatil.5CDocuments.5Crenesas.5CRH850_F1L_sample.5Ctoolchain.5CGHS.5Coutput.5Cobj.5Cr_tasks.97::
                        1654 .LDWlin97:
0000070c 840709080000*  1655 	ld.w	sdaoff23(_g_Pot1Value)[gp],r1
00000712 9909           1656 	subr	r25,r1
00000714 0106fffe       1657 	addi	-257,r1,zero
00000718 b905*          1658 	bnl	.L995
                        1659 --542:                 {
                        1660 --543:                     g_SystemStatus.DeepSTOP_Counter = 0;
                        1661 --line543
                        1662 ..lin.C.3A.5CUsers.5Cnikhil.2Epatil.5CDocuments.5Crenesas.5CRH850_F1L_sample.5Ctoolchain.5CGHS.5Coutput.5Cobj.5Cr_tasks.98::
                        1663 .LDWlin98:

                                                                      Page 31
                                                              C:\Users\NIKHIL~1.PAT\AppData\Local\Temp\gh_000aeoo1.s
0000071a 7d070d00       1664 	st.w	zero,12[r29]
                        1665 .L995:
                        1666 --544:                 }
                        1667 --545:             }
                        1668 --546:             loc_tmpPot1 = g_Pot1Value;
0000071e a40707c80000*  1669 	ld.hu	sdaoff23(_g_Pot1Value)[gp],r25
                        1670 .L989:
                        1671 --547:         }
                        1672 --548:         
                        1673 --549:         /* Check buttons */
                        1674 --550:         loc_ButtonS1State = R_UI_ButtonS1_Handler();
                        1675 	jarl	_R_UI_ButtonS1_Handler,lp
                        1675 <EXPANSION BEGIN>
                        1675 jarl22 _R_UI_ButtonS1_Handler , lp 
00000724 80ff0000*      1675 <EXPANSION END>
00000728 0ac0           1676 	mov	r10,r24
                        1677 --551:         loc_ButtonEnc1State = R_UI_ButtonEnc1_Handler();
                        1678 --line551
                        1679 ..lin.C.3A.5CUsers.5Cnikhil.2Epatil.5CDocuments.5Crenesas.5CRH850_F1L_sample.5Ctoolchain.5CGHS.5Coutput.5Cobj.5Cr_tasks.99::
                        1680 .LDWlin99:
                        1681 	jarl	_R_UI_ButtonEnc1_Handler,lp
                        1681 <EXPANSION BEGIN>
                        1681 jarl22 _R_UI_ButtonEnc1_Handler , lp 
0000072a 80ff0000*      1681 <EXPANSION END>
0000072e 0ab8           1682 	mov	r10,r23
                        1683 --552:         if(loc_ButtonS1State == R_BUTTON_PRESSED_SHORT)
                        1684 --line552
                        1685 ..lin.C.3A.5CUsers.5Cnikhil.2Epatil.5CDocuments.5Crenesas.5CRH850_F1L_sample.5Ctoolchain.5CGHS.5Coutput.5Cobj.5Cr_tasks.100::
                        1686 .LDWlin100:
00000730 62c2           1687 	cmp	2,r24
00000732 ca0d*          1688 	bne	.L998
                        1689 --553:         {
                        1690 --554:             PrintText("\r>>Button short pressed: switch to mode 2...         \n\r");
                        1691 --line554
                        1692 ..lin.C.3A.5CUsers.5Cnikhil.2Epatil.5CDocuments.5Crenesas.5CRH850_F1L_sample.5Ctoolchain.5CGHS.5Coutput.5Cobj.5Cr_tasks.101::
                        1693 .LDWlin101:
00000734 260600000000*  1694 	mov	.L1609,r6
                        1695 	jarl	_PrintText,lp
                        1695 <EXPANSION BEGIN>
                        1695 jarl22 _PrintText , lp 
0000073a bfffc6f8*      1695 <EXPANSION END>
                        1696 --555:             g_SystemStatus.CurrentMode = R_MODE2;
                        1697 --line555
                        1698 ..lin.C.3A.5CUsers.5Cnikhil.2Epatil.5CDocuments.5Crenesas.5CRH850_F1L_sample.5Ctoolchain.5CGHS.5Coutput.5Cobj.5Cr_tasks.102::
                        1699 .LDWlin102:
0000073e 020a           1700 	mov	2,r1
00000740 7d0f0100       1701 	st.w	r1,0[r29]
                        1702 --556:             g_SystemStatus.PreviousMode = R_MODE1;
00000744 010a           1703 	mov	1,r1
00000746 7d0f0500       1704 	st.w	r1,4[r29]
                        1705 .L998:
                        1706 --557:         }
                        1707 --558:         
                        1708 --559:         if(loc_ButtonEnc1State == R_BUTTON_PRESSED_SHORT)
0000074a 62ba           1709 	cmp	2,r23
0000074c da05*          1710 	bne	.L1000
                        1711 --560:         {
                        1712 --561:           
                        1713 --562:           g_SystemStatus.DeepSTOP_Counter = 0;
                        1714 --line562
                        1715 ..lin.C.3A.5CUsers.5Cnikhil.2Epatil.5CDocuments.5Crenesas.5CRH850_F1L_sample.5Ctoolchain.5CGHS.5Coutput.5Cobj.5Cr_tasks.103::

                                                                      Page 32
                                                              C:\Users\NIKHIL~1.PAT\AppData\Local\Temp\gh_000aeoo1.s
                        1716 .LDWlin103:
0000074e 7d070d00       1717 	st.w	zero,12[r29]
                        1718 --563:           SwitchRGBColor();
                        1719 	jarl	_SwitchRGBColor,lp
                        1719 <EXPANSION BEGIN>
                        1719 jarl22 _SwitchRGBColor , lp 
00000752 bfffcafc*      1719 <EXPANSION END>
                        1720 .L1000:
                        1721 --564:         }
                        1722 --565:         
                        1723 --566:         if(loc_ButtonS1State == R_BUTTON_PRESSED_LONG)
                        1724 --line566
                        1725 ..lin.C.3A.5CUsers.5Cnikhil.2Epatil.5CDocuments.5Crenesas.5CRH850_F1L_sample.5Ctoolchain.5CGHS.5Coutput.5Cobj.5Cr_tasks.104::
                        1726 .LDWlin104:
00000756 63c2           1727 	cmp	3,r24
00000758 ca0d*          1728 	bne	.L1002
                        1729 --567:         {
                        1730 --568:           PrintText("\r>>Button long pressed: enter DeepSTOP...\n\r");
                        1731 --line568
                        1732 ..lin.C.3A.5CUsers.5Cnikhil.2Epatil.5CDocuments.5Crenesas.5CRH850_F1L_sample.5Ctoolchain.5CGHS.5Coutput.5Cobj.5Cr_tasks.105::
                        1733 .LDWlin105:
0000075a 260600000000*  1734 	mov	.L1610,r6
                        1735 	jarl	_PrintText,lp
                        1735 <EXPANSION BEGIN>
                        1735 jarl22 _PrintText , lp 
00000760 bfffa0f8*      1735 <EXPANSION END>
                        1736 --569:           g_SystemStatus.CurrentMode = R_DEEPSTOP;
                        1737 --line569
                        1738 ..lin.C.3A.5CUsers.5Cnikhil.2Epatil.5CDocuments.5Crenesas.5CRH850_F1L_sample.5Ctoolchain.5CGHS.5Coutput.5Cobj.5Cr_tasks.106::
                        1739 .LDWlin106:
00000764 030a           1740 	mov	3,r1
00000766 7d0f0100       1741 	st.w	r1,0[r29]
                        1742 --570:           g_SystemStatus.PreviousMode = R_MODE1;
0000076a 010a           1743 	mov	1,r1
0000076c 7d0f0500       1744 	st.w	r1,4[r29]
                        1745 .L1002:
                        1746 --571:         }
                        1747 --572:         
                        1748 --573: 		/* Enter DeepSTOP after 30s */
                        1749 --574: 		if(g_SystemStatus.DeepSTOP_Counter >= DEEPSTOP_COUNT_DOWN)      
00000770 3d0f0d00       1750 	ld.w	12[r29],r1
00000774 0106d08a       1751 	addi	-30000,r1,zero
00000778 8915*          1752 	bnl	.L1004
                        1753 --575:         {                                        
                        1754 --576:             PrintText("\r>>30s without action - enter DeepSTOP\n\r");
                        1755 --line576
                        1756 ..lin.C.3A.5CUsers.5Cnikhil.2Epatil.5CDocuments.5Crenesas.5CRH850_F1L_sample.5Ctoolchain.5CGHS.5Coutput.5Cobj.5Cr_tasks.107::
                        1757 .LDWlin107:
0000077a 260600000000*  1758 	mov	.L1611,r6
                        1759 	jarl	_PrintText,lp
                        1759 <EXPANSION BEGIN>
                        1759 jarl22 _PrintText , lp 
00000780 bfff80f8*      1759 <EXPANSION END>
                        1760 --577:             while(R_RLIN30_GetStatus() == RLIN_BUSY){}
                        1761 .L1006:
                        1762 --line577
                        1763 ..lin.C.3A.5CUsers.5Cnikhil.2Epatil.5CDocuments.5Crenesas.5CRH850_F1L_sample.5Ctoolchain.5CGHS.5Coutput.5Cobj.5Cr_tasks.108::
                        1764 .LDWlin108:
                        1765 	jarl	_R_RLIN30_GetStatus,lp
                        1765 <EXPANSION BEGIN>
                        1765 jarl22 _R_RLIN30_GetStatus , lp 

                                                                      Page 33
                                                              C:\Users\NIKHIL~1.PAT\AppData\Local\Temp\gh_000aeoo1.s
00000784 80ff0000*      1765 <EXPANSION END>
00000788 6452           1766 	cmp	4,r10
0000078a d2fd*          1767 	be	.L1006
                        1768 --578:             g_SystemStatus.CurrentMode = R_DEEPSTOP;
                        1769 --line578
                        1770 ..lin.C.3A.5CUsers.5Cnikhil.2Epatil.5CDocuments.5Crenesas.5CRH850_F1L_sample.5Ctoolchain.5CGHS.5Coutput.5Cobj.5Cr_tasks.109::
                        1771 .LDWlin109:
0000078c 030a           1772 	mov	3,r1
0000078e 7d0f0100       1773 	st.w	r1,0[r29]
                        1774 --579:             g_SystemStatus.PreviousMode = R_MODE1;                                    
00000792 010a           1775 	mov	1,r1
00000794 7d0f0500       1776 	st.w	r1,4[r29]
                        1777 .L1004:
                        1778 --580:         }
                        1779 --581:     
                        1780 --582:         /* Wait for 1ms System Timer tick */
                        1781 --583:         R_SYSTEM_TimerTick();
                        1782 	jarl	_R_SYSTEM_TimerTick,lp
                        1782 <EXPANSION BEGIN>
                        1782 jarl22 _R_SYSTEM_TimerTick , lp 
00000798 80ff0000*      1782 <EXPANSION END>
                        1783 --584:     	/* Increment global counter */
                        1784 --585:         g_SystemStatus.System_Counter++;
                        1785 --line585
                        1786 ..lin.C.3A.5CUsers.5Cnikhil.2Epatil.5CDocuments.5Crenesas.5CRH850_F1L_sample.5Ctoolchain.5CGHS.5Coutput.5Cobj.5Cr_tasks.110::
                        1787 .LDWlin110:
0000079c 3d0f0900       1788 	ld.w	8[r29],r1
000007a0 410a           1789 	add	1,r1
000007a2 7d0f0900       1790 	st.w	r1,8[r29]
                        1791 --586:         g_SystemStatus.DeepSTOP_Counter++;
000007a6 3d0f0d00       1792 	ld.w	12[r29],r1
000007aa 410a           1793 	add	1,r1
000007ac 7d0f0d00       1794 	st.w	r1,12[r29]
                        1795 .L969:
000007b0 3d0f0100       1796 	ld.w	0[r29],r1
000007b4 610a           1797 	cmp	1,r1
000007b6 f2072dfe*      1798 	be	.L971
                        1799 --587:     } 
                        1800 --588:     
                        1801 --589:     /* Leave Mode1 */
                        1802 --590:        
                        1803 --591:     R_LED_PwmStop(LED1);
                        1804 --line591
                        1805 ..lin.C.3A.5CUsers.5Cnikhil.2Epatil.5CDocuments.5Crenesas.5CRH850_F1L_sample.5Ctoolchain.5CGHS.5Coutput.5Cobj.5Cr_tasks.111::
                        1806 .LDWlin111:
000007ba 0332           1807 	mov	3,r6
                        1808 	jarl	_R_LED_PwmStop,lp
                        1808 <EXPANSION BEGIN>
                        1808 jarl22 _R_LED_PwmStop , lp 
000007bc 80ff0000*      1808 <EXPANSION END>
                        1809 --592:     R_LED_PwmStop(LED2);
                        1810 --line592
                        1811 ..lin.C.3A.5CUsers.5Cnikhil.2Epatil.5CDocuments.5Crenesas.5CRH850_F1L_sample.5Ctoolchain.5CGHS.5Coutput.5Cobj.5Cr_tasks.112::
                        1812 .LDWlin112:
000007c0 0432           1813 	mov	4,r6
                        1814 	jarl	_R_LED_PwmStop,lp
                        1814 <EXPANSION BEGIN>
                        1814 jarl22 _R_LED_PwmStop , lp 
000007c2 80ff0000*      1814 <EXPANSION END>
                        1815 --593:     R_LED_PwmStop(LEDR);
                        1816 --line593

                                                                      Page 34
                                                              C:\Users\NIKHIL~1.PAT\AppData\Local\Temp\gh_000aeoo1.s
                        1817 ..lin.C.3A.5CUsers.5Cnikhil.2Epatil.5CDocuments.5Crenesas.5CRH850_F1L_sample.5Ctoolchain.5CGHS.5Coutput.5Cobj.5Cr_tasks.113::
                        1818 .LDWlin113:
000007c6 0032           1819 	mov	0,r6
                        1820 	jarl	_R_LED_PwmStop,lp
                        1820 <EXPANSION BEGIN>
                        1820 jarl22 _R_LED_PwmStop , lp 
000007c8 80ff0000*      1820 <EXPANSION END>
                        1821 --594:     R_LED_PwmStop(LEDG);
                        1822 --line594
                        1823 ..lin.C.3A.5CUsers.5Cnikhil.2Epatil.5CDocuments.5Crenesas.5CRH850_F1L_sample.5Ctoolchain.5CGHS.5Coutput.5Cobj.5Cr_tasks.114::
                        1824 .LDWlin114:
000007cc 0132           1825 	mov	1,r6
                        1826 	jarl	_R_LED_PwmStop,lp
                        1826 <EXPANSION BEGIN>
                        1826 jarl22 _R_LED_PwmStop , lp 
000007ce 80ff0000*      1826 <EXPANSION END>
                        1827 --595:     R_LED_PwmStop(LEDB);
                        1828 --line595
                        1829 ..lin.C.3A.5CUsers.5Cnikhil.2Epatil.5CDocuments.5Crenesas.5CRH850_F1L_sample.5Ctoolchain.5CGHS.5Coutput.5Cobj.5Cr_tasks.115::
                        1830 .LDWlin115:
000007d2 0232           1831 	mov	2,r6
                        1832 	jarl	_R_LED_PwmStop,lp
                        1832 <EXPANSION BEGIN>
                        1832 jarl22 _R_LED_PwmStop , lp 
000007d4 80ff0000*      1832 <EXPANSION END>
                        1833 --596:     R_LED_RingOutputDisable();
                        1834 --line596
                        1835 ..lin.C.3A.5CUsers.5Cnikhil.2Epatil.5CDocuments.5Crenesas.5CRH850_F1L_sample.5Ctoolchain.5CGHS.5Coutput.5Cobj.5Cr_tasks.116::
                        1836 .LDWlin116:
                        1837 	jarl	_R_LED_RingOutputDisable,lp
                        1837 <EXPANSION BEGIN>
                        1837 jarl22 _R_LED_RingOutputDisable , lp 
000007d8 80ff0000*      1837 <EXPANSION END>
                        1838 --597:     
                        1839 --598:         /* wait for PWM channels to stop */
                        1840 --599:     for(loc_i=0; loc_i<5; loc_i++)
                        1841 --line599
                        1842 ..lin.C.3A.5CUsers.5Cnikhil.2Epatil.5CDocuments.5Crenesas.5CRH850_F1L_sample.5Ctoolchain.5CGHS.5Coutput.5Cobj.5Cr_tasks.117::
                        1843 .LDWlin117:
000007dc 00da           1844 	mov	0,r27
000007de 0000           1845 	nop
                        1846 .L1011:
                        1847 --600:     {
                        1848 --601:       R_SYSTEM_TimerTick();
                        1849 	jarl	_R_SYSTEM_TimerTick,lp
                        1849 <EXPANSION BEGIN>
                        1849 jarl22 _R_SYSTEM_TimerTick , lp 
000007e0 80ff0000*      1849 <EXPANSION END>
                        1850 --line599
                        1851 ..lin.C.3A.5CUsers.5Cnikhil.2Epatil.5CDocuments.5Crenesas.5CRH850_F1L_sample.5Ctoolchain.5CGHS.5Coutput.5Cobj.5Cr_tasks.118::
                        1852 .LDWlin118:
000007e4 41da           1853 	add	1,r27
000007e6 65da           1854 	cmp	5,r27
000007e8 c1fd*          1855 	bl	.L1011
                        1856 --602:     }
                        1857 --603:     R_SYSTEM_TimerStop();
                        1858 --line603
                        1859 ..lin.C.3A.5CUsers.5Cnikhil.2Epatil.5CDocuments.5Crenesas.5CRH850_F1L_sample.5Ctoolchain.5CGHS.5Coutput.5Cobj.5Cr_tasks.119::
                        1860 .LDWlin119:
                        1861 	jarl	_R_SYSTEM_TimerStop,lp
                        1861 <EXPANSION BEGIN>

                                                                      Page 35
                                                              C:\Users\NIKHIL~1.PAT\AppData\Local\Temp\gh_000aeoo1.s
                        1861 jarl22 _R_SYSTEM_TimerStop , lp 
000007ea 80ff0000*      1861 <EXPANSION END>
                        1862 --604: }
                        1863 --	    .ef
                        1864 .LDW52:
                        1865 --line604
                        1866 ..lin.C.3A.5CUsers.5Cnikhil.2Epatil.5CDocuments.5Crenesas.5CRH850_F1L_sample.5Ctoolchain.5CGHS.5Coutput.5Cobj.5Cr_tasks.120::
                        1867 .LDWlin120:
000007ee 23ff1d00       1868 	ld.w	28[sp],lp
000007f2 23ef0100       1869 	ld.w	0[sp],r29
000007f6 23e70500       1870 	ld.w	4[sp],r28
000007fa 23df0900       1871 	ld.w	8[sp],r27
000007fe 23d70d00       1872 	ld.w	12[sp],r26
00000802 23cf1100       1873 	ld.w	16[sp],r25
00000806 23c71500       1874 	ld.w	20[sp],r24
0000080a 23bf1900       1875 	ld.w	24[sp],r23
0000080e 031e2000       1876 	addi	32,sp,sp
00000812 7f00           1877 	jmp	[lp]
                        1878 	.global	___ghs_eofn_Mode1
                        1879 ___ghs_eofn_Mode1:
                        1880 	.type	_Mode1,@function
                        1881 	.size	_Mode1,.-_Mode1
                        1882 	.align	2
                        1883 --_loc_PatternNr	sdaoff23(.L1608)	static
                        1884 --_loc_ButtonS1State	r24	local
                        1885 --_loc_ButtonEnc1State	r23	local
                        1886 --_loc_tmpPot1	r25	local
                        1887 --_loc_i	r27	local
                        1888 --.L1411	.L1609	static
                        1889 --.L1412	.L1610	static
                        1890 --.L1413	.L1611	static
                        1891 
                        1892 	.section ".bss","awb"
                        1893 .L1410:
                        1894 	.type	.L1410,@object
                        1895 	.size	.L1410,0
                        1896 	.section ".sdata","aw"
                        1897 .L1608:
                        1898 	.global	_loc_PatternNr.Mode1.C.3A.5CUsers.5Cnikhil.2Epatil.5CDocuments.5Crenesas.5CRH850_F1L_sample.5Ctoolchain.5CGHS.5Coutput.5Cobj.5Cr_tasks..7
                        1899 _loc_PatternNr.Mode1.C.3A.5CUsers.5Cnikhil.2Epatil.5CDocuments.5Crenesas.5CRH850_F1L_sample.5Ctoolchain.5CGHS.5Coutput.5Cobj.5Cr_tasks..7:
00000018 0000           1900 	.byte	0,0
                        1901 	.type	_loc_PatternNr.Mode1.C.3A.5CUsers.5Cnikhil.2Epatil.5CDocuments.5Crenesas.5CRH850_F1L_sample.5Ctoolchain.5CGHS.5Coutput.5Cobj.5Cr_tasks..7,@object
                        1902 	.size	_loc_PatternNr.Mode1.C.3A.5CUsers.5Cnikhil.2Epatil.5CDocuments.5Crenesas.5CRH850_F1L_sample.5Ctoolchain.5CGHS.5Coutput.5Cobj.5Cr_tasks..7,2
                        1903 	.type	.L1608,@object
                        1904 	.size	.L1608,2
                        1905 	.section ".rodata","a"
                        1906 .L1609:--	"\r>>Button short pressed: switch to mode 2...         \n\r"
00000088 0d3e3e42       1907 	.byte	13,62,62,66
0000008c 7574746f       1908 	.byte	117,116,116,111
00000090 6e207368       1909 	.byte	110,32,115,104
00000094 6f727420       1910 	.byte	111,114,116,32
00000098 70726573       1911 	.byte	112,114,101,115
0000009c 7365643a       1912 	.byte	115,101,100,58
000000a0 20737769       1913 	.byte	32,115,119,105
000000a4 74636820       1914 	.byte	116,99,104,32
000000a8 746f206d       1915 	.byte	116,111,32,109
000000ac 6f646520       1916 	.byte	111,100,101,32
000000b0 322e2e2e       1917 	.byte	50,46,46,46
000000b4 20202020       1918 	.byte	32,32,32,32
000000b8 20202020       1919 	.byte	32,32,32,32
000000bc 200a0d00       1920 	.byte	32,10,13,0

                                                                      Page 36
                                                              C:\Users\NIKHIL~1.PAT\AppData\Local\Temp\gh_000aeoo1.s
                        1921 	.type	.L1609,@object
                        1922 	.size	.L1609,56
                        1923 .L1610:--	"\r>>Button long pressed: enter DeepSTOP...\n\r"
000000c0 0d3e3e42       1924 	.byte	13,62,62,66
000000c4 7574746f       1925 	.byte	117,116,116,111
000000c8 6e206c6f       1926 	.byte	110,32,108,111
000000cc 6e672070       1927 	.byte	110,103,32,112
000000d0 72657373       1928 	.byte	114,101,115,115
000000d4 65643a20       1929 	.byte	101,100,58,32
000000d8 656e7465       1930 	.byte	101,110,116,101
000000dc 72204465       1931 	.byte	114,32,68,101
000000e0 65705354       1932 	.byte	101,112,83,84
000000e4 4f502e2e       1933 	.byte	79,80,46,46
000000e8 2e0a0d00       1934 	.byte	46,10,13,0
                        1935 	.type	.L1610,@object
                        1936 	.size	.L1610,44
                        1937 .L1611:--	"\r>>30s without action - enter DeepSTOP\n\r"
000000ec 0d3e3e33       1938 	.byte	13,62,62,51
000000f0 30732077       1939 	.byte	48,115,32,119
000000f4 6974686f       1940 	.byte	105,116,104,111
000000f8 75742061       1941 	.byte	117,116,32,97
000000fc 6374696f       1942 	.byte	99,116,105,111
00000100 6e202d20       1943 	.byte	110,32,45,32
00000104 656e7465       1944 	.byte	101,110,116,101
00000108 72204465       1945 	.byte	114,32,68,101
0000010c 65705354       1946 	.byte	101,112,83,84
00000110 4f500a0d       1947 	.byte	79,80,10,13
00000114 00             1948 	.byte	0
                        1949 	.type	.L1611,@object
                        1950 	.size	.L1611,41
                        1951 	.data
                        1952 	.text
                        1953 
                        1954 
                        1955 --606: /*****************************************************************************
                        1956 --607: ** Function:    Mode2
                        1957 --608: ** Description: 
                        1958 --609: ** Parameter:   None
                        1959 --610: ** Return:      None
                        1960 --611: ******************************************************************************/
                        1961 --612: void Mode2(void)
                        1962 	.align	2
                        1963 	.align	2
                        1964 	.global	_Mode2
                        1965 _Mode2:
00000814 031ee4ff       1966 	addi	-28,sp,sp
00000818 63ff1900       1967 	st.w	lp,24[sp]
0000081c 63df0900       1968 	st.w	r27,8[sp]
00000820 63ef0100       1969 	st.w	r29,0[sp]
00000824 63c71500       1970 	st.w	r24,20[sp]
00000828 63cf1100       1971 	st.w	r25,16[sp]
0000082c 63d70d00       1972 	st.w	r26,12[sp]
00000830 63e70500       1973 	st.w	r28,4[sp]
00000834 3d0600000000*  1974 	mov	_g_SystemStatus,r29
0000083a 3b0600000000*  1975 	mov	_g_FixedRGBColors,r27
                        1976 --	    .bf
                        1977 .LDW62:
                        1978 --613: {
                        1979 --614: 	
                        1980 --615:     r_Button_t loc_ButtonS1State, loc_ButtonEnc1State;
                        1981 --616:     uint16_t loc_tmpPot1;

                                                                      Page 37
                                                              C:\Users\NIKHIL~1.PAT\AppData\Local\Temp\gh_000aeoo1.s
                        1982 --617:     uint32_t loc_i;
                        1983 --618:     /* Reset the counter values */
                        1984 --619:     g_SystemStatus.System_Counter = 0u;                
00000840 7d070900       1985 	st.w	zero,8[r29]
                        1986 --620:     g_SystemStatus.DeepSTOP_Counter = 0u;
00000844 7d070d00       1987 	st.w	zero,12[r29]
                        1988 --621:     
                        1989 --622:     /* Reset RGB Status */
                        1990 --623:     g_SystemStatus.LEDR_Error = R_OK;
00000848 7d071d00       1991 	st.w	zero,28[r29]
                        1992 --624:     g_SystemStatus.LEDG_Error = R_OK;
0000084c 7d072100       1993 	st.w	zero,32[r29]
                        1994 --625:     g_SystemStatus.LEDB_Error = R_OK;
00000850 7d072500       1995 	st.w	zero,36[r29]
                        1996 --626:     
                        1997 --627:     R_UI_ButtonS1_Init();
                        1998 	jarl	_R_UI_ButtonS1_Init,lp
                        1998 <EXPANSION BEGIN>
                        1998 jarl22 _R_UI_ButtonS1_Init , lp 
00000854 80ff0000*      1998 <EXPANSION END>
                        1999 --628:     
                        2000 --629:     /* Init LEDs and PWM Diagnosis */
                        2001 --630:     R_LED_SetPwmDuty(LEDR, g_FixedRGBColors[g_SystemStatus.CurrentRGB][LEDR]);
                        2002 --line630
                        2003 ..lin.C.3A.5CUsers.5Cnikhil.2Epatil.5CDocuments.5Crenesas.5CRH850_F1L_sample.5Ctoolchain.5CGHS.5Coutput.5Cobj.5Cr_tasks.121::
                        2004 .LDWlin121:
00000858 3d0f1000       2005 	ld.h	16[r29],r1
0000085c 0032           2006 	mov	0,r6
0000085e e10e0300       2007 	mulhi	3,r1,r1
00000862 c10a           2008 	shl	1,r1
00000864 01f0           2009 	mov	r1,ep
00000866 dbf1           2010 	add	r27,ep
00000868 7038           2011 	sld.hu	0[ep],r7
                        2012 	jarl	_R_LED_SetPwmDuty,lp
                        2012 <EXPANSION BEGIN>
                        2012 jarl22 _R_LED_SetPwmDuty , lp 
0000086a 80ff0000*      2012 <EXPANSION END>
                        2013 --631:     R_LED_SetPwmDuty(LEDG, g_FixedRGBColors[g_SystemStatus.CurrentRGB][LEDG]);
                        2014 --line631
                        2015 ..lin.C.3A.5CUsers.5Cnikhil.2Epatil.5CDocuments.5Crenesas.5CRH850_F1L_sample.5Ctoolchain.5CGHS.5Coutput.5Cobj.5Cr_tasks.122::
                        2016 .LDWlin122:
0000086e 3d0f1000       2017 	ld.h	16[r29],r1
00000872 1bf60200       2018 	addi	2,r27,ep
00000876 0132           2019 	mov	1,r6
00000878 e10e0300       2020 	mulhi	3,r1,r1
0000087c c10a           2021 	shl	1,r1
0000087e c1f1           2022 	add	r1,ep
00000880 7038           2023 	sld.hu	0[ep],r7
                        2024 	jarl	_R_LED_SetPwmDuty,lp
                        2024 <EXPANSION BEGIN>
                        2024 jarl22 _R_LED_SetPwmDuty , lp 
00000882 80ff0000*      2024 <EXPANSION END>
                        2025 --632:     R_LED_SetPwmDuty(LEDB, g_FixedRGBColors[g_SystemStatus.CurrentRGB][LEDB]);
                        2026 --line632
                        2027 ..lin.C.3A.5CUsers.5Cnikhil.2Epatil.5CDocuments.5Crenesas.5CRH850_F1L_sample.5Ctoolchain.5CGHS.5Coutput.5Cobj.5Cr_tasks.123::
                        2028 .LDWlin123:
00000886 3d0f1000       2029 	ld.h	16[r29],r1
0000088a 1bf60400       2030 	addi	4,r27,ep
0000088e 0232           2031 	mov	2,r6
00000890 e10e0300       2032 	mulhi	3,r1,r1
00000894 c10a           2033 	shl	1,r1

                                                                      Page 38
                                                              C:\Users\NIKHIL~1.PAT\AppData\Local\Temp\gh_000aeoo1.s
00000896 c1f1           2034 	add	r1,ep
00000898 7038           2035 	sld.hu	0[ep],r7
                        2036 	jarl	_R_LED_SetPwmDuty,lp
                        2036 <EXPANSION BEGIN>
                        2036 jarl22 _R_LED_SetPwmDuty , lp 
0000089a 80ff0000*      2036 <EXPANSION END>
                        2037 --633:     
                        2038 --634:     R_LED_PwmStart(LED1);
                        2039 --line634
                        2040 ..lin.C.3A.5CUsers.5Cnikhil.2Epatil.5CDocuments.5Crenesas.5CRH850_F1L_sample.5Ctoolchain.5CGHS.5Coutput.5Cobj.5Cr_tasks.124::
                        2041 .LDWlin124:
0000089e 0332           2042 	mov	3,r6
                        2043 	jarl	_R_LED_PwmStart,lp
                        2043 <EXPANSION BEGIN>
                        2043 jarl22 _R_LED_PwmStart , lp 
000008a0 80ff0000*      2043 <EXPANSION END>
                        2044 --635:     R_LED_PwmStart(LED2);
                        2045 --line635
                        2046 ..lin.C.3A.5CUsers.5Cnikhil.2Epatil.5CDocuments.5Crenesas.5CRH850_F1L_sample.5Ctoolchain.5CGHS.5Coutput.5Cobj.5Cr_tasks.125::
                        2047 .LDWlin125:
000008a4 0432           2048 	mov	4,r6
                        2049 	jarl	_R_LED_PwmStart,lp
                        2049 <EXPANSION BEGIN>
                        2049 jarl22 _R_LED_PwmStart , lp 
000008a6 80ff0000*      2049 <EXPANSION END>
                        2050 --636:     R_LED_PwmStart(LEDR);
                        2051 --line636
                        2052 ..lin.C.3A.5CUsers.5Cnikhil.2Epatil.5CDocuments.5Crenesas.5CRH850_F1L_sample.5Ctoolchain.5CGHS.5Coutput.5Cobj.5Cr_tasks.126::
                        2053 .LDWlin126:
000008aa 0032           2054 	mov	0,r6
                        2055 	jarl	_R_LED_PwmStart,lp
                        2055 <EXPANSION BEGIN>
                        2055 jarl22 _R_LED_PwmStart , lp 
000008ac 80ff0000*      2055 <EXPANSION END>
                        2056 --637:     R_LED_PwmStart(LEDG);
                        2057 --line637
                        2058 ..lin.C.3A.5CUsers.5Cnikhil.2Epatil.5CDocuments.5Crenesas.5CRH850_F1L_sample.5Ctoolchain.5CGHS.5Coutput.5Cobj.5Cr_tasks.127::
                        2059 .LDWlin127:
000008b0 0132           2060 	mov	1,r6
                        2061 	jarl	_R_LED_PwmStart,lp
                        2061 <EXPANSION BEGIN>
                        2061 jarl22 _R_LED_PwmStart , lp 
000008b2 80ff0000*      2061 <EXPANSION END>
                        2062 --638:     R_LED_PwmStart(LEDB);
                        2063 --line638
                        2064 ..lin.C.3A.5CUsers.5Cnikhil.2Epatil.5CDocuments.5Crenesas.5CRH850_F1L_sample.5Ctoolchain.5CGHS.5Coutput.5Cobj.5Cr_tasks.128::
                        2065 .LDWlin128:
000008b6 0232           2066 	mov	2,r6
                        2067 	jarl	_R_LED_PwmStart,lp
                        2067 <EXPANSION BEGIN>
                        2067 jarl22 _R_LED_PwmStart , lp 
000008b8 80ff0000*      2067 <EXPANSION END>
                        2068 --639:     
                        2069 --640:     R_ADCA0_AssignLimitErrorCB(PwmErrorCallBack);
                        2070 --line640
                        2071 ..lin.C.3A.5CUsers.5Cnikhil.2Epatil.5CDocuments.5Crenesas.5CRH850_F1L_sample.5Ctoolchain.5CGHS.5Coutput.5Cobj.5Cr_tasks.129::
                        2072 .LDWlin129:
000008bc 260600000000*  2073 	mov	_PwmErrorCallBack,r6
                        2074 	jarl	_R_ADCA0_AssignLimitErrorCB,lp
                        2074 <EXPANSION BEGIN>
                        2074 jarl22 _R_ADCA0_AssignLimitErrorCB , lp 

                                                                      Page 39
                                                              C:\Users\NIKHIL~1.PAT\AppData\Local\Temp\gh_000aeoo1.s
000008c2 80ff0000*      2074 <EXPANSION END>
                        2075 --641:     R_INTC_SetTableBit((uint16_t*)R_ICADCA0ERR);
                        2076 --line641
                        2077 ..lin.C.3A.5CUsers.5Cnikhil.2Epatil.5CDocuments.5Crenesas.5CRH850_F1L_sample.5Ctoolchain.5CGHS.5Coutput.5Cobj.5Cr_tasks.130::
                        2078 .LDWlin130:
000008c6 20365ea0       2079 	movea	-24482,zero,r6
                        2080 	jarl	_R_INTC_SetTableBit,lp
                        2080 <EXPANSION BEGIN>
                        2080 jarl22 _R_INTC_SetTableBit , lp 
000008ca 80ff0000*      2080 <EXPANSION END>
                        2081 --642:     R_INTC_UnmaskInterrupt((uint16_t*)R_ICADCA0ERR);
                        2082 --line642
                        2083 ..lin.C.3A.5CUsers.5Cnikhil.2Epatil.5CDocuments.5Crenesas.5CRH850_F1L_sample.5Ctoolchain.5CGHS.5Coutput.5Cobj.5Cr_tasks.131::
                        2084 .LDWlin131:
000008ce 20365ea0       2085 	movea	-24482,zero,r6
                        2086 	jarl	_R_INTC_UnmaskInterrupt,lp
                        2086 <EXPANSION BEGIN>
                        2086 jarl22 _R_INTC_UnmaskInterrupt , lp 
000008d2 80ff0000*      2086 <EXPANSION END>
                        2087 --643:     R_ADCA0_SetUpperLowerLimit(0,1000,600);
                        2088 --line643
                        2089 ..lin.C.3A.5CUsers.5Cnikhil.2Epatil.5CDocuments.5Crenesas.5CRH850_F1L_sample.5Ctoolchain.5CGHS.5Coutput.5Cobj.5Cr_tasks.132::
                        2090 .LDWlin132:
000008d6 0032           2091 	mov	0,r6
000008d8 203ee803       2092 	movea	1000,zero,r7
000008dc 20465802       2093 	movea	600,zero,r8
                        2094 	jarl	_R_ADCA0_SetUpperLowerLimit,lp
                        2094 <EXPANSION BEGIN>
                        2094 jarl22 _R_ADCA0_SetUpperLowerLimit , lp 
000008e0 80ff0000*      2094 <EXPANSION END>
                        2095 --644:     R_ADCA0_PwsaTriggerEnable();
                        2096 --line644
                        2097 ..lin.C.3A.5CUsers.5Cnikhil.2Epatil.5CDocuments.5Crenesas.5CRH850_F1L_sample.5Ctoolchain.5CGHS.5Coutput.5Cobj.5Cr_tasks.133::
                        2098 .LDWlin133:
                        2099 	jarl	_R_ADCA0_PwsaTriggerEnable,lp
                        2099 <EXPANSION BEGIN>
                        2099 jarl22 _R_ADCA0_PwsaTriggerEnable , lp 
000008e4 80ff0000*      2099 <EXPANSION END>
                        2100 --645:     R_PWMD_DiagStart();
                        2101 --line645
                        2102 ..lin.C.3A.5CUsers.5Cnikhil.2Epatil.5CDocuments.5Crenesas.5CRH850_F1L_sample.5Ctoolchain.5CGHS.5Coutput.5Cobj.5Cr_tasks.134::
                        2103 .LDWlin134:
                        2104 	jarl	_R_PWMD_DiagStart,lp
                        2104 <EXPANSION BEGIN>
                        2104 jarl22 _R_PWMD_DiagStart , lp 
000008e8 80ff0000*      2104 <EXPANSION END>
                        2105 --646:     
                        2106 --647:     R_LED_RingInit();    
                        2107 --line647
                        2108 ..lin.C.3A.5CUsers.5Cnikhil.2Epatil.5CDocuments.5Crenesas.5CRH850_F1L_sample.5Ctoolchain.5CGHS.5Coutput.5Cobj.5Cr_tasks.135::
                        2109 .LDWlin135:
                        2110 	jarl	_R_LED_RingInit,lp
                        2110 <EXPANSION BEGIN>
                        2110 jarl22 _R_LED_RingInit , lp 
000008ec 80ff0000*      2110 <EXPANSION END>
                        2111 --648:     R_LED_RingOutputEnable();
                        2112 --line648
                        2113 ..lin.C.3A.5CUsers.5Cnikhil.2Epatil.5CDocuments.5Crenesas.5CRH850_F1L_sample.5Ctoolchain.5CGHS.5Coutput.5Cobj.5Cr_tasks.136::
                        2114 .LDWlin136:
                        2115 	jarl	_R_LED_RingOutputEnable,lp
                        2115 <EXPANSION BEGIN>

                                                                      Page 40
                                                              C:\Users\NIKHIL~1.PAT\AppData\Local\Temp\gh_000aeoo1.s
                        2115 jarl22 _R_LED_RingOutputEnable , lp 
000008f0 80ff0000*      2115 <EXPANSION END>
                        2116 --649:     
                        2117 --650:     R_ENCA0_Start();
                        2118 --line650
                        2119 ..lin.C.3A.5CUsers.5Cnikhil.2Epatil.5CDocuments.5Crenesas.5CRH850_F1L_sample.5Ctoolchain.5CGHS.5Coutput.5Cobj.5Cr_tasks.137::
                        2120 .LDWlin137:
                        2121 	jarl	_R_ENCA0_Start,lp
                        2121 <EXPANSION BEGIN>
                        2121 jarl22 _R_ENCA0_Start , lp 
000008f4 80ff0000*      2121 <EXPANSION END>
                        2122 --651:     g_Enc1Value = R_ENCA0_Read();
                        2123 --line651
                        2124 ..lin.C.3A.5CUsers.5Cnikhil.2Epatil.5CDocuments.5Crenesas.5CRH850_F1L_sample.5Ctoolchain.5CGHS.5Coutput.5Cobj.5Cr_tasks.138::
                        2125 .LDWlin138:
                        2126 	jarl	_R_ENCA0_Read,lp
                        2126 <EXPANSION BEGIN>
                        2126 jarl22 _R_ENCA0_Read , lp 
000008f8 80ff0000*      2126 <EXPANSION END>
000008fc 84070f500000*  2127 	st.w	r10,sdaoff23(_g_Enc1Value)[gp]
                        2128 --652:     g_Enc1Compare = g_Enc1Value;
                        2129 --line652
                        2130 ..lin.C.3A.5CUsers.5Cnikhil.2Epatil.5CDocuments.5Crenesas.5CRH850_F1L_sample.5Ctoolchain.5CGHS.5Coutput.5Cobj.5Cr_tasks.139::
                        2131 .LDWlin139:
00000902 840709080000*  2132 	ld.w	sdaoff23(_g_Enc1Value)[gp],r1
00000908 84070f080000*  2133 	st.w	r1,sdaoff23(_g_Enc1Compare)[gp]
                        2134 --653:     
                        2135 --654:     R_TAUJ0_AssignChannel1ISR(LedUpdate);
0000090e 260600000000*  2136 	mov	_LedUpdate,r6
                        2137 	jarl	_R_TAUJ0_AssignChannel1ISR,lp
                        2137 <EXPANSION BEGIN>
                        2137 jarl22 _R_TAUJ0_AssignChannel1ISR , lp 
00000914 80ff0000*      2137 <EXPANSION END>
                        2138 --655:     R_INTC_UnmaskInterrupt((uint16_t*)R_ICTAUJ0I1);
                        2139 --line655
                        2140 ..lin.C.3A.5CUsers.5Cnikhil.2Epatil.5CDocuments.5Crenesas.5CRH850_F1L_sample.5Ctoolchain.5CGHS.5Coutput.5Cobj.5Cr_tasks.140::
                        2141 .LDWlin140:
00000918 203692a0       2142 	movea	-24430,zero,r6
                        2143 	jarl	_R_INTC_UnmaskInterrupt,lp
                        2143 <EXPANSION BEGIN>
                        2143 jarl22 _R_INTC_UnmaskInterrupt , lp 
0000091c 80ff0000*      2143 <EXPANSION END>
                        2144 --656:     R_TAUJ0_Channel_Start(TAUJ0C1);
                        2145 --line656
                        2146 ..lin.C.3A.5CUsers.5Cnikhil.2Epatil.5CDocuments.5Crenesas.5CRH850_F1L_sample.5Ctoolchain.5CGHS.5Coutput.5Cobj.5Cr_tasks.141::
                        2147 .LDWlin141:
00000920 0232           2148 	mov	2,r6
                        2149 	jarl	_R_TAUJ0_Channel_Start,lp
                        2149 <EXPANSION BEGIN>
                        2149 jarl22 _R_TAUJ0_Channel_Start , lp 
00000922 80ff0000*      2149 <EXPANSION END>
                        2150 --657:     
                        2151 --658:     R_SYSTEM_TimerStart();
                        2152 --line658
                        2153 ..lin.C.3A.5CUsers.5Cnikhil.2Epatil.5CDocuments.5Crenesas.5CRH850_F1L_sample.5Ctoolchain.5CGHS.5Coutput.5Cobj.5Cr_tasks.142::
                        2154 .LDWlin142:
                        2155 	jarl	_R_SYSTEM_TimerStart,lp
                        2155 <EXPANSION BEGIN>
                        2155 jarl22 _R_SYSTEM_TimerStart , lp 
00000926 80ff0000*      2155 <EXPANSION END>
                        2156 --659:     

                                                                      Page 41
                                                              C:\Users\NIKHIL~1.PAT\AppData\Local\Temp\gh_000aeoo1.s
                        2157 --660:     /* Enter Mode2 loop */
                        2158 --661:     while(g_SystemStatus.CurrentMode == R_MODE2)
                        2159 --line661
                        2160 ..lin.C.3A.5CUsers.5Cnikhil.2Epatil.5CDocuments.5Crenesas.5CRH850_F1L_sample.5Ctoolchain.5CGHS.5Coutput.5Cobj.5Cr_tasks.143::
                        2161 .LDWlin143:
0000092a 957d*          2162 	br	.L1710
                        2163 .L1712:
                        2164 --662:     {
                        2165 --663:         g_Pot1Value = R_ADCA0_PinRead(AP0_0);
                        2166 --line663
                        2167 ..lin.C.3A.5CUsers.5Cnikhil.2Epatil.5CDocuments.5Crenesas.5CRH850_F1L_sample.5Ctoolchain.5CGHS.5Coutput.5Cobj.5Cr_tasks.144::
                        2168 .LDWlin144:
0000092c 0032           2169 	mov	0,r6
                        2170 	jarl	_R_ADCA0_PinRead,lp
                        2170 <EXPANSION BEGIN>
                        2170 jarl22 _R_ADCA0_PinRead , lp 
0000092e 80ff0000*      2170 <EXPANSION END>
00000932 84070f500000*  2171 	st.w	r10,sdaoff23(_g_Pot1Value)[gp]
                        2172 --664:             
                        2173 --665:         g_Enc1Value = R_ENCA0_Read();
                        2174 --line665
                        2175 ..lin.C.3A.5CUsers.5Cnikhil.2Epatil.5CDocuments.5Crenesas.5CRH850_F1L_sample.5Ctoolchain.5CGHS.5Coutput.5Cobj.5Cr_tasks.145::
                        2176 .LDWlin145:
                        2177 	jarl	_R_ENCA0_Read,lp
                        2177 <EXPANSION BEGIN>
                        2177 jarl22 _R_ENCA0_Read , lp 
00000938 80ff0000*      2177 <EXPANSION END>
0000093c 84070f500000*  2178 	st.w	r10,sdaoff23(_g_Enc1Value)[gp]
                        2179 --666:         
                        2180 --667:         /* Print time to DeepSTOP and Pot1 position via UART */
                        2181 --668:         if(!(g_SystemStatus.System_Counter % STATUS_UPDATE_INTERVAL))
                        2182 --line668
                        2183 ..lin.C.3A.5CUsers.5Cnikhil.2Epatil.5CDocuments.5Crenesas.5CRH850_F1L_sample.5Ctoolchain.5CGHS.5Coutput.5Cobj.5Cr_tasks.146::
                        2184 .LDWlin146:
00000942 3d0f0900       2185 	ld.w	8[r29],r1
00000946 20166400       2186 	movea	100,zero,r2
0000094a e20ffe0a       2187 	divqu	r2,r1,r1
0000094e e009           2188 	cmp	zero,r1
00000950 ea1d*          2189 	bne	.L1713
                        2190 --669:         {
                        2191 --670:             PrintStatus();
                        2192 --line670
                        2193 ..lin.C.3A.5CUsers.5Cnikhil.2Epatil.5CDocuments.5Crenesas.5CRH850_F1L_sample.5Ctoolchain.5CGHS.5Coutput.5Cobj.5Cr_tasks.147::
                        2194 .LDWlin147:
                        2195 	jarl	_PrintStatus,lp
                        2195 <EXPANSION BEGIN>
                        2195 jarl22 _PrintStatus , lp 
00000952 bfff56fa*      2195 <EXPANSION END>
                        2196 --671:             
                        2197 --672:             /* If Pot1 was changed more than DEEPSTOP_POTI_SENSE (defined in r_system.h), reset DeepSTOP counter */
                        2198 --673:             if(g_Pot1Value > loc_tmpPot1)
                        2199 --line673
                        2200 ..lin.C.3A.5CUsers.5Cnikhil.2Epatil.5CDocuments.5Crenesas.5CRH850_F1L_sample.5Ctoolchain.5CGHS.5Coutput.5Cobj.5Cr_tasks.148::
                        2201 .LDWlin148:
00000956 840709080000*  2202 	ld.w	sdaoff23(_g_Pot1Value)[gp],r1
0000095c fa09           2203 	cmp	r26,r1
0000095e b30d*          2204 	bnh	.L1715
                        2205 --674:             {
                        2206 --675:                 if((g_Pot1Value - loc_tmpPot1)>DEEPSTOP_POTI_SENSE)
                        2207 --line675
                        2208 ..lin.C.3A.5CUsers.5Cnikhil.2Epatil.5CDocuments.5Crenesas.5CRH850_F1L_sample.5Ctoolchain.5CGHS.5Coutput.5Cobj.5Cr_tasks.149::

                                                                      Page 42
                                                              C:\Users\NIKHIL~1.PAT\AppData\Local\Temp\gh_000aeoo1.s
                        2209 .LDWlin149:
00000960 840709080000*  2210 	ld.w	sdaoff23(_g_Pot1Value)[gp],r1
00000966 ba09           2211 	sub	r26,r1
00000968 0106fffe       2212 	addi	-257,r1,zero
0000096c d90d*          2213 	bnl	.L1719
                        2214 --676:                 {
                        2215 --677:                     g_SystemStatus.DeepSTOP_Counter = 0;
                        2216 --line677
                        2217 ..lin.C.3A.5CUsers.5Cnikhil.2Epatil.5CDocuments.5Crenesas.5CRH850_F1L_sample.5Ctoolchain.5CGHS.5Coutput.5Cobj.5Cr_tasks.150::
                        2218 .LDWlin150:
0000096e 7d070d00       2219 	st.w	zero,12[r29]
00000972 a50d*          2220 	br	.L1719
                        2221 .L1715:
                        2222 --678:                 }
                        2223 --679:             }
                        2224 --680:             else
                        2225 --681:             {
                        2226 --682:                 if((loc_tmpPot1 - g_Pot1Value)>DEEPSTOP_POTI_SENSE)
                        2227 --line682
                        2228 ..lin.C.3A.5CUsers.5Cnikhil.2Epatil.5CDocuments.5Crenesas.5CRH850_F1L_sample.5Ctoolchain.5CGHS.5Coutput.5Cobj.5Cr_tasks.151::
                        2229 .LDWlin151:
00000974 840709080000*  2230 	ld.w	sdaoff23(_g_Pot1Value)[gp],r1
0000097a 9a09           2231 	subr	r26,r1
0000097c 0106fffe       2232 	addi	-257,r1,zero
00000980 b905*          2233 	bnl	.L1719
                        2234 --683:                 {
                        2235 --684:                     g_SystemStatus.DeepSTOP_Counter = 0;
                        2236 --line684
                        2237 ..lin.C.3A.5CUsers.5Cnikhil.2Epatil.5CDocuments.5Crenesas.5CRH850_F1L_sample.5Ctoolchain.5CGHS.5Coutput.5Cobj.5Cr_tasks.152::
                        2238 .LDWlin152:
00000982 7d070d00       2239 	st.w	zero,12[r29]
                        2240 .L1719:
                        2241 --685:                 }
                        2242 --686:             }
                        2243 --687:             loc_tmpPot1 = g_Pot1Value;
00000986 a40707d00000*  2244 	ld.hu	sdaoff23(_g_Pot1Value)[gp],r26
                        2245 .L1713:
                        2246 --688:         }
                        2247 --689:         
                        2248 --690:         /* Print RGB LED diagnostic information */
                        2249 --691:         RgbLedDiagOutput();
                        2250 	jarl	_RgbLedDiagOutput,lp
                        2250 <EXPANSION BEGIN>
                        2250 jarl22 _RgbLedDiagOutput , lp 
0000098c bfff22f7*      2250 <EXPANSION END>
                        2251 --692:         
                        2252 --693:         /* Check buttons */
                        2253 --694:         loc_ButtonS1State = R_UI_ButtonS1_Handler();
                        2254 --line694
                        2255 ..lin.C.3A.5CUsers.5Cnikhil.2Epatil.5CDocuments.5Crenesas.5CRH850_F1L_sample.5Ctoolchain.5CGHS.5Coutput.5Cobj.5Cr_tasks.153::
                        2256 .LDWlin153:
                        2257 	jarl	_R_UI_ButtonS1_Handler,lp
                        2257 <EXPANSION BEGIN>
                        2257 jarl22 _R_UI_ButtonS1_Handler , lp 
00000990 80ff0000*      2257 <EXPANSION END>
00000994 0ac8           2258 	mov	r10,r25
                        2259 --695:         loc_ButtonEnc1State = R_UI_ButtonEnc1_Handler();
                        2260 --line695
                        2261 ..lin.C.3A.5CUsers.5Cnikhil.2Epatil.5CDocuments.5Crenesas.5CRH850_F1L_sample.5Ctoolchain.5CGHS.5Coutput.5Cobj.5Cr_tasks.154::
                        2262 .LDWlin154:
                        2263 	jarl	_R_UI_ButtonEnc1_Handler,lp

                                                                      Page 43
                                                              C:\Users\NIKHIL~1.PAT\AppData\Local\Temp\gh_000aeoo1.s
                        2263 <EXPANSION BEGIN>
                        2263 jarl22 _R_UI_ButtonEnc1_Handler , lp 
00000996 80ff0000*      2263 <EXPANSION END>
0000099a 0ac0           2264 	mov	r10,r24
                        2265 --696:         if(loc_ButtonS1State == R_BUTTON_PRESSED_SHORT)
                        2266 --line696
                        2267 ..lin.C.3A.5CUsers.5Cnikhil.2Epatil.5CDocuments.5Crenesas.5CRH850_F1L_sample.5Ctoolchain.5CGHS.5Coutput.5Cobj.5Cr_tasks.155::
                        2268 .LDWlin155:
0000099c 62ca           2269 	cmp	2,r25
0000099e ca0d*          2270 	bne	.L1722
                        2271 --697:         {
                        2272 --698:             PrintText("\r>>Button short pressed: switch to mode 1...\n\r");
                        2273 --line698
                        2274 ..lin.C.3A.5CUsers.5Cnikhil.2Epatil.5CDocuments.5Crenesas.5CRH850_F1L_sample.5Ctoolchain.5CGHS.5Coutput.5Cobj.5Cr_tasks.156::
                        2275 .LDWlin156:
000009a0 260600000000*  2276 	mov	.L2245,r6
                        2277 	jarl	_PrintText,lp
                        2277 <EXPANSION BEGIN>
                        2277 jarl22 _PrintText , lp 
000009a6 bfff5af6*      2277 <EXPANSION END>
                        2278 --699:             g_SystemStatus.CurrentMode = R_MODE1;
                        2279 --line699
                        2280 ..lin.C.3A.5CUsers.5Cnikhil.2Epatil.5CDocuments.5Crenesas.5CRH850_F1L_sample.5Ctoolchain.5CGHS.5Coutput.5Cobj.5Cr_tasks.157::
                        2281 .LDWlin157:
000009aa 010a           2282 	mov	1,r1
000009ac 7d0f0100       2283 	st.w	r1,0[r29]
                        2284 --700:             g_SystemStatus.PreviousMode = R_MODE2;
000009b0 020a           2285 	mov	2,r1
000009b2 7d0f0500       2286 	st.w	r1,4[r29]
                        2287 .L1722:
                        2288 --701:         }
                        2289 --702:         
                        2290 --703:         if(loc_ButtonEnc1State == R_BUTTON_PRESSED_SHORT)
000009b6 62c2           2291 	cmp	2,r24
000009b8 da05*          2292 	bne	.L1724
                        2293 --704:         {
                        2294 --705:           g_SystemStatus.DeepSTOP_Counter = 0;
                        2295 --line705
                        2296 ..lin.C.3A.5CUsers.5Cnikhil.2Epatil.5CDocuments.5Crenesas.5CRH850_F1L_sample.5Ctoolchain.5CGHS.5Coutput.5Cobj.5Cr_tasks.158::
                        2297 .LDWlin158:
000009ba 7d070d00       2298 	st.w	zero,12[r29]
                        2299 --706:           SwitchRGBColor();
                        2300 	jarl	_SwitchRGBColor,lp
                        2300 <EXPANSION BEGIN>
                        2300 jarl22 _SwitchRGBColor , lp 
000009be bfff5efa*      2300 <EXPANSION END>
                        2301 .L1724:
                        2302 --707:         }
                        2303 --708:         
                        2304 --709:         if(loc_ButtonS1State == R_BUTTON_PRESSED_LONG)
                        2305 --line709
                        2306 ..lin.C.3A.5CUsers.5Cnikhil.2Epatil.5CDocuments.5Crenesas.5CRH850_F1L_sample.5Ctoolchain.5CGHS.5Coutput.5Cobj.5Cr_tasks.159::
                        2307 .LDWlin159:
000009c2 63ca           2308 	cmp	3,r25
000009c4 ca0d*          2309 	bne	.L1726
                        2310 --710:         {
                        2311 --711:             PrintText("\r>>Button long pressed: enter DeepSTOP...\n\r");
                        2312 --line711
                        2313 ..lin.C.3A.5CUsers.5Cnikhil.2Epatil.5CDocuments.5Crenesas.5CRH850_F1L_sample.5Ctoolchain.5CGHS.5Coutput.5Cobj.5Cr_tasks.160::
                        2314 .LDWlin160:
000009c6 260600000000*  2315 	mov	.L2244,r6

                                                                      Page 44
                                                              C:\Users\NIKHIL~1.PAT\AppData\Local\Temp\gh_000aeoo1.s
                        2316 	jarl	_PrintText,lp
                        2316 <EXPANSION BEGIN>
                        2316 jarl22 _PrintText , lp 
000009cc bfff34f6*      2316 <EXPANSION END>
                        2317 --712:             g_SystemStatus.CurrentMode = R_DEEPSTOP;
                        2318 --line712
                        2319 ..lin.C.3A.5CUsers.5Cnikhil.2Epatil.5CDocuments.5Crenesas.5CRH850_F1L_sample.5Ctoolchain.5CGHS.5Coutput.5Cobj.5Cr_tasks.161::
                        2320 .LDWlin161:
000009d0 030a           2321 	mov	3,r1
000009d2 7d0f0100       2322 	st.w	r1,0[r29]
                        2323 --713:             g_SystemStatus.PreviousMode = R_MODE2;
000009d6 020a           2324 	mov	2,r1
000009d8 7d0f0500       2325 	st.w	r1,4[r29]
                        2326 .L1726:
                        2327 --714:         }
                        2328 --715:         /* Enter DeepSTOP after 30s */
                        2329 --716: 	    if(g_SystemStatus.DeepSTOP_Counter >= DEEPSTOP_COUNT_DOWN)      
000009dc 3d0f0d00       2330 	ld.w	12[r29],r1
000009e0 0106d08a       2331 	addi	-30000,r1,zero
000009e4 8915*          2332 	bnl	.L1728
                        2333 --717:         {                                        
                        2334 --718:             PrintText("\r>>30s without action: enter DeepSTOP...\n\r");
                        2335 --line718
                        2336 ..lin.C.3A.5CUsers.5Cnikhil.2Epatil.5CDocuments.5Crenesas.5CRH850_F1L_sample.5Ctoolchain.5CGHS.5Coutput.5Cobj.5Cr_tasks.162::
                        2337 .LDWlin162:
000009e6 260600000000*  2338 	mov	.L2246,r6
                        2339 	jarl	_PrintText,lp
                        2339 <EXPANSION BEGIN>
                        2339 jarl22 _PrintText , lp 
000009ec bfff14f6*      2339 <EXPANSION END>
                        2340 --719:             while(R_RLIN30_GetStatus() == RLIN_BUSY){}
                        2341 .L1730:
                        2342 --line719
                        2343 ..lin.C.3A.5CUsers.5Cnikhil.2Epatil.5CDocuments.5Crenesas.5CRH850_F1L_sample.5Ctoolchain.5CGHS.5Coutput.5Cobj.5Cr_tasks.163::
                        2344 .LDWlin163:
                        2345 	jarl	_R_RLIN30_GetStatus,lp
                        2345 <EXPANSION BEGIN>
                        2345 jarl22 _R_RLIN30_GetStatus , lp 
000009f0 80ff0000*      2345 <EXPANSION END>
000009f4 6452           2346 	cmp	4,r10
000009f6 d2fd*          2347 	be	.L1730
                        2348 --720:             g_SystemStatus.CurrentMode = R_DEEPSTOP;
                        2349 --line720
                        2350 ..lin.C.3A.5CUsers.5Cnikhil.2Epatil.5CDocuments.5Crenesas.5CRH850_F1L_sample.5Ctoolchain.5CGHS.5Coutput.5Cobj.5Cr_tasks.164::
                        2351 .LDWlin164:
000009f8 030a           2352 	mov	3,r1
000009fa 7d0f0100       2353 	st.w	r1,0[r29]
                        2354 --721:             g_SystemStatus.PreviousMode = R_MODE2;
000009fe 020a           2355 	mov	2,r1
00000a00 7d0f0500       2356 	st.w	r1,4[r29]
                        2357 .L1728:
                        2358 --722:         }
                        2359 --723:     
                        2360 --724:         /* Wait for 1ms System Timer tick */
                        2361 --725:         R_SYSTEM_TimerTick();
                        2362 	jarl	_R_SYSTEM_TimerTick,lp
                        2362 <EXPANSION BEGIN>
                        2362 jarl22 _R_SYSTEM_TimerTick , lp 
00000a04 80ff0000*      2362 <EXPANSION END>
                        2363 --726:     	/* Increment global counter */
                        2364 --727:         g_SystemStatus.System_Counter++;

                                                                      Page 45
                                                              C:\Users\NIKHIL~1.PAT\AppData\Local\Temp\gh_000aeoo1.s
                        2365 --line727
                        2366 ..lin.C.3A.5CUsers.5Cnikhil.2Epatil.5CDocuments.5Crenesas.5CRH850_F1L_sample.5Ctoolchain.5CGHS.5Coutput.5Cobj.5Cr_tasks.165::
                        2367 .LDWlin165:
00000a08 3d0f0900       2368 	ld.w	8[r29],r1
00000a0c 410a           2369 	add	1,r1
00000a0e 7d0f0900       2370 	st.w	r1,8[r29]
                        2371 --728:         g_SystemStatus.DeepSTOP_Counter++;
00000a12 3d0f0d00       2372 	ld.w	12[r29],r1
00000a16 410a           2373 	add	1,r1
00000a18 7d0f0d00       2374 	st.w	r1,12[r29]
                        2375 .L1710:
00000a1c 3d0f0100       2376 	ld.w	0[r29],r1
00000a20 620a           2377 	cmp	2,r1
00000a22 d285*          2378 	be	.L1712
                        2379 --729:     }
                        2380 --730: 	
                        2381 --731:     R_TAUJ0_Channel_Stop(TAUJ0C1);
                        2382 --line731
                        2383 ..lin.C.3A.5CUsers.5Cnikhil.2Epatil.5CDocuments.5Crenesas.5CRH850_F1L_sample.5Ctoolchain.5CGHS.5Coutput.5Cobj.5Cr_tasks.166::
                        2384 .LDWlin166:
00000a24 0232           2385 	mov	2,r6
                        2386 	jarl	_R_TAUJ0_Channel_Stop,lp
                        2386 <EXPANSION BEGIN>
                        2386 jarl22 _R_TAUJ0_Channel_Stop , lp 
00000a26 80ff0000*      2386 <EXPANSION END>
                        2387 --732:     R_TAUJ0_AssignChannel1ISR(R_NULL);
                        2388 --line732
                        2389 ..lin.C.3A.5CUsers.5Cnikhil.2Epatil.5CDocuments.5Crenesas.5CRH850_F1L_sample.5Ctoolchain.5CGHS.5Coutput.5Cobj.5Cr_tasks.167::
                        2390 .LDWlin167:
00000a2a 0032           2391 	mov	0,r6
                        2392 	jarl	_R_TAUJ0_AssignChannel1ISR,lp
                        2392 <EXPANSION BEGIN>
                        2392 jarl22 _R_TAUJ0_AssignChannel1ISR , lp 
00000a2c 80ff0000*      2392 <EXPANSION END>
                        2393 --733:     R_INTC_MaskInterrupt((uint16_t*)R_ICTAUJ0I1);
                        2394 --line733
                        2395 ..lin.C.3A.5CUsers.5Cnikhil.2Epatil.5CDocuments.5Crenesas.5CRH850_F1L_sample.5Ctoolchain.5CGHS.5Coutput.5Cobj.5Cr_tasks.168::
                        2396 .LDWlin168:
00000a30 203692a0       2397 	movea	-24430,zero,r6
                        2398 	jarl	_R_INTC_MaskInterrupt,lp
                        2398 <EXPANSION BEGIN>
                        2398 jarl22 _R_INTC_MaskInterrupt , lp 
00000a34 80ff0000*      2398 <EXPANSION END>
                        2399 --734:     
                        2400 --735:     R_LED_PwmStop(LED1);
                        2401 --line735
                        2402 ..lin.C.3A.5CUsers.5Cnikhil.2Epatil.5CDocuments.5Crenesas.5CRH850_F1L_sample.5Ctoolchain.5CGHS.5Coutput.5Cobj.5Cr_tasks.169::
                        2403 .LDWlin169:
00000a38 0332           2404 	mov	3,r6
                        2405 	jarl	_R_LED_PwmStop,lp
                        2405 <EXPANSION BEGIN>
                        2405 jarl22 _R_LED_PwmStop , lp 
00000a3a 80ff0000*      2405 <EXPANSION END>
                        2406 --736:     R_LED_PwmStop(LED2);
                        2407 --line736
                        2408 ..lin.C.3A.5CUsers.5Cnikhil.2Epatil.5CDocuments.5Crenesas.5CRH850_F1L_sample.5Ctoolchain.5CGHS.5Coutput.5Cobj.5Cr_tasks.170::
                        2409 .LDWlin170:
00000a3e 0432           2410 	mov	4,r6
                        2411 	jarl	_R_LED_PwmStop,lp
                        2411 <EXPANSION BEGIN>
                        2411 jarl22 _R_LED_PwmStop , lp 

                                                                      Page 46
                                                              C:\Users\NIKHIL~1.PAT\AppData\Local\Temp\gh_000aeoo1.s
00000a40 80ff0000*      2411 <EXPANSION END>
                        2412 --737:     R_LED_PwmStop(LEDR);
                        2413 --line737
                        2414 ..lin.C.3A.5CUsers.5Cnikhil.2Epatil.5CDocuments.5Crenesas.5CRH850_F1L_sample.5Ctoolchain.5CGHS.5Coutput.5Cobj.5Cr_tasks.171::
                        2415 .LDWlin171:
00000a44 0032           2416 	mov	0,r6
                        2417 	jarl	_R_LED_PwmStop,lp
                        2417 <EXPANSION BEGIN>
                        2417 jarl22 _R_LED_PwmStop , lp 
00000a46 80ff0000*      2417 <EXPANSION END>
                        2418 --738:     R_LED_PwmStop(LEDG);
                        2419 --line738
                        2420 ..lin.C.3A.5CUsers.5Cnikhil.2Epatil.5CDocuments.5Crenesas.5CRH850_F1L_sample.5Ctoolchain.5CGHS.5Coutput.5Cobj.5Cr_tasks.172::
                        2421 .LDWlin172:
00000a4a 0132           2422 	mov	1,r6
                        2423 	jarl	_R_LED_PwmStop,lp
                        2423 <EXPANSION BEGIN>
                        2423 jarl22 _R_LED_PwmStop , lp 
00000a4c 80ff0000*      2423 <EXPANSION END>
                        2424 --739:     R_LED_PwmStop(LEDB);
                        2425 --line739
                        2426 ..lin.C.3A.5CUsers.5Cnikhil.2Epatil.5CDocuments.5Crenesas.5CRH850_F1L_sample.5Ctoolchain.5CGHS.5Coutput.5Cobj.5Cr_tasks.173::
                        2427 .LDWlin173:
00000a50 0232           2428 	mov	2,r6
                        2429 	jarl	_R_LED_PwmStop,lp
                        2429 <EXPANSION BEGIN>
                        2429 jarl22 _R_LED_PwmStop , lp 
00000a52 80ff0000*      2429 <EXPANSION END>
                        2430 --740:     R_LED_RingOutputDisable();
                        2431 --line740
                        2432 ..lin.C.3A.5CUsers.5Cnikhil.2Epatil.5CDocuments.5Crenesas.5CRH850_F1L_sample.5Ctoolchain.5CGHS.5Coutput.5Cobj.5Cr_tasks.174::
                        2433 .LDWlin174:
                        2434 	jarl	_R_LED_RingOutputDisable,lp
                        2434 <EXPANSION BEGIN>
                        2434 jarl22 _R_LED_RingOutputDisable , lp 
00000a56 80ff0000*      2434 <EXPANSION END>
                        2435 --741:     
                        2436 --742:     /* wait for PWM channels to stop */
                        2437 --743:     for(loc_i=0; loc_i<5;loc_i++)
                        2438 --line743
                        2439 ..lin.C.3A.5CUsers.5Cnikhil.2Epatil.5CDocuments.5Crenesas.5CRH850_F1L_sample.5Ctoolchain.5CGHS.5Coutput.5Cobj.5Cr_tasks.175::
                        2440 .LDWlin175:
00000a5a 00e2           2441 	mov	0,r28
00000a5c 0000           2442 	nop
                        2443 .L1735:
                        2444 --744:     {
                        2445 --745:       R_SYSTEM_TimerTick();
                        2446 	jarl	_R_SYSTEM_TimerTick,lp
                        2446 <EXPANSION BEGIN>
                        2446 jarl22 _R_SYSTEM_TimerTick , lp 
00000a5e 80ff0000*      2446 <EXPANSION END>
                        2447 --line743
                        2448 ..lin.C.3A.5CUsers.5Cnikhil.2Epatil.5CDocuments.5Crenesas.5CRH850_F1L_sample.5Ctoolchain.5CGHS.5Coutput.5Cobj.5Cr_tasks.176::
                        2449 .LDWlin176:
00000a62 41e2           2450 	add	1,r28
00000a64 65e2           2451 	cmp	5,r28
00000a66 c1fd*          2452 	bl	.L1735
                        2453 --746:     }
                        2454 --747:     
                        2455 --748: }
                        2456 --	    .ef

                                                                      Page 47
                                                              C:\Users\NIKHIL~1.PAT\AppData\Local\Temp\gh_000aeoo1.s
                        2457 .LDW72:
                        2458 --line748
                        2459 ..lin.C.3A.5CUsers.5Cnikhil.2Epatil.5CDocuments.5Crenesas.5CRH850_F1L_sample.5Ctoolchain.5CGHS.5Coutput.5Cobj.5Cr_tasks.177::
                        2460 .LDWlin177:
00000a68 23ff1900       2461 	ld.w	24[sp],lp
00000a6c 23ef0100       2462 	ld.w	0[sp],r29
00000a70 23e70500       2463 	ld.w	4[sp],r28
00000a74 23df0900       2464 	ld.w	8[sp],r27
00000a78 23d70d00       2465 	ld.w	12[sp],r26
00000a7c 23cf1100       2466 	ld.w	16[sp],r25
00000a80 23c71500       2467 	ld.w	20[sp],r24
00000a84 031e1c00       2468 	addi	28,sp,sp
00000a88 7f00           2469 	jmp	[lp]
                        2470 	.global	___ghs_eofn_Mode2
                        2471 ___ghs_eofn_Mode2:
                        2472 	.type	_Mode2,@function
                        2473 	.size	_Mode2,.-_Mode2
                        2474 	.align	2
                        2475 --_loc_ButtonS1State	r25	local
                        2476 --_loc_ButtonEnc1State	r24	local
                        2477 --_loc_tmpPot1	r26	local
                        2478 --_loc_i	r28	local
                        2479 --.L2075	.L2245	static
                        2480 --.L2076	.L2244	static
                        2481 --.L2077	.L2246	static
                        2482 
                        2483 	.section ".bss","awb"
                        2484 .L2074:
                        2485 	.type	.L2074,@object
                        2486 	.size	.L2074,0
                        2487 	.section ".rodata","a"
                        2488 .L2244:--	"\r>>Button long pressed: enter DeepSTOP...\n\r"
00000115 0d3e3e42       2489 	.byte	13,62,62,66
00000119 7574746f       2490 	.byte	117,116,116,111
0000011d 6e206c6f       2491 	.byte	110,32,108,111
00000121 6e672070       2492 	.byte	110,103,32,112
00000125 72657373       2493 	.byte	114,101,115,115
00000129 65643a20       2494 	.byte	101,100,58,32
0000012d 656e7465       2495 	.byte	101,110,116,101
00000131 72204465       2496 	.byte	114,32,68,101
00000135 65705354       2497 	.byte	101,112,83,84
00000139 4f502e2e       2498 	.byte	79,80,46,46
0000013d 2e0a0d00       2499 	.byte	46,10,13,0
                        2500 	.type	.L2244,@object
                        2501 	.size	.L2244,44
                        2502 .L2245:--	"\r>>Button short pressed: switch to mode 1...\n\r"
00000141 0d3e3e42       2503 	.byte	13,62,62,66
00000145 7574746f       2504 	.byte	117,116,116,111
00000149 6e207368       2505 	.byte	110,32,115,104
0000014d 6f727420       2506 	.byte	111,114,116,32
00000151 70726573       2507 	.byte	112,114,101,115
00000155 7365643a       2508 	.byte	115,101,100,58
00000159 20737769       2509 	.byte	32,115,119,105
0000015d 74636820       2510 	.byte	116,99,104,32
00000161 746f206d       2511 	.byte	116,111,32,109
00000165 6f646520       2512 	.byte	111,100,101,32
00000169 312e2e2e       2513 	.byte	49,46,46,46
0000016d 0a0d           2514 	.byte	10,13
0000016f 00             2515 	.byte	0
                        2516 	.type	.L2245,@object
                        2517 	.size	.L2245,47

                                                                      Page 48
                                                              C:\Users\NIKHIL~1.PAT\AppData\Local\Temp\gh_000aeoo1.s
                        2518 .L2246:--	"\r>>30s without action: enter DeepSTOP...\n\r"
00000170 0d3e3e33       2519 	.byte	13,62,62,51
00000174 30732077       2520 	.byte	48,115,32,119
00000178 6974686f       2521 	.byte	105,116,104,111
0000017c 75742061       2522 	.byte	117,116,32,97
00000180 6374696f       2523 	.byte	99,116,105,111
00000184 6e3a2065       2524 	.byte	110,58,32,101
00000188 6e746572       2525 	.byte	110,116,101,114
0000018c 20446565       2526 	.byte	32,68,101,101
00000190 7053544f       2527 	.byte	112,83,84,79
00000194 502e2e2e       2528 	.byte	80,46,46,46
00000198 0a0d           2529 	.byte	10,13
0000019a 00             2530 	.byte	0
                        2531 	.type	.L2246,@object
                        2532 	.size	.L2246,43
                        2533 	.data
                        2534 	.text
                        2535 
                        2536 
                        2537 --750: /*****************************************************************************
                        2538 --751: ** Function:    DeepSTOP
                        2539 --752: ** Description: 
                        2540 --753: ** Parameter:   None
                        2541 --754: ** Return:      None
                        2542 --755: ******************************************************************************/
                        2543 --756: void DeepSTOP(void)
                        2544 	.align	2
                        2545 	.align	2
                        2546 	.global	_DeepSTOP
                        2547 _DeepSTOP:
00000a8a 5c1a           2548 	add	-4,sp
00000a8c 63ff0100       2549 	st.w	lp,0[sp]
                        2550 --	    .bf
                        2551 .LDW82:
                        2552 --757: {
                        2553 --758:    
                        2554 --759:     while(R_UI_Get_ButtonS1_State() == R_BUTTON_PRESSED);
                        2555 .L2331:
                        2556 	jarl	_R_UI_Get_ButtonS1_State,lp
                        2556 <EXPANSION BEGIN>
                        2556 jarl22 _R_UI_Get_ButtonS1_State , lp 
00000a90 80ff0000*      2556 <EXPANSION END>
00000a94 6152           2557 	cmp	1,r10
00000a96 d2fd*          2558 	be	.L2331
                        2559 --760:     
                        2560 --761:     R_UI_INTP12_Init();
                        2561 --line761
                        2562 ..lin.C.3A.5CUsers.5Cnikhil.2Epatil.5CDocuments.5Crenesas.5CRH850_F1L_sample.5Ctoolchain.5CGHS.5Coutput.5Cobj.5Cr_tasks.178::
                        2563 .LDWlin178:
                        2564 	jarl	_R_UI_INTP12_Init,lp
                        2564 <EXPANSION BEGIN>
                        2564 jarl22 _R_UI_INTP12_Init , lp 
00000a98 80ff0000*      2564 <EXPANSION END>
                        2565 --762:     R_UI_INTP15_Init();
                        2566 --line762
                        2567 ..lin.C.3A.5CUsers.5Cnikhil.2Epatil.5CDocuments.5Crenesas.5CRH850_F1L_sample.5Ctoolchain.5CGHS.5Coutput.5Cobj.5Cr_tasks.179::
                        2568 .LDWlin179:
                        2569 	jarl	_R_UI_INTP15_Init,lp
                        2569 <EXPANSION BEGIN>
                        2569 jarl22 _R_UI_INTP15_Init , lp 
00000a9c 80ff0000*      2569 <EXPANSION END>

                                                                      Page 49
                                                              C:\Users\NIKHIL~1.PAT\AppData\Local\Temp\gh_000aeoo1.s
                        2570 --763:     
                        2571 --764:     R_SYSTEM_PrepareDeepSTOP();
                        2572 --line764
                        2573 ..lin.C.3A.5CUsers.5Cnikhil.2Epatil.5CDocuments.5Crenesas.5CRH850_F1L_sample.5Ctoolchain.5CGHS.5Coutput.5Cobj.5Cr_tasks.180::
                        2574 .LDWlin180:
                        2575 	jarl	_R_SYSTEM_PrepareDeepSTOP,lp
                        2575 <EXPANSION BEGIN>
                        2575 jarl22 _R_SYSTEM_PrepareDeepSTOP , lp 
00000aa0 80ff0000*      2575 <EXPANSION END>
                        2576 --765:     R_STBC_EnterDeepSTOP();
                        2577 --line765
                        2578 ..lin.C.3A.5CUsers.5Cnikhil.2Epatil.5CDocuments.5Crenesas.5CRH850_F1L_sample.5Ctoolchain.5CGHS.5Coutput.5Cobj.5Cr_tasks.181::
                        2579 .LDWlin181:
                        2580 	jarl	_R_STBC_EnterDeepSTOP,lp
                        2580 <EXPANSION BEGIN>
                        2580 jarl22 _R_STBC_EnterDeepSTOP , lp 
00000aa4 80ff0000*      2580 <EXPANSION END>
                        2581 --766: }
                        2582 --	    .ef
                        2583 .LDW92:
                        2584 --line766
                        2585 ..lin.C.3A.5CUsers.5Cnikhil.2Epatil.5CDocuments.5Crenesas.5CRH850_F1L_sample.5Ctoolchain.5CGHS.5Coutput.5Cobj.5Cr_tasks.182::
                        2586 .LDWlin182:
00000aa8 23ff0100       2587 	ld.w	0[sp],lp
00000aac 441a           2588 	add	4,sp
00000aae 7f00           2589 	jmp	[lp]
                        2590 	.global	___ghs_eofn_DeepSTOP
                        2591 ___ghs_eofn_DeepSTOP:
                        2592 	.type	_DeepSTOP,@function
                        2593 	.size	_DeepSTOP,.-_DeepSTOP
                        2594 	.align	2
                        2595 
                        2596 	.section ".bss","awb"
                        2597 .L2374:
                        2598 	.type	.L2374,@object
                        2599 	.size	.L2374,0
                        2600 	.data
                        2601 	.text
                        2602 
                        2603 
                        2604 --769: /*****************************************************************************
                        2605 --770: ** Function:    BoardCheck
                        2606 --771: ** Description: This function checks the LED, CAN, and LIN functionality and 
                        2607 --772: **              prints the welcome screen and status via UART.
                        2608 --773: ** Parameter:   None
                        2609 --774: ** Return:      None
                        2610 --775: ******************************************************************************/
                        2611 --776: void BoardCheck(void)
                        2612 	.align	2
                        2613 	.align	2
                        2614 	.global	_BoardCheck
                        2615 _BoardCheck:
00000ab0 031ee8ff       2616 	addi	-24,sp,sp
00000ab4 63ff1500       2617 	st.w	lp,20[sp]
00000ab8 63d71100       2618 	st.w	r26,16[sp]
00000abc 63df0d00       2619 	st.w	r27,12[sp]
00000ac0 63e70900       2620 	st.w	r28,8[sp]
00000ac4 63ef0500       2621 	st.w	r29,4[sp]
00000ac8 3b0600000000*  2622 	mov	_g_SystemStatus,r27
00000ace 3a0600000000*  2623 	mov	_g_LEDRingPattern,r26
                        2624 --	    .bf

                                                                      Page 50
                                                              C:\Users\NIKHIL~1.PAT\AppData\Local\Temp\gh_000aeoo1.s
                        2625 .LDW03:
                        2626 --777: {
                        2627 --778:     uint32_t    i, 
                        2628 --779:                 j = 0;
00000ad4 00e2           2629 	mov	0,r28
                        2630 --780:         
                        2631 --781:     R_CAN_Init();
                        2632 	jarl	_R_CAN_Init,lp
                        2632 <EXPANSION BEGIN>
                        2632 jarl22 _R_CAN_Init , lp 
00000ad6 80ff0000*      2632 <EXPANSION END>
                        2633 --782:     R_LIN_Init();
                        2634 --line782
                        2635 ..lin.C.3A.5CUsers.5Cnikhil.2Epatil.5CDocuments.5Crenesas.5CRH850_F1L_sample.5Ctoolchain.5CGHS.5Coutput.5Cobj.5Cr_tasks.183::
                        2636 .LDWlin183:
                        2637 	jarl	_R_LIN_Init,lp
                        2637 <EXPANSION BEGIN>
                        2637 jarl22 _R_LIN_Init , lp 
00000ada 80ff0000*      2637 <EXPANSION END>
                        2638 --783:     R_UART_Init();
                        2639 --line783
                        2640 ..lin.C.3A.5CUsers.5Cnikhil.2Epatil.5CDocuments.5Crenesas.5CRH850_F1L_sample.5Ctoolchain.5CGHS.5Coutput.5Cobj.5Cr_tasks.184::
                        2641 .LDWlin184:
                        2642 	jarl	_R_UART_Init,lp
                        2642 <EXPANSION BEGIN>
                        2642 jarl22 _R_UART_Init , lp 
00000ade 80ff0000*      2642 <EXPANSION END>
                        2643 --784:     
                        2644 --785:     /* Send Welcome Message via UART */
                        2645 --786:     PrintText("\r*****************************************\n\r");
                        2646 --line786
                        2647 ..lin.C.3A.5CUsers.5Cnikhil.2Epatil.5CDocuments.5Crenesas.5CRH850_F1L_sample.5Ctoolchain.5CGHS.5Coutput.5Cobj.5Cr_tasks.185::
                        2648 .LDWlin185:
00000ae2 260600000000*  2649 	mov	.L3509,r6
                        2650 	jarl	_PrintText,lp
                        2650 <EXPANSION BEGIN>
                        2650 jarl22 _PrintText , lp 
00000ae8 bfff18f5*      2650 <EXPANSION END>
                        2651 --787:     PrintText("*                RENESAS                *\n\r");
                        2652 --line787
                        2653 ..lin.C.3A.5CUsers.5Cnikhil.2Epatil.5CDocuments.5Crenesas.5CRH850_F1L_sample.5Ctoolchain.5CGHS.5Coutput.5Cobj.5Cr_tasks.186::
                        2654 .LDWlin186:
00000aec 260600000000*  2655 	mov	.L3500,r6
                        2656 	jarl	_PrintText,lp
                        2656 <EXPANSION BEGIN>
                        2656 jarl22 _PrintText , lp 
00000af2 bfff0ef5*      2656 <EXPANSION END>
                        2657 --788:     PrintText("*      RH850/F1x Starter Kit Demo!      *\n\r");
                        2658 --line788
                        2659 ..lin.C.3A.5CUsers.5Cnikhil.2Epatil.5CDocuments.5Crenesas.5CRH850_F1L_sample.5Ctoolchain.5CGHS.5Coutput.5Cobj.5Cr_tasks.187::
                        2660 .LDWlin187:
00000af6 260600000000*  2661 	mov	.L3501,r6
                        2662 	jarl	_PrintText,lp
                        2662 <EXPANSION BEGIN>
                        2662 jarl22 _PrintText , lp 
00000afc bfff04f5*      2662 <EXPANSION END>
                        2663 --789:     PrintText("*****************************************\n\r");
                        2664 --line789
                        2665 ..lin.C.3A.5CUsers.5Cnikhil.2Epatil.5CDocuments.5Crenesas.5CRH850_F1L_sample.5Ctoolchain.5CGHS.5Coutput.5Cobj.5Cr_tasks.188::
                        2666 .LDWlin188:
00000b00 260600000000*  2667 	mov	.L3502,r6

                                                                      Page 51
                                                              C:\Users\NIKHIL~1.PAT\AppData\Local\Temp\gh_000aeoo1.s
                        2668 	jarl	_PrintText,lp
                        2668 <EXPANSION BEGIN>
                        2668 jarl22 _PrintText , lp 
00000b06 bffffaf4*      2668 <EXPANSION END>
                        2669 --790:     PrintText("\n\rBegin with self test...\n\r");
                        2670 --line790
                        2671 ..lin.C.3A.5CUsers.5Cnikhil.2Epatil.5CDocuments.5Crenesas.5CRH850_F1L_sample.5Ctoolchain.5CGHS.5Coutput.5Cobj.5Cr_tasks.189::
                        2672 .LDWlin189:
00000b0a 260600000000*  2673 	mov	.L3503,r6
                        2674 	jarl	_PrintText,lp
                        2674 <EXPANSION BEGIN>
                        2674 jarl22 _PrintText , lp 
00000b10 bffff0f4*      2674 <EXPANSION END>
                        2675 --791:     
                        2676 --792:     /* Check CAN-Function */
                        2677 --793:     if(R_CAN_Test() == R_OK)
                        2678 --line793
                        2679 ..lin.C.3A.5CUsers.5Cnikhil.2Epatil.5CDocuments.5Crenesas.5CRH850_F1L_sample.5Ctoolchain.5CGHS.5Coutput.5Cobj.5Cr_tasks.190::
                        2680 .LDWlin190:
                        2681 	jarl	_R_CAN_Test,lp
                        2681 <EXPANSION BEGIN>
                        2681 jarl22 _R_CAN_Test , lp 
00000b14 80ff0000*      2681 <EXPANSION END>
00000b18 e051           2682 	cmp	zero,r10
00000b1a fa05*          2683 	bne	.L2406
                        2684 --794:     {
                        2685 --795:         PrintText("CAN test...Okay\n\r");
                        2686 --line795
                        2687 ..lin.C.3A.5CUsers.5Cnikhil.2Epatil.5CDocuments.5Crenesas.5CRH850_F1L_sample.5Ctoolchain.5CGHS.5Coutput.5Cobj.5Cr_tasks.191::
                        2688 .LDWlin191:
00000b1c 260600000000*  2689 	mov	.L3506,r6
                        2690 	jarl	_PrintText,lp
                        2690 <EXPANSION BEGIN>
                        2690 jarl22 _PrintText , lp 
00000b22 bfffdef4*      2690 <EXPANSION END>
00000b26 e505*          2691 	br	.L2408
                        2692 .L2406:
                        2693 --796:     }
                        2694 --797:     else
                        2695 --798:     { 
                        2696 --799:         PrintText("\n\rCAN-Error!\n\rPlease check if all jumpers of\n\rJ7 are closed and all switches of S4 are on.\n\n\r");
                        2697 --line799
                        2698 ..lin.C.3A.5CUsers.5Cnikhil.2Epatil.5CDocuments.5Crenesas.5CRH850_F1L_sample.5Ctoolchain.5CGHS.5Coutput.5Cobj.5Cr_tasks.192::
                        2699 .LDWlin192:
00000b28 260600000000*  2700 	mov	.L3513,r6
                        2701 	jarl	_PrintText,lp
                        2701 <EXPANSION BEGIN>
                        2701 jarl22 _PrintText , lp 
00000b2e bfffd2f4*      2701 <EXPANSION END>
                        2702 .L2408:
                        2703 --800:     } 
                        2704 --801:     
                        2705 --802:     /* Check LIN-Function */
                        2706 --803:     if(R_LIN_Test() == R_OK)
                        2707 --line803
                        2708 ..lin.C.3A.5CUsers.5Cnikhil.2Epatil.5CDocuments.5Crenesas.5CRH850_F1L_sample.5Ctoolchain.5CGHS.5Coutput.5Cobj.5Cr_tasks.193::
                        2709 .LDWlin193:
                        2710 	jarl	_R_LIN_Test,lp
                        2710 <EXPANSION BEGIN>
                        2710 jarl22 _R_LIN_Test , lp 
00000b32 80ff0000*      2710 <EXPANSION END>

                                                                      Page 52
                                                              C:\Users\NIKHIL~1.PAT\AppData\Local\Temp\gh_000aeoo1.s
00000b36 e051           2711 	cmp	zero,r10
00000b38 fa05*          2712 	bne	.L2409
                        2713 --804:     {
                        2714 --805:         PrintText("LIN test...Okay\n\r");
                        2715 --line805
                        2716 ..lin.C.3A.5CUsers.5Cnikhil.2Epatil.5CDocuments.5Crenesas.5CRH850_F1L_sample.5Ctoolchain.5CGHS.5Coutput.5Cobj.5Cr_tasks.194::
                        2717 .LDWlin194:
00000b3a 260600000000*  2718 	mov	.L3507,r6
                        2719 	jarl	_PrintText,lp
                        2719 <EXPANSION BEGIN>
                        2719 jarl22 _PrintText , lp 
00000b40 bfffc0f4*      2719 <EXPANSION END>
00000b44 e505*          2720 	br	.L2411
                        2721 .L2409:
                        2722 --806:     }
                        2723 --807:     else
                        2724 --808:     { 
                        2725 --809:         PrintText("LIN-Error!\n\rPlease check if all jumpers of\n\rJ17 are closed and switches 3-6 of S10 are off.\n\n\r");
                        2726 --line809
                        2727 ..lin.C.3A.5CUsers.5Cnikhil.2Epatil.5CDocuments.5Crenesas.5CRH850_F1L_sample.5Ctoolchain.5CGHS.5Coutput.5Cobj.5Cr_tasks.195::
                        2728 .LDWlin195:
00000b46 260600000000*  2729 	mov	.L3514,r6
                        2730 	jarl	_PrintText,lp
                        2730 <EXPANSION BEGIN>
                        2730 jarl22 _PrintText , lp 
00000b4c bfffb4f4*      2730 <EXPANSION END>
                        2731 .L2411:
                        2732 --810:     }
                        2733 --813:     
                        2734 --814:     R_CAN_Deinit();
                        2735 --line814
                        2736 ..lin.C.3A.5CUsers.5Cnikhil.2Epatil.5CDocuments.5Crenesas.5CRH850_F1L_sample.5Ctoolchain.5CGHS.5Coutput.5Cobj.5Cr_tasks.196::
                        2737 .LDWlin196:
                        2738 	jarl	_R_CAN_Deinit,lp
                        2738 <EXPANSION BEGIN>
                        2738 jarl22 _R_CAN_Deinit , lp 
00000b50 80ff0000*      2738 <EXPANSION END>
                        2739 --815:     R_LIN_Deinit();
                        2740 --line815
                        2741 ..lin.C.3A.5CUsers.5Cnikhil.2Epatil.5CDocuments.5Crenesas.5CRH850_F1L_sample.5Ctoolchain.5CGHS.5Coutput.5Cobj.5Cr_tasks.197::
                        2742 .LDWlin197:
                        2743 	jarl	_R_LIN_Deinit,lp
                        2743 <EXPANSION BEGIN>
                        2743 jarl22 _R_LIN_Deinit , lp 
00000b54 80ff0000*      2743 <EXPANSION END>
                        2744 --816:     
                        2745 --817:     /*Start RGB LED test sequence */
                        2746 --818:     PrintText("RGB LED test...");
                        2747 --line818
                        2748 ..lin.C.3A.5CUsers.5Cnikhil.2Epatil.5CDocuments.5Crenesas.5CRH850_F1L_sample.5Ctoolchain.5CGHS.5Coutput.5Cobj.5Cr_tasks.198::
                        2749 .LDWlin198:
00000b58 260600000000*  2750 	mov	.L3499,r6
                        2751 	jarl	_PrintText,lp
                        2751 <EXPANSION BEGIN>
                        2751 jarl22 _PrintText , lp 
00000b5e bfffa2f4*      2751 <EXPANSION END>
                        2752 --819:     
                        2753 --820:     /* Start all LED functions */
                        2754 --821:     R_LED_SetPwmDuty(LED1, 4095);
                        2755 --line821
                        2756 ..lin.C.3A.5CUsers.5Cnikhil.2Epatil.5CDocuments.5Crenesas.5CRH850_F1L_sample.5Ctoolchain.5CGHS.5Coutput.5Cobj.5Cr_tasks.199::

                                                                      Page 53
                                                              C:\Users\NIKHIL~1.PAT\AppData\Local\Temp\gh_000aeoo1.s
                        2757 .LDWlin199:
00000b62 0332           2758 	mov	3,r6
00000b64 203eff0f       2759 	movea	4095,zero,r7
                        2760 	jarl	_R_LED_SetPwmDuty,lp
                        2760 <EXPANSION BEGIN>
                        2760 jarl22 _R_LED_SetPwmDuty , lp 
00000b68 80ff0000*      2760 <EXPANSION END>
                        2761 --822:     R_LED_SetPwmDuty(LED2, 4095);
                        2762 --line822
                        2763 ..lin.C.3A.5CUsers.5Cnikhil.2Epatil.5CDocuments.5Crenesas.5CRH850_F1L_sample.5Ctoolchain.5CGHS.5Coutput.5Cobj.5Cr_tasks.200::
                        2764 .LDWlin200:
00000b6c 0432           2765 	mov	4,r6
00000b6e 203eff0f       2766 	movea	4095,zero,r7
                        2767 	jarl	_R_LED_SetPwmDuty,lp
                        2767 <EXPANSION BEGIN>
                        2767 jarl22 _R_LED_SetPwmDuty , lp 
00000b72 80ff0000*      2767 <EXPANSION END>
                        2768 --823:     R_LED_SetPwmDuty(LEDR, 0);
                        2769 --line823
                        2770 ..lin.C.3A.5CUsers.5Cnikhil.2Epatil.5CDocuments.5Crenesas.5CRH850_F1L_sample.5Ctoolchain.5CGHS.5Coutput.5Cobj.5Cr_tasks.201::
                        2771 .LDWlin201:
00000b76 0032           2772 	mov	0,r6
00000b78 003a           2773 	mov	0,r7
                        2774 	jarl	_R_LED_SetPwmDuty,lp
                        2774 <EXPANSION BEGIN>
                        2774 jarl22 _R_LED_SetPwmDuty , lp 
00000b7a 80ff0000*      2774 <EXPANSION END>
                        2775 --824:     R_LED_SetPwmDuty(LEDG, 0);
                        2776 --line824
                        2777 ..lin.C.3A.5CUsers.5Cnikhil.2Epatil.5CDocuments.5Crenesas.5CRH850_F1L_sample.5Ctoolchain.5CGHS.5Coutput.5Cobj.5Cr_tasks.202::
                        2778 .LDWlin202:
00000b7e 0132           2779 	mov	1,r6
00000b80 003a           2780 	mov	0,r7
                        2781 	jarl	_R_LED_SetPwmDuty,lp
                        2781 <EXPANSION BEGIN>
                        2781 jarl22 _R_LED_SetPwmDuty , lp 
00000b82 80ff0000*      2781 <EXPANSION END>
                        2782 --825:     R_LED_SetPwmDuty(LEDB, 0);
                        2783 --line825
                        2784 ..lin.C.3A.5CUsers.5Cnikhil.2Epatil.5CDocuments.5Crenesas.5CRH850_F1L_sample.5Ctoolchain.5CGHS.5Coutput.5Cobj.5Cr_tasks.203::
                        2785 .LDWlin203:
00000b86 0232           2786 	mov	2,r6
00000b88 003a           2787 	mov	0,r7
                        2788 	jarl	_R_LED_SetPwmDuty,lp
                        2788 <EXPANSION BEGIN>
                        2788 jarl22 _R_LED_SetPwmDuty , lp 
00000b8a 80ff0000*      2788 <EXPANSION END>
                        2789 --826:     R_LED_PwmStart(LED1);
                        2790 --line826
                        2791 ..lin.C.3A.5CUsers.5Cnikhil.2Epatil.5CDocuments.5Crenesas.5CRH850_F1L_sample.5Ctoolchain.5CGHS.5Coutput.5Cobj.5Cr_tasks.204::
                        2792 .LDWlin204:
00000b8e 0332           2793 	mov	3,r6
                        2794 	jarl	_R_LED_PwmStart,lp
                        2794 <EXPANSION BEGIN>
                        2794 jarl22 _R_LED_PwmStart , lp 
00000b90 80ff0000*      2794 <EXPANSION END>
                        2795 --827:     R_LED_PwmStart(LED2);
                        2796 --line827
                        2797 ..lin.C.3A.5CUsers.5Cnikhil.2Epatil.5CDocuments.5Crenesas.5CRH850_F1L_sample.5Ctoolchain.5CGHS.5Coutput.5Cobj.5Cr_tasks.205::
                        2798 .LDWlin205:
00000b94 0432           2799 	mov	4,r6

                                                                      Page 54
                                                              C:\Users\NIKHIL~1.PAT\AppData\Local\Temp\gh_000aeoo1.s
                        2800 	jarl	_R_LED_PwmStart,lp
                        2800 <EXPANSION BEGIN>
                        2800 jarl22 _R_LED_PwmStart , lp 
00000b96 80ff0000*      2800 <EXPANSION END>
                        2801 --828:     R_LED_PwmStart(LEDR);
                        2802 --line828
                        2803 ..lin.C.3A.5CUsers.5Cnikhil.2Epatil.5CDocuments.5Crenesas.5CRH850_F1L_sample.5Ctoolchain.5CGHS.5Coutput.5Cobj.5Cr_tasks.206::
                        2804 .LDWlin206:
00000b9a 0032           2805 	mov	0,r6
                        2806 	jarl	_R_LED_PwmStart,lp
                        2806 <EXPANSION BEGIN>
                        2806 jarl22 _R_LED_PwmStart , lp 
00000b9c 80ff0000*      2806 <EXPANSION END>
                        2807 --829:     R_LED_PwmStart(LEDG);
                        2808 --line829
                        2809 ..lin.C.3A.5CUsers.5Cnikhil.2Epatil.5CDocuments.5Crenesas.5CRH850_F1L_sample.5Ctoolchain.5CGHS.5Coutput.5Cobj.5Cr_tasks.207::
                        2810 .LDWlin207:
00000ba0 0132           2811 	mov	1,r6
                        2812 	jarl	_R_LED_PwmStart,lp
                        2812 <EXPANSION BEGIN>
                        2812 jarl22 _R_LED_PwmStart , lp 
00000ba2 80ff0000*      2812 <EXPANSION END>
                        2813 --830:     R_LED_PwmStart(LEDB);
                        2814 --line830
                        2815 ..lin.C.3A.5CUsers.5Cnikhil.2Epatil.5CDocuments.5Crenesas.5CRH850_F1L_sample.5Ctoolchain.5CGHS.5Coutput.5Cobj.5Cr_tasks.208::
                        2816 .LDWlin208:
00000ba6 0232           2817 	mov	2,r6
                        2818 	jarl	_R_LED_PwmStart,lp
                        2818 <EXPANSION BEGIN>
                        2818 jarl22 _R_LED_PwmStart , lp 
00000ba8 80ff0000*      2818 <EXPANSION END>
                        2819 --831:     R_LED_RingOutputEnable();
                        2820 --line831
                        2821 ..lin.C.3A.5CUsers.5Cnikhil.2Epatil.5CDocuments.5Crenesas.5CRH850_F1L_sample.5Ctoolchain.5CGHS.5Coutput.5Cobj.5Cr_tasks.209::
                        2822 .LDWlin209:
                        2823 	jarl	_R_LED_RingOutputEnable,lp
                        2823 <EXPANSION BEGIN>
                        2823 jarl22 _R_LED_RingOutputEnable , lp 
00000bac 80ff0000*      2823 <EXPANSION END>
                        2824 --832:     
                        2825 --833:     R_SYSTEM_TimerStart();
                        2826 --line833
                        2827 ..lin.C.3A.5CUsers.5Cnikhil.2Epatil.5CDocuments.5Crenesas.5CRH850_F1L_sample.5Ctoolchain.5CGHS.5Coutput.5Cobj.5Cr_tasks.210::
                        2828 .LDWlin210:
                        2829 	jarl	_R_SYSTEM_TimerStart,lp
                        2829 <EXPANSION BEGIN>
                        2829 jarl22 _R_SYSTEM_TimerStart , lp 
00000bb0 80ff0000*      2829 <EXPANSION END>
                        2830 --834:     
                        2831 --835:     /* Start ADC and PWM diagnosis and assign corresponding ADC call-back */
                        2832 --836:     g_SystemStatus.LEDR_Error = R_OK;
                        2833 --line836
                        2834 ..lin.C.3A.5CUsers.5Cnikhil.2Epatil.5CDocuments.5Crenesas.5CRH850_F1L_sample.5Ctoolchain.5CGHS.5Coutput.5Cobj.5Cr_tasks.211::
                        2835 .LDWlin211:
00000bb4 7b071d00       2836 	st.w	zero,28[r27]
                        2837 --837:     g_SystemStatus.LEDG_Error = R_OK;
00000bb8 7b072100       2838 	st.w	zero,32[r27]
                        2839 --838:     g_SystemStatus.LEDB_Error = R_OK;
00000bbc 7b072500       2840 	st.w	zero,36[r27]
                        2841 --839:     R_ADCA0_AssignLimitErrorCB(PwmErrorCallBack);
00000bc0 260600000000*  2842 	mov	_PwmErrorCallBack,r6

                                                                      Page 55
                                                              C:\Users\NIKHIL~1.PAT\AppData\Local\Temp\gh_000aeoo1.s
                        2843 	jarl	_R_ADCA0_AssignLimitErrorCB,lp
                        2843 <EXPANSION BEGIN>
                        2843 jarl22 _R_ADCA0_AssignLimitErrorCB , lp 
00000bc6 80ff0000*      2843 <EXPANSION END>
                        2844 --840:     R_INTC_SetTableBit((uint16_t*)R_ICADCA0ERR);
                        2845 --line840
                        2846 ..lin.C.3A.5CUsers.5Cnikhil.2Epatil.5CDocuments.5Crenesas.5CRH850_F1L_sample.5Ctoolchain.5CGHS.5Coutput.5Cobj.5Cr_tasks.212::
                        2847 .LDWlin212:
00000bca 20365ea0       2848 	movea	-24482,zero,r6
                        2849 	jarl	_R_INTC_SetTableBit,lp
                        2849 <EXPANSION BEGIN>
                        2849 jarl22 _R_INTC_SetTableBit , lp 
00000bce 80ff0000*      2849 <EXPANSION END>
                        2850 --841:     R_INTC_UnmaskInterrupt((uint16_t*)R_ICADCA0ERR);
                        2851 --line841
                        2852 ..lin.C.3A.5CUsers.5Cnikhil.2Epatil.5CDocuments.5Crenesas.5CRH850_F1L_sample.5Ctoolchain.5CGHS.5Coutput.5Cobj.5Cr_tasks.213::
                        2853 .LDWlin213:
00000bd2 20365ea0       2854 	movea	-24482,zero,r6
                        2855 	jarl	_R_INTC_UnmaskInterrupt,lp
                        2855 <EXPANSION BEGIN>
                        2855 jarl22 _R_INTC_UnmaskInterrupt , lp 
00000bd6 80ff0000*      2855 <EXPANSION END>
                        2856 --842:     R_ADCA0_SetUpperLowerLimit(0,1000,600);
                        2857 --line842
                        2858 ..lin.C.3A.5CUsers.5Cnikhil.2Epatil.5CDocuments.5Crenesas.5CRH850_F1L_sample.5Ctoolchain.5CGHS.5Coutput.5Cobj.5Cr_tasks.214::
                        2859 .LDWlin214:
00000bda 0032           2860 	mov	0,r6
00000bdc 203ee803       2861 	movea	1000,zero,r7
00000be0 20465802       2862 	movea	600,zero,r8
                        2863 	jarl	_R_ADCA0_SetUpperLowerLimit,lp
                        2863 <EXPANSION BEGIN>
                        2863 jarl22 _R_ADCA0_SetUpperLowerLimit , lp 
00000be4 80ff0000*      2863 <EXPANSION END>
                        2864 --843:     R_ADCA0_PwsaTriggerEnable();
                        2865 --line843
                        2866 ..lin.C.3A.5CUsers.5Cnikhil.2Epatil.5CDocuments.5Crenesas.5CRH850_F1L_sample.5Ctoolchain.5CGHS.5Coutput.5Cobj.5Cr_tasks.215::
                        2867 .LDWlin215:
                        2868 	jarl	_R_ADCA0_PwsaTriggerEnable,lp
                        2868 <EXPANSION BEGIN>
                        2868 jarl22 _R_ADCA0_PwsaTriggerEnable , lp 
00000be8 80ff0000*      2868 <EXPANSION END>
                        2869 --844:     R_PWMD_DiagStart();
                        2870 --line844
                        2871 ..lin.C.3A.5CUsers.5Cnikhil.2Epatil.5CDocuments.5Crenesas.5CRH850_F1L_sample.5Ctoolchain.5CGHS.5Coutput.5Cobj.5Cr_tasks.216::
                        2872 .LDWlin216:
                        2873 	jarl	_R_PWMD_DiagStart,lp
                        2873 <EXPANSION BEGIN>
                        2873 jarl22 _R_PWMD_DiagStart , lp 
00000bec 80ff0000*      2873 <EXPANSION END>
                        2874 --845:     
                        2875 --846:     /* Generate RGB color flow and ring LEDs sequence */
                        2876 --847:     for(i=0; i<100; i++)
                        2877 --line847
                        2878 ..lin.C.3A.5CUsers.5Cnikhil.2Epatil.5CDocuments.5Crenesas.5CRH850_F1L_sample.5Ctoolchain.5CGHS.5Coutput.5Cobj.5Cr_tasks.217::
                        2879 .LDWlin217:
00000bf0 00ea           2880 	mov	0,r29
00000bf2 0000           2881 	nop
                        2882 .L2414:
                        2883 --848:     {
                        2884 --849:         R_LED_SetPwmDuty(LEDR, (i*41));
00000bf4 1d38           2885 	mov	r29,r7

                                                                      Page 56
                                                              C:\Users\NIKHIL~1.PAT\AppData\Local\Temp\gh_000aeoo1.s
00000bf6 e93f4602       2886 	mulu	41,r7,zero
00000bfa 0032           2887 	mov	0,r6
00000bfc c700           2888 	zxh	r7
                        2889 	jarl	_R_LED_SetPwmDuty,lp
                        2889 <EXPANSION BEGIN>
                        2889 jarl22 _R_LED_SetPwmDuty , lp 
00000bfe 80ff0000*      2889 <EXPANSION END>
                        2890 --850:         
                        2891 --851:         if(!(i%25))
                        2892 --line851
                        2893 ..lin.C.3A.5CUsers.5Cnikhil.2Epatil.5CDocuments.5Crenesas.5CRH850_F1L_sample.5Ctoolchain.5CGHS.5Coutput.5Cobj.5Cr_tasks.218::
                        2894 .LDWlin218:
00000c02 1d08           2895 	mov	r29,r1
00000c04 20161900       2896 	movea	25,zero,r2
00000c08 e20ffe0a       2897 	divqu	r2,r1,r1
00000c0c e009           2898 	cmp	zero,r1
00000c0e 8a0d*          2899 	bne	.L2415
                        2900 --852:         {
                        2901 --853:             R_LED_RingUpdate(g_LEDRingPattern[j++]);
                        2902 --line853
                        2903 ..lin.C.3A.5CUsers.5Cnikhil.2Epatil.5CDocuments.5Crenesas.5CRH850_F1L_sample.5Ctoolchain.5CGHS.5Coutput.5Cobj.5Cr_tasks.219::
                        2904 .LDWlin219:
00000c10 1cf0           2905 	mov	r28,ep
00000c12 c1f2           2906 	shl	1,ep
00000c14 daf1           2907 	add	r26,ep
00000c16 7030           2908 	sld.hu	0[ep],r6
00000c18 41e2           2909 	add	1,r28
                        2910 	jarl	_R_LED_RingUpdate,lp
                        2910 <EXPANSION BEGIN>
                        2910 jarl22 _R_LED_RingUpdate , lp 
00000c1a 80ff0000*      2910 <EXPANSION END>
                        2911 .L2415:
                        2912 --854:         }
                        2913 --855:         R_SYSTEM_TimerTick();
                        2914 --line855
                        2915 ..lin.C.3A.5CUsers.5Cnikhil.2Epatil.5CDocuments.5Crenesas.5CRH850_F1L_sample.5Ctoolchain.5CGHS.5Coutput.5Cobj.5Cr_tasks.220::
                        2916 .LDWlin220:
                        2917 	jarl	_R_SYSTEM_TimerTick,lp
                        2917 <EXPANSION BEGIN>
                        2917 jarl22 _R_SYSTEM_TimerTick , lp 
00000c1e 80ff0000*      2917 <EXPANSION END>
                        2918 --856:         R_SYSTEM_TimerTick();
                        2919 --line856
                        2920 ..lin.C.3A.5CUsers.5Cnikhil.2Epatil.5CDocuments.5Crenesas.5CRH850_F1L_sample.5Ctoolchain.5CGHS.5Coutput.5Cobj.5Cr_tasks.221::
                        2921 .LDWlin221:
                        2922 	jarl	_R_SYSTEM_TimerTick,lp
                        2922 <EXPANSION BEGIN>
                        2922 jarl22 _R_SYSTEM_TimerTick , lp 
00000c22 80ff0000*      2922 <EXPANSION END>
                        2923 --line847
                        2924 ..lin.C.3A.5CUsers.5Cnikhil.2Epatil.5CDocuments.5Crenesas.5CRH850_F1L_sample.5Ctoolchain.5CGHS.5Coutput.5Cobj.5Cr_tasks.222::
                        2925 .LDWlin222:
00000c26 41ea           2926 	add	1,r29
00000c28 1d069cff       2927 	addi	-100,r29,zero
00000c2c c9e5*          2928 	bnl	.L2414
                        2929 --857:     }
                        2930 --858:     
                        2931 --859:     for(i=0; i<100; i++)
                        2932 --line859
                        2933 ..lin.C.3A.5CUsers.5Cnikhil.2Epatil.5CDocuments.5Crenesas.5CRH850_F1L_sample.5Ctoolchain.5CGHS.5Coutput.5Cobj.5Cr_tasks.223::
                        2934 .LDWlin223:

                                                                      Page 57
                                                              C:\Users\NIKHIL~1.PAT\AppData\Local\Temp\gh_000aeoo1.s
00000c2e 00ea           2935 	mov	0,r29
00000c30 0000           2936 	nop
                        2937 .L2419:
                        2938 --860:     {
                        2939 --861:         R_LED_SetPwmDuty(LEDG, (i*41));
00000c32 1d38           2940 	mov	r29,r7
00000c34 e93f4602       2941 	mulu	41,r7,zero
00000c38 0132           2942 	mov	1,r6
00000c3a c700           2943 	zxh	r7
                        2944 	jarl	_R_LED_SetPwmDuty,lp
                        2944 <EXPANSION BEGIN>
                        2944 jarl22 _R_LED_SetPwmDuty , lp 
00000c3c 80ff0000*      2944 <EXPANSION END>
                        2945 --862:         
                        2946 --863:         if(!(i%25))
                        2947 --line863
                        2948 ..lin.C.3A.5CUsers.5Cnikhil.2Epatil.5CDocuments.5Crenesas.5CRH850_F1L_sample.5Ctoolchain.5CGHS.5Coutput.5Cobj.5Cr_tasks.224::
                        2949 .LDWlin224:
00000c40 1d08           2950 	mov	r29,r1
00000c42 20161900       2951 	movea	25,zero,r2
00000c46 e20ffe0a       2952 	divqu	r2,r1,r1
00000c4a e009           2953 	cmp	zero,r1
00000c4c 8a0d*          2954 	bne	.L2420
                        2955 --864:         {
                        2956 --865:             R_LED_RingUpdate(g_LEDRingPattern[j++]);
                        2957 --line865
                        2958 ..lin.C.3A.5CUsers.5Cnikhil.2Epatil.5CDocuments.5Crenesas.5CRH850_F1L_sample.5Ctoolchain.5CGHS.5Coutput.5Cobj.5Cr_tasks.225::
                        2959 .LDWlin225:
00000c4e 1cf0           2960 	mov	r28,ep
00000c50 c1f2           2961 	shl	1,ep
00000c52 daf1           2962 	add	r26,ep
00000c54 7030           2963 	sld.hu	0[ep],r6
00000c56 41e2           2964 	add	1,r28
                        2965 	jarl	_R_LED_RingUpdate,lp
                        2965 <EXPANSION BEGIN>
                        2965 jarl22 _R_LED_RingUpdate , lp 
00000c58 80ff0000*      2965 <EXPANSION END>
                        2966 .L2420:
                        2967 --866:         }
                        2968 --867:         R_SYSTEM_TimerTick();
                        2969 --line867
                        2970 ..lin.C.3A.5CUsers.5Cnikhil.2Epatil.5CDocuments.5Crenesas.5CRH850_F1L_sample.5Ctoolchain.5CGHS.5Coutput.5Cobj.5Cr_tasks.226::
                        2971 .LDWlin226:
                        2972 	jarl	_R_SYSTEM_TimerTick,lp
                        2972 <EXPANSION BEGIN>
                        2972 jarl22 _R_SYSTEM_TimerTick , lp 
00000c5c 80ff0000*      2972 <EXPANSION END>
                        2973 --868:         R_SYSTEM_TimerTick();
                        2974 --line868
                        2975 ..lin.C.3A.5CUsers.5Cnikhil.2Epatil.5CDocuments.5Crenesas.5CRH850_F1L_sample.5Ctoolchain.5CGHS.5Coutput.5Cobj.5Cr_tasks.227::
                        2976 .LDWlin227:
                        2977 	jarl	_R_SYSTEM_TimerTick,lp
                        2977 <EXPANSION BEGIN>
                        2977 jarl22 _R_SYSTEM_TimerTick , lp 
00000c60 80ff0000*      2977 <EXPANSION END>
                        2978 --line859
                        2979 ..lin.C.3A.5CUsers.5Cnikhil.2Epatil.5CDocuments.5Crenesas.5CRH850_F1L_sample.5Ctoolchain.5CGHS.5Coutput.5Cobj.5Cr_tasks.228::
                        2980 .LDWlin228:
00000c64 41ea           2981 	add	1,r29
00000c66 1d069cff       2982 	addi	-100,r29,zero
00000c6a c9e5*          2983 	bnl	.L2419

                                                                      Page 58
                                                              C:\Users\NIKHIL~1.PAT\AppData\Local\Temp\gh_000aeoo1.s
                        2984 --869:     }
                        2985 --870:     
                        2986 --871:     for(i=0; i<100; i++)
                        2987 --line871
                        2988 ..lin.C.3A.5CUsers.5Cnikhil.2Epatil.5CDocuments.5Crenesas.5CRH850_F1L_sample.5Ctoolchain.5CGHS.5Coutput.5Cobj.5Cr_tasks.229::
                        2989 .LDWlin229:
00000c6c 00ea           2990 	mov	0,r29
00000c6e 0000           2991 	nop
                        2992 .L2424:
                        2993 --872:     {
                        2994 --873:         R_LED_SetPwmDuty(LEDR, (4059-(i*41)));
00000c70 1d10           2995 	mov	r29,r2
00000c72 e9174602       2996 	mulu	41,r2,zero
00000c76 200edb0f       2997 	movea	4059,zero,r1
00000c7a 0032           2998 	mov	0,r6
00000c7c a209           2999 	sub	r2,r1
00000c7e 0138           3000 	mov	r1,r7
00000c80 c700           3001 	zxh	r7
                        3002 	jarl	_R_LED_SetPwmDuty,lp
                        3002 <EXPANSION BEGIN>
                        3002 jarl22 _R_LED_SetPwmDuty , lp 
00000c82 80ff0000*      3002 <EXPANSION END>
                        3003 --874:         
                        3004 --875:         if(!(i%25))
                        3005 --line875
                        3006 ..lin.C.3A.5CUsers.5Cnikhil.2Epatil.5CDocuments.5Crenesas.5CRH850_F1L_sample.5Ctoolchain.5CGHS.5Coutput.5Cobj.5Cr_tasks.230::
                        3007 .LDWlin230:
00000c86 1d08           3008 	mov	r29,r1
00000c88 20161900       3009 	movea	25,zero,r2
00000c8c e20ffe0a       3010 	divqu	r2,r1,r1
00000c90 e009           3011 	cmp	zero,r1
00000c92 8a0d*          3012 	bne	.L2425
                        3013 --876:         {
                        3014 --877:             R_LED_RingUpdate(g_LEDRingPattern[j++]);
                        3015 --line877
                        3016 ..lin.C.3A.5CUsers.5Cnikhil.2Epatil.5CDocuments.5Crenesas.5CRH850_F1L_sample.5Ctoolchain.5CGHS.5Coutput.5Cobj.5Cr_tasks.231::
                        3017 .LDWlin231:
00000c94 1cf0           3018 	mov	r28,ep
00000c96 c1f2           3019 	shl	1,ep
00000c98 daf1           3020 	add	r26,ep
00000c9a 7030           3021 	sld.hu	0[ep],r6
00000c9c 41e2           3022 	add	1,r28
                        3023 	jarl	_R_LED_RingUpdate,lp
                        3023 <EXPANSION BEGIN>
                        3023 jarl22 _R_LED_RingUpdate , lp 
00000c9e 80ff0000*      3023 <EXPANSION END>
                        3024 .L2425:
                        3025 --878:         }
                        3026 --879:         R_SYSTEM_TimerTick();
                        3027 --line879
                        3028 ..lin.C.3A.5CUsers.5Cnikhil.2Epatil.5CDocuments.5Crenesas.5CRH850_F1L_sample.5Ctoolchain.5CGHS.5Coutput.5Cobj.5Cr_tasks.232::
                        3029 .LDWlin232:
                        3030 	jarl	_R_SYSTEM_TimerTick,lp
                        3030 <EXPANSION BEGIN>
                        3030 jarl22 _R_SYSTEM_TimerTick , lp 
00000ca2 80ff0000*      3030 <EXPANSION END>
                        3031 --880:         R_SYSTEM_TimerTick();
                        3032 --line880
                        3033 ..lin.C.3A.5CUsers.5Cnikhil.2Epatil.5CDocuments.5Crenesas.5CRH850_F1L_sample.5Ctoolchain.5CGHS.5Coutput.5Cobj.5Cr_tasks.233::
                        3034 .LDWlin233:
                        3035 	jarl	_R_SYSTEM_TimerTick,lp

                                                                      Page 59
                                                              C:\Users\NIKHIL~1.PAT\AppData\Local\Temp\gh_000aeoo1.s
                        3035 <EXPANSION BEGIN>
                        3035 jarl22 _R_SYSTEM_TimerTick , lp 
00000ca6 80ff0000*      3035 <EXPANSION END>
                        3036 --line871
                        3037 ..lin.C.3A.5CUsers.5Cnikhil.2Epatil.5CDocuments.5Crenesas.5CRH850_F1L_sample.5Ctoolchain.5CGHS.5Coutput.5Cobj.5Cr_tasks.234::
                        3038 .LDWlin234:
00000caa 41ea           3039 	add	1,r29
00000cac 1d069cff       3040 	addi	-100,r29,zero
00000cb0 89e5*          3041 	bnl	.L2424
                        3042 --881:     }
                        3043 --882:     
                        3044 --883:     for(i=1; i<100; i++)
                        3045 --line883
                        3046 ..lin.C.3A.5CUsers.5Cnikhil.2Epatil.5CDocuments.5Crenesas.5CRH850_F1L_sample.5Ctoolchain.5CGHS.5Coutput.5Cobj.5Cr_tasks.235::
                        3047 .LDWlin235:
00000cb2 01ea           3048 	mov	1,r29
00000cb4 0000           3049 	nop
                        3050 .L2429:
                        3051 --884:     {
                        3052 --885:         R_LED_SetPwmDuty(LEDB, (i*41));
00000cb6 1d38           3053 	mov	r29,r7
00000cb8 e93f4602       3054 	mulu	41,r7,zero
00000cbc 0232           3055 	mov	2,r6
00000cbe c700           3056 	zxh	r7
                        3057 	jarl	_R_LED_SetPwmDuty,lp
                        3057 <EXPANSION BEGIN>
                        3057 jarl22 _R_LED_SetPwmDuty , lp 
00000cc0 80ff0000*      3057 <EXPANSION END>
                        3058 --886:         
                        3059 --887:         if(!(i%25))
                        3060 --line887
                        3061 ..lin.C.3A.5CUsers.5Cnikhil.2Epatil.5CDocuments.5Crenesas.5CRH850_F1L_sample.5Ctoolchain.5CGHS.5Coutput.5Cobj.5Cr_tasks.236::
                        3062 .LDWlin236:
00000cc4 1d08           3063 	mov	r29,r1
00000cc6 20161900       3064 	movea	25,zero,r2
00000cca e20ffe0a       3065 	divqu	r2,r1,r1
00000cce e009           3066 	cmp	zero,r1
00000cd0 8a0d*          3067 	bne	.L2430
                        3068 --888:         {
                        3069 --889:             R_LED_RingUpdate(g_LEDRingPattern[j++]);
                        3070 --line889
                        3071 ..lin.C.3A.5CUsers.5Cnikhil.2Epatil.5CDocuments.5Crenesas.5CRH850_F1L_sample.5Ctoolchain.5CGHS.5Coutput.5Cobj.5Cr_tasks.237::
                        3072 .LDWlin237:
00000cd2 1cf0           3073 	mov	r28,ep
00000cd4 c1f2           3074 	shl	1,ep
00000cd6 daf1           3075 	add	r26,ep
00000cd8 7030           3076 	sld.hu	0[ep],r6
00000cda 41e2           3077 	add	1,r28
                        3078 	jarl	_R_LED_RingUpdate,lp
                        3078 <EXPANSION BEGIN>
                        3078 jarl22 _R_LED_RingUpdate , lp 
00000cdc 80ff0000*      3078 <EXPANSION END>
                        3079 .L2430:
                        3080 --890:         }
                        3081 --891:         R_SYSTEM_TimerTick();
                        3082 --line891
                        3083 ..lin.C.3A.5CUsers.5Cnikhil.2Epatil.5CDocuments.5Crenesas.5CRH850_F1L_sample.5Ctoolchain.5CGHS.5Coutput.5Cobj.5Cr_tasks.238::
                        3084 .LDWlin238:
                        3085 	jarl	_R_SYSTEM_TimerTick,lp
                        3085 <EXPANSION BEGIN>
                        3085 jarl22 _R_SYSTEM_TimerTick , lp 

                                                                      Page 60
                                                              C:\Users\NIKHIL~1.PAT\AppData\Local\Temp\gh_000aeoo1.s
00000ce0 80ff0000*      3085 <EXPANSION END>
                        3086 --892:         R_SYSTEM_TimerTick();
                        3087 --line892
                        3088 ..lin.C.3A.5CUsers.5Cnikhil.2Epatil.5CDocuments.5Crenesas.5CRH850_F1L_sample.5Ctoolchain.5CGHS.5Coutput.5Cobj.5Cr_tasks.239::
                        3089 .LDWlin239:
                        3090 	jarl	_R_SYSTEM_TimerTick,lp
                        3090 <EXPANSION BEGIN>
                        3090 jarl22 _R_SYSTEM_TimerTick , lp 
00000ce4 80ff0000*      3090 <EXPANSION END>
                        3091 --line883
                        3092 ..lin.C.3A.5CUsers.5Cnikhil.2Epatil.5CDocuments.5Crenesas.5CRH850_F1L_sample.5Ctoolchain.5CGHS.5Coutput.5Cobj.5Cr_tasks.240::
                        3093 .LDWlin240:
00000ce8 41ea           3094 	add	1,r29
00000cea 1d069cff       3095 	addi	-100,r29,zero
00000cee c9e5*          3096 	bnl	.L2429
                        3097 --893:     }
                        3098 --894:     
                        3099 --895:     j = 0;
                        3100 --line895
                        3101 ..lin.C.3A.5CUsers.5Cnikhil.2Epatil.5CDocuments.5Crenesas.5CRH850_F1L_sample.5Ctoolchain.5CGHS.5Coutput.5Cobj.5Cr_tasks.241::
                        3102 .LDWlin241:
00000cf0 00e2           3103 	mov	0,r28
                        3104 --896:     
                        3105 --897:     for(i=0; i<100; i++)
00000cf2 00ea           3106 	mov	0,r29
00000cf4 0000           3107 	nop
                        3108 .L2434:
                        3109 --898:     {
                        3110 --899:         R_LED_SetPwmDuty(LEDG, (4059-(i*41)));
00000cf6 1d10           3111 	mov	r29,r2
00000cf8 e9174602       3112 	mulu	41,r2,zero
00000cfc 200edb0f       3113 	movea	4059,zero,r1
00000d00 0132           3114 	mov	1,r6
00000d02 a209           3115 	sub	r2,r1
00000d04 0138           3116 	mov	r1,r7
00000d06 c700           3117 	zxh	r7
                        3118 	jarl	_R_LED_SetPwmDuty,lp
                        3118 <EXPANSION BEGIN>
                        3118 jarl22 _R_LED_SetPwmDuty , lp 
00000d08 80ff0000*      3118 <EXPANSION END>
                        3119 --900:         
                        3120 --901:         if(!(i%25))
                        3121 --line901
                        3122 ..lin.C.3A.5CUsers.5Cnikhil.2Epatil.5CDocuments.5Crenesas.5CRH850_F1L_sample.5Ctoolchain.5CGHS.5Coutput.5Cobj.5Cr_tasks.242::
                        3123 .LDWlin242:
00000d0c 1d08           3124 	mov	r29,r1
00000d0e 20161900       3125 	movea	25,zero,r2
00000d12 e20ffe0a       3126 	divqu	r2,r1,r1
00000d16 e009           3127 	cmp	zero,r1
00000d18 aa0d*          3128 	bne	.L2435
                        3129 --902:         {
                        3130 --903:             R_LED_RingUpdate(~g_LEDRingPattern[j++]);
                        3131 --line903
                        3132 ..lin.C.3A.5CUsers.5Cnikhil.2Epatil.5CDocuments.5Crenesas.5CRH850_F1L_sample.5Ctoolchain.5CGHS.5Coutput.5Cobj.5Cr_tasks.243::
                        3133 .LDWlin243:
00000d1a 1cf0           3134 	mov	r28,ep
00000d1c c1f2           3135 	shl	1,ep
00000d1e daf1           3136 	add	r26,ep
00000d20 7008           3137 	sld.hu	0[ep],r1
00000d22 41e2           3138 	add	1,r28
00000d24 2130           3139 	not	r1,r6

                                                                      Page 61
                                                              C:\Users\NIKHIL~1.PAT\AppData\Local\Temp\gh_000aeoo1.s
00000d26 c600           3140 	zxh	r6
                        3141 	jarl	_R_LED_RingUpdate,lp
                        3141 <EXPANSION BEGIN>
                        3141 jarl22 _R_LED_RingUpdate , lp 
00000d28 80ff0000*      3141 <EXPANSION END>
                        3142 .L2435:
                        3143 --904:         }
                        3144 --905:         R_SYSTEM_TimerTick();
                        3145 --line905
                        3146 ..lin.C.3A.5CUsers.5Cnikhil.2Epatil.5CDocuments.5Crenesas.5CRH850_F1L_sample.5Ctoolchain.5CGHS.5Coutput.5Cobj.5Cr_tasks.244::
                        3147 .LDWlin244:
                        3148 	jarl	_R_SYSTEM_TimerTick,lp
                        3148 <EXPANSION BEGIN>
                        3148 jarl22 _R_SYSTEM_TimerTick , lp 
00000d2c 80ff0000*      3148 <EXPANSION END>
                        3149 --906:         R_SYSTEM_TimerTick();
                        3150 --line906
                        3151 ..lin.C.3A.5CUsers.5Cnikhil.2Epatil.5CDocuments.5Crenesas.5CRH850_F1L_sample.5Ctoolchain.5CGHS.5Coutput.5Cobj.5Cr_tasks.245::
                        3152 .LDWlin245:
                        3153 	jarl	_R_SYSTEM_TimerTick,lp
                        3153 <EXPANSION BEGIN>
                        3153 jarl22 _R_SYSTEM_TimerTick , lp 
00000d30 80ff0000*      3153 <EXPANSION END>
                        3154 --line897
                        3155 ..lin.C.3A.5CUsers.5Cnikhil.2Epatil.5CDocuments.5Crenesas.5CRH850_F1L_sample.5Ctoolchain.5CGHS.5Coutput.5Cobj.5Cr_tasks.246::
                        3156 .LDWlin246:
00000d34 41ea           3157 	add	1,r29
00000d36 1d069cff       3158 	addi	-100,r29,zero
00000d3a e9dd*          3159 	bnl	.L2434
                        3160 --907:     }
                        3161 --908:     
                        3162 --909:     for(i=0; i<100; i++)
                        3163 --line909
                        3164 ..lin.C.3A.5CUsers.5Cnikhil.2Epatil.5CDocuments.5Crenesas.5CRH850_F1L_sample.5Ctoolchain.5CGHS.5Coutput.5Cobj.5Cr_tasks.247::
                        3165 .LDWlin247:
00000d3c 00ea           3166 	mov	0,r29
00000d3e 0000           3167 	nop
                        3168 .L2439:
                        3169 --910:     {
                        3170 --911:         R_LED_SetPwmDuty(LEDR, (i*41));
00000d40 1d38           3171 	mov	r29,r7
00000d42 e93f4602       3172 	mulu	41,r7,zero
00000d46 0032           3173 	mov	0,r6
00000d48 c700           3174 	zxh	r7
                        3175 	jarl	_R_LED_SetPwmDuty,lp
                        3175 <EXPANSION BEGIN>
                        3175 jarl22 _R_LED_SetPwmDuty , lp 
00000d4a 80ff0000*      3175 <EXPANSION END>
                        3176 --912:         if(!(i%25))
                        3177 --line912
                        3178 ..lin.C.3A.5CUsers.5Cnikhil.2Epatil.5CDocuments.5Crenesas.5CRH850_F1L_sample.5Ctoolchain.5CGHS.5Coutput.5Cobj.5Cr_tasks.248::
                        3179 .LDWlin248:
00000d4e 1d08           3180 	mov	r29,r1
00000d50 20161900       3181 	movea	25,zero,r2
00000d54 e20ffe0a       3182 	divqu	r2,r1,r1
00000d58 e009           3183 	cmp	zero,r1
00000d5a aa0d*          3184 	bne	.L2440
                        3185 --913:         {
                        3186 --914:             R_LED_RingUpdate(~g_LEDRingPattern[j++]);
                        3187 --line914
                        3188 ..lin.C.3A.5CUsers.5Cnikhil.2Epatil.5CDocuments.5Crenesas.5CRH850_F1L_sample.5Ctoolchain.5CGHS.5Coutput.5Cobj.5Cr_tasks.249::

                                                                      Page 62
                                                              C:\Users\NIKHIL~1.PAT\AppData\Local\Temp\gh_000aeoo1.s
                        3189 .LDWlin249:
00000d5c 1cf0           3190 	mov	r28,ep
00000d5e c1f2           3191 	shl	1,ep
00000d60 daf1           3192 	add	r26,ep
00000d62 7008           3193 	sld.hu	0[ep],r1
00000d64 41e2           3194 	add	1,r28
00000d66 2130           3195 	not	r1,r6
00000d68 c600           3196 	zxh	r6
                        3197 	jarl	_R_LED_RingUpdate,lp
                        3197 <EXPANSION BEGIN>
                        3197 jarl22 _R_LED_RingUpdate , lp 
00000d6a 80ff0000*      3197 <EXPANSION END>
                        3198 .L2440:
                        3199 --915:         }
                        3200 --916:         R_SYSTEM_TimerTick();
                        3201 --line916
                        3202 ..lin.C.3A.5CUsers.5Cnikhil.2Epatil.5CDocuments.5Crenesas.5CRH850_F1L_sample.5Ctoolchain.5CGHS.5Coutput.5Cobj.5Cr_tasks.250::
                        3203 .LDWlin250:
                        3204 	jarl	_R_SYSTEM_TimerTick,lp
                        3204 <EXPANSION BEGIN>
                        3204 jarl22 _R_SYSTEM_TimerTick , lp 
00000d6e 80ff0000*      3204 <EXPANSION END>
                        3205 --917:         R_SYSTEM_TimerTick();
                        3206 --line917
                        3207 ..lin.C.3A.5CUsers.5Cnikhil.2Epatil.5CDocuments.5Crenesas.5CRH850_F1L_sample.5Ctoolchain.5CGHS.5Coutput.5Cobj.5Cr_tasks.251::
                        3208 .LDWlin251:
                        3209 	jarl	_R_SYSTEM_TimerTick,lp
                        3209 <EXPANSION BEGIN>
                        3209 jarl22 _R_SYSTEM_TimerTick , lp 
00000d72 80ff0000*      3209 <EXPANSION END>
                        3210 --line909
                        3211 ..lin.C.3A.5CUsers.5Cnikhil.2Epatil.5CDocuments.5Crenesas.5CRH850_F1L_sample.5Ctoolchain.5CGHS.5Coutput.5Cobj.5Cr_tasks.252::
                        3212 .LDWlin252:
00000d76 41ea           3213 	add	1,r29
00000d78 1d069cff       3214 	addi	-100,r29,zero
00000d7c a9e5*          3215 	bnl	.L2439
                        3216 --918:     }
                        3217 --919:     
                        3218 --920:     for(i=0; i<100; i++)
                        3219 --line920
                        3220 ..lin.C.3A.5CUsers.5Cnikhil.2Epatil.5CDocuments.5Crenesas.5CRH850_F1L_sample.5Ctoolchain.5CGHS.5Coutput.5Cobj.5Cr_tasks.253::
                        3221 .LDWlin253:
00000d7e 00ea           3222 	mov	0,r29
00000d80 0000           3223 	nop
                        3224 .L2444:
                        3225 --921:     {
                        3226 --922:         R_LED_SetPwmDuty(LEDG, (i*41));
00000d82 1d38           3227 	mov	r29,r7
00000d84 e93f4602       3228 	mulu	41,r7,zero
00000d88 0132           3229 	mov	1,r6
00000d8a c700           3230 	zxh	r7
                        3231 	jarl	_R_LED_SetPwmDuty,lp
                        3231 <EXPANSION BEGIN>
                        3231 jarl22 _R_LED_SetPwmDuty , lp 
00000d8c 80ff0000*      3231 <EXPANSION END>
                        3232 --923:         
                        3233 --924:         if(!(i%25))
                        3234 --line924
                        3235 ..lin.C.3A.5CUsers.5Cnikhil.2Epatil.5CDocuments.5Crenesas.5CRH850_F1L_sample.5Ctoolchain.5CGHS.5Coutput.5Cobj.5Cr_tasks.254::
                        3236 .LDWlin254:
00000d90 1d08           3237 	mov	r29,r1

                                                                      Page 63
                                                              C:\Users\NIKHIL~1.PAT\AppData\Local\Temp\gh_000aeoo1.s
00000d92 20161900       3238 	movea	25,zero,r2
00000d96 e20ffe0a       3239 	divqu	r2,r1,r1
00000d9a e009           3240 	cmp	zero,r1
00000d9c aa0d*          3241 	bne	.L2445
                        3242 --925:         {
                        3243 --926:             R_LED_RingUpdate(~g_LEDRingPattern[j++]);
                        3244 --line926
                        3245 ..lin.C.3A.5CUsers.5Cnikhil.2Epatil.5CDocuments.5Crenesas.5CRH850_F1L_sample.5Ctoolchain.5CGHS.5Coutput.5Cobj.5Cr_tasks.255::
                        3246 .LDWlin255:
00000d9e 1cf0           3247 	mov	r28,ep
00000da0 c1f2           3248 	shl	1,ep
00000da2 daf1           3249 	add	r26,ep
00000da4 7008           3250 	sld.hu	0[ep],r1
00000da6 41e2           3251 	add	1,r28
00000da8 2130           3252 	not	r1,r6
00000daa c600           3253 	zxh	r6
                        3254 	jarl	_R_LED_RingUpdate,lp
                        3254 <EXPANSION BEGIN>
                        3254 jarl22 _R_LED_RingUpdate , lp 
00000dac 80ff0000*      3254 <EXPANSION END>
                        3255 .L2445:
                        3256 --927:         }
                        3257 --928:         R_SYSTEM_TimerTick();
                        3258 --line928
                        3259 ..lin.C.3A.5CUsers.5Cnikhil.2Epatil.5CDocuments.5Crenesas.5CRH850_F1L_sample.5Ctoolchain.5CGHS.5Coutput.5Cobj.5Cr_tasks.256::
                        3260 .LDWlin256:
                        3261 	jarl	_R_SYSTEM_TimerTick,lp
                        3261 <EXPANSION BEGIN>
                        3261 jarl22 _R_SYSTEM_TimerTick , lp 
00000db0 80ff0000*      3261 <EXPANSION END>
                        3262 --929:         R_SYSTEM_TimerTick();
                        3263 --line929
                        3264 ..lin.C.3A.5CUsers.5Cnikhil.2Epatil.5CDocuments.5Crenesas.5CRH850_F1L_sample.5Ctoolchain.5CGHS.5Coutput.5Cobj.5Cr_tasks.257::
                        3265 .LDWlin257:
                        3266 	jarl	_R_SYSTEM_TimerTick,lp
                        3266 <EXPANSION BEGIN>
                        3266 jarl22 _R_SYSTEM_TimerTick , lp 
00000db4 80ff0000*      3266 <EXPANSION END>
                        3267 --line920
                        3268 ..lin.C.3A.5CUsers.5Cnikhil.2Epatil.5CDocuments.5Crenesas.5CRH850_F1L_sample.5Ctoolchain.5CGHS.5Coutput.5Cobj.5Cr_tasks.258::
                        3269 .LDWlin258:
00000db8 41ea           3270 	add	1,r29
00000dba 1d069cff       3271 	addi	-100,r29,zero
00000dbe a9e5*          3272 	bnl	.L2444
                        3273 --930:     }
                        3274 --931:     
                        3275 --932:     for(i=0; i<100; i++)
                        3276 --line932
                        3277 ..lin.C.3A.5CUsers.5Cnikhil.2Epatil.5CDocuments.5Crenesas.5CRH850_F1L_sample.5Ctoolchain.5CGHS.5Coutput.5Cobj.5Cr_tasks.259::
                        3278 .LDWlin259:
00000dc0 00ea           3279 	mov	0,r29
00000dc2 0000           3280 	nop
                        3281 .L2449:
                        3282 --933:     {
                        3283 --934:         R_LED_SetPwmDuty(LEDR, (4059-(i*41)));
00000dc4 1d10           3284 	mov	r29,r2
00000dc6 e9174602       3285 	mulu	41,r2,zero
00000dca 200edb0f       3286 	movea	4059,zero,r1
00000dce 0032           3287 	mov	0,r6
00000dd0 a209           3288 	sub	r2,r1
00000dd2 0138           3289 	mov	r1,r7

                                                                      Page 64
                                                              C:\Users\NIKHIL~1.PAT\AppData\Local\Temp\gh_000aeoo1.s
00000dd4 c700           3290 	zxh	r7
                        3291 	jarl	_R_LED_SetPwmDuty,lp
                        3291 <EXPANSION BEGIN>
                        3291 jarl22 _R_LED_SetPwmDuty , lp 
00000dd6 80ff0000*      3291 <EXPANSION END>
                        3292 --935:         R_LED_SetPwmDuty(LEDG, (4059-(i*41)));
                        3293 --line935
                        3294 ..lin.C.3A.5CUsers.5Cnikhil.2Epatil.5CDocuments.5Crenesas.5CRH850_F1L_sample.5Ctoolchain.5CGHS.5Coutput.5Cobj.5Cr_tasks.260::
                        3295 .LDWlin260:
00000dda 1d10           3296 	mov	r29,r2
00000ddc e9174602       3297 	mulu	41,r2,zero
00000de0 200edb0f       3298 	movea	4059,zero,r1
00000de4 0132           3299 	mov	1,r6
00000de6 a209           3300 	sub	r2,r1
00000de8 0138           3301 	mov	r1,r7
00000dea c700           3302 	zxh	r7
                        3303 	jarl	_R_LED_SetPwmDuty,lp
                        3303 <EXPANSION BEGIN>
                        3303 jarl22 _R_LED_SetPwmDuty , lp 
00000dec 80ff0000*      3303 <EXPANSION END>
                        3304 --936:         R_LED_SetPwmDuty(LEDB, (4059-(i*41)));
                        3305 --line936
                        3306 ..lin.C.3A.5CUsers.5Cnikhil.2Epatil.5CDocuments.5Crenesas.5CRH850_F1L_sample.5Ctoolchain.5CGHS.5Coutput.5Cobj.5Cr_tasks.261::
                        3307 .LDWlin261:
00000df0 1d10           3308 	mov	r29,r2
00000df2 e9174602       3309 	mulu	41,r2,zero
00000df6 200edb0f       3310 	movea	4059,zero,r1
00000dfa 0232           3311 	mov	2,r6
00000dfc a209           3312 	sub	r2,r1
00000dfe 0138           3313 	mov	r1,r7
00000e00 c700           3314 	zxh	r7
                        3315 	jarl	_R_LED_SetPwmDuty,lp
                        3315 <EXPANSION BEGIN>
                        3315 jarl22 _R_LED_SetPwmDuty , lp 
00000e02 80ff0000*      3315 <EXPANSION END>
                        3316 --937:         if(!(i%25))
                        3317 --line937
                        3318 ..lin.C.3A.5CUsers.5Cnikhil.2Epatil.5CDocuments.5Crenesas.5CRH850_F1L_sample.5Ctoolchain.5CGHS.5Coutput.5Cobj.5Cr_tasks.262::
                        3319 .LDWlin262:
00000e06 1d08           3320 	mov	r29,r1
00000e08 20161900       3321 	movea	25,zero,r2
00000e0c e20ffe0a       3322 	divqu	r2,r1,r1
00000e10 e009           3323 	cmp	zero,r1
00000e12 aa0d*          3324 	bne	.L2450
                        3325 --938:         {
                        3326 --939:             R_LED_RingUpdate(~g_LEDRingPattern[j++]);
                        3327 --line939
                        3328 ..lin.C.3A.5CUsers.5Cnikhil.2Epatil.5CDocuments.5Crenesas.5CRH850_F1L_sample.5Ctoolchain.5CGHS.5Coutput.5Cobj.5Cr_tasks.263::
                        3329 .LDWlin263:
00000e14 1cf0           3330 	mov	r28,ep
00000e16 c1f2           3331 	shl	1,ep
00000e18 daf1           3332 	add	r26,ep
00000e1a 7008           3333 	sld.hu	0[ep],r1
00000e1c 41e2           3334 	add	1,r28
00000e1e 2130           3335 	not	r1,r6
00000e20 c600           3336 	zxh	r6
                        3337 	jarl	_R_LED_RingUpdate,lp
                        3337 <EXPANSION BEGIN>
                        3337 jarl22 _R_LED_RingUpdate , lp 
00000e22 80ff0000*      3337 <EXPANSION END>
                        3338 .L2450:

                                                                      Page 65
                                                              C:\Users\NIKHIL~1.PAT\AppData\Local\Temp\gh_000aeoo1.s
                        3339 --940:         }
                        3340 --941:         R_SYSTEM_TimerTick();
                        3341 --line941
                        3342 ..lin.C.3A.5CUsers.5Cnikhil.2Epatil.5CDocuments.5Crenesas.5CRH850_F1L_sample.5Ctoolchain.5CGHS.5Coutput.5Cobj.5Cr_tasks.264::
                        3343 .LDWlin264:
                        3344 	jarl	_R_SYSTEM_TimerTick,lp
                        3344 <EXPANSION BEGIN>
                        3344 jarl22 _R_SYSTEM_TimerTick , lp 
00000e26 80ff0000*      3344 <EXPANSION END>
                        3345 --942:         R_SYSTEM_TimerTick();
                        3346 --line942
                        3347 ..lin.C.3A.5CUsers.5Cnikhil.2Epatil.5CDocuments.5Crenesas.5CRH850_F1L_sample.5Ctoolchain.5CGHS.5Coutput.5Cobj.5Cr_tasks.265::
                        3348 .LDWlin265:
                        3349 	jarl	_R_SYSTEM_TimerTick,lp
                        3349 <EXPANSION BEGIN>
                        3349 jarl22 _R_SYSTEM_TimerTick , lp 
00000e2a 80ff0000*      3349 <EXPANSION END>
                        3350 --line932
                        3351 ..lin.C.3A.5CUsers.5Cnikhil.2Epatil.5CDocuments.5Crenesas.5CRH850_F1L_sample.5Ctoolchain.5CGHS.5Coutput.5Cobj.5Cr_tasks.266::
                        3352 .LDWlin266:
00000e2e 41ea           3353 	add	1,r29
00000e30 1d069cff       3354 	addi	-100,r29,zero
00000e34 89cd*          3355 	bnl	.L2449
                        3356 --943:     }
                        3357 --944:     
                        3358 --945:     for(i=0; i<200; i++)
                        3359 --line945
                        3360 ..lin.C.3A.5CUsers.5Cnikhil.2Epatil.5CDocuments.5Crenesas.5CRH850_F1L_sample.5Ctoolchain.5CGHS.5Coutput.5Cobj.5Cr_tasks.267::
                        3361 .LDWlin267:
00000e36 00ea           3362 	mov	0,r29
00000e38 0000           3363 	nop
                        3364 .L2454:
                        3365 --946:     {
                        3366 --947:         R_SYSTEM_TimerTick();
                        3367 	jarl	_R_SYSTEM_TimerTick,lp
                        3367 <EXPANSION BEGIN>
                        3367 jarl22 _R_SYSTEM_TimerTick , lp 
00000e3a 80ff0000*      3367 <EXPANSION END>
                        3368 --line945
                        3369 ..lin.C.3A.5CUsers.5Cnikhil.2Epatil.5CDocuments.5Crenesas.5CRH850_F1L_sample.5Ctoolchain.5CGHS.5Coutput.5Cobj.5Cr_tasks.268::
                        3370 .LDWlin268:
00000e3e 41ea           3371 	add	1,r29
00000e40 1d0638ff       3372 	addi	-200,r29,zero
00000e44 b9fd*          3373 	bnl	.L2454
                        3374 --948:     }
                        3375 --949:     
                        3376 --950:     
                        3377 --951:     /* Turn RGB to white and all ring LEDs on */
                        3378 --952:     R_LED_SetPwmDuty(LEDR, 4095);
                        3379 --line952
                        3380 ..lin.C.3A.5CUsers.5Cnikhil.2Epatil.5CDocuments.5Crenesas.5CRH850_F1L_sample.5Ctoolchain.5CGHS.5Coutput.5Cobj.5Cr_tasks.269::
                        3381 .LDWlin269:
00000e46 0032           3382 	mov	0,r6
00000e48 203eff0f       3383 	movea	4095,zero,r7
                        3384 	jarl	_R_LED_SetPwmDuty,lp
                        3384 <EXPANSION BEGIN>
                        3384 jarl22 _R_LED_SetPwmDuty , lp 
00000e4c 80ff0000*      3384 <EXPANSION END>
                        3385 --953:     R_LED_SetPwmDuty(LEDG, 4095);
                        3386 --line953
                        3387 ..lin.C.3A.5CUsers.5Cnikhil.2Epatil.5CDocuments.5Crenesas.5CRH850_F1L_sample.5Ctoolchain.5CGHS.5Coutput.5Cobj.5Cr_tasks.270::

                                                                      Page 66
                                                              C:\Users\NIKHIL~1.PAT\AppData\Local\Temp\gh_000aeoo1.s
                        3388 .LDWlin270:
00000e50 0132           3389 	mov	1,r6
00000e52 203eff0f       3390 	movea	4095,zero,r7
                        3391 	jarl	_R_LED_SetPwmDuty,lp
                        3391 <EXPANSION BEGIN>
                        3391 jarl22 _R_LED_SetPwmDuty , lp 
00000e56 80ff0000*      3391 <EXPANSION END>
                        3392 --954:     R_LED_SetPwmDuty(LEDB, 4095);
                        3393 --line954
                        3394 ..lin.C.3A.5CUsers.5Cnikhil.2Epatil.5CDocuments.5Crenesas.5CRH850_F1L_sample.5Ctoolchain.5CGHS.5Coutput.5Cobj.5Cr_tasks.271::
                        3395 .LDWlin271:
00000e5a 0232           3396 	mov	2,r6
00000e5c 203eff0f       3397 	movea	4095,zero,r7
                        3398 	jarl	_R_LED_SetPwmDuty,lp
                        3398 <EXPANSION BEGIN>
                        3398 jarl22 _R_LED_SetPwmDuty , lp 
00000e60 80ff0000*      3398 <EXPANSION END>
                        3399 --955:     R_LED_RingUpdate(0xFFFF);
                        3400 --line955
                        3401 ..lin.C.3A.5CUsers.5Cnikhil.2Epatil.5CDocuments.5Crenesas.5CRH850_F1L_sample.5Ctoolchain.5CGHS.5Coutput.5Cobj.5Cr_tasks.272::
                        3402 .LDWlin272:
00000e64 8036ffff       3403 	ori	65535,zero,r6
                        3404 	jarl	_R_LED_RingUpdate,lp
                        3404 <EXPANSION BEGIN>
                        3404 jarl22 _R_LED_RingUpdate , lp 
00000e68 80ff0000*      3404 <EXPANSION END>
                        3405 --956:     
                        3406 --957:     
                        3407 --958:             /* Check LED status and print message if error occured */
                        3408 --959:     if(g_SystemStatus.LEDR_Error == R_OK && g_SystemStatus.LEDG_Error == R_OK &&  g_SystemStatus.LEDB_Error == R_OK )
                        3409 --line959
                        3410 ..lin.C.3A.5CUsers.5Cnikhil.2Epatil.5CDocuments.5Crenesas.5CRH850_F1L_sample.5Ctoolchain.5CGHS.5Coutput.5Cobj.5Cr_tasks.273::
                        3411 .LDWlin273:
00000e6c 3b0f1d00       3412 	ld.w	28[r27],r1
00000e70 e009           3413 	cmp	zero,r1
00000e72 fa0d*          3414 	bne	.L2455
00000e74 3b0f2100       3415 	ld.w	32[r27],r1
00000e78 e009           3416 	cmp	zero,r1
00000e7a ba0d*          3417 	bne	.L2455
00000e7c 3b0f2500       3418 	ld.w	36[r27],r1
00000e80 e009           3419 	cmp	zero,r1
00000e82 fa05*          3420 	bne	.L2455
                        3421 --960:     {
                        3422 --961:         PrintText("Okay\n\r");
                        3423 --line961
                        3424 ..lin.C.3A.5CUsers.5Cnikhil.2Epatil.5CDocuments.5Crenesas.5CRH850_F1L_sample.5Ctoolchain.5CGHS.5Coutput.5Cobj.5Cr_tasks.274::
                        3425 .LDWlin274:
00000e84 260600000000*  3426 	mov	rosdaoff23(.L3498),r6
                        3427 	jarl	_PrintText,lp
                        3427 <EXPANSION BEGIN>
                        3427 jarl22 _PrintText , lp 
00000e8a bfff76f1*      3427 <EXPANSION END>
00000e8e e505*          3428 	br	.L2459
                        3429 .L2455:
                        3430 --962:     }
                        3431 --963:       else
                        3432 --964:     {
                        3433 --965:         PrintText("failed\n\r");
                        3434 --line965
                        3435 ..lin.C.3A.5CUsers.5Cnikhil.2Epatil.5CDocuments.5Crenesas.5CRH850_F1L_sample.5Ctoolchain.5CGHS.5Coutput.5Cobj.5Cr_tasks.275::
                        3436 .LDWlin275:

                                                                      Page 67
                                                              C:\Users\NIKHIL~1.PAT\AppData\Local\Temp\gh_000aeoo1.s
00000e90 260600000000*  3437 	mov	.L3510,r6
                        3438 	jarl	_PrintText,lp
                        3438 <EXPANSION BEGIN>
                        3438 jarl22 _PrintText , lp 
00000e96 bfff6af1*      3438 <EXPANSION END>
                        3439 .L2459:
                        3440 --966:     }
                        3441 --967:     
                        3442 --968:     /* Check LED status and print message if error occured */
                        3443 --969:     if(g_SystemStatus.LEDR_Error == R_ERROR)
                        3444 --line969
                        3445 ..lin.C.3A.5CUsers.5Cnikhil.2Epatil.5CDocuments.5Crenesas.5CRH850_F1L_sample.5Ctoolchain.5CGHS.5Coutput.5Cobj.5Cr_tasks.276::
                        3446 .LDWlin276:
00000e9a 3b0f1d00       3447 	ld.w	28[r27],r1
00000e9e 610a           3448 	cmp	1,r1
00000ea0 ea05*          3449 	bne	.L2460
                        3450 --970:     {
                        3451 --971:         PrintText("Red LED error detected.\n\r");
                        3452 --line971
                        3453 ..lin.C.3A.5CUsers.5Cnikhil.2Epatil.5CDocuments.5Crenesas.5CRH850_F1L_sample.5Ctoolchain.5CGHS.5Coutput.5Cobj.5Cr_tasks.277::
                        3454 .LDWlin277:
00000ea2 260600000000*  3455 	mov	.L3508,r6
                        3456 	jarl	_PrintText,lp
                        3456 <EXPANSION BEGIN>
                        3456 jarl22 _PrintText , lp 
00000ea8 bfff58f1*      3456 <EXPANSION END>
                        3457 .L2460:
                        3458 --972:     }
                        3459 --973:     if(g_SystemStatus.LEDG_Error == R_ERROR)
                        3460 --line973
                        3461 ..lin.C.3A.5CUsers.5Cnikhil.2Epatil.5CDocuments.5Crenesas.5CRH850_F1L_sample.5Ctoolchain.5CGHS.5Coutput.5Cobj.5Cr_tasks.278::
                        3462 .LDWlin278:
00000eac 3b0f2100       3463 	ld.w	32[r27],r1
00000eb0 610a           3464 	cmp	1,r1
00000eb2 ea05*          3465 	bne	.L2462
                        3466 --974:     {
                        3467 --975:         PrintText("Green LED error detected.\n\r");
                        3468 --line975
                        3469 ..lin.C.3A.5CUsers.5Cnikhil.2Epatil.5CDocuments.5Crenesas.5CRH850_F1L_sample.5Ctoolchain.5CGHS.5Coutput.5Cobj.5Cr_tasks.279::
                        3470 .LDWlin279:
00000eb4 260600000000*  3471 	mov	.L3504,r6
                        3472 	jarl	_PrintText,lp
                        3472 <EXPANSION BEGIN>
                        3472 jarl22 _PrintText , lp 
00000eba bfff46f1*      3472 <EXPANSION END>
                        3473 .L2462:
                        3474 --976:     }
                        3475 --977:     if(g_SystemStatus.LEDB_Error == R_ERROR)
                        3476 --line977
                        3477 ..lin.C.3A.5CUsers.5Cnikhil.2Epatil.5CDocuments.5Crenesas.5CRH850_F1L_sample.5Ctoolchain.5CGHS.5Coutput.5Cobj.5Cr_tasks.280::
                        3478 .LDWlin280:
00000ebe 3b0f2500       3479 	ld.w	36[r27],r1
00000ec2 610a           3480 	cmp	1,r1
00000ec4 ea05*          3481 	bne	.L2464
                        3482 --978:     {
                        3483 --979:         PrintText("Blue LED error detected.\n\r");
                        3484 --line979
                        3485 ..lin.C.3A.5CUsers.5Cnikhil.2Epatil.5CDocuments.5Crenesas.5CRH850_F1L_sample.5Ctoolchain.5CGHS.5Coutput.5Cobj.5Cr_tasks.281::
                        3486 .LDWlin281:
00000ec6 260600000000*  3487 	mov	.L3511,r6
                        3488 	jarl	_PrintText,lp

                                                                      Page 68
                                                              C:\Users\NIKHIL~1.PAT\AppData\Local\Temp\gh_000aeoo1.s
                        3488 <EXPANSION BEGIN>
                        3488 jarl22 _PrintText , lp 
00000ecc bfff34f1*      3488 <EXPANSION END>
                        3489 .L2464:
                        3490 --980:     }
                        3491 --981:     
                        3492 --983:     
                        3493 --984:     
                        3494 --985:     /* Check if a display is connected. If so, image is output to it */
                        3495 --986:     if(R_DISPLAY_Init() == R_OK)
                        3496 --line986
                        3497 ..lin.C.3A.5CUsers.5Cnikhil.2Epatil.5CDocuments.5Crenesas.5CRH850_F1L_sample.5Ctoolchain.5CGHS.5Coutput.5Cobj.5Cr_tasks.282::
                        3498 .LDWlin282:
                        3499 	jarl	_R_DISPLAY_Init,lp
                        3499 <EXPANSION BEGIN>
                        3499 jarl22 _R_DISPLAY_Init , lp 
00000ed0 80ff0000*      3499 <EXPANSION END>
00000ed4 e051           3500 	cmp	zero,r10
00000ed6 fa15*          3501 	bne	.L2466
                        3502 --987:     {
                        3503 --988:         PrintText("Display detected.\n\r");
                        3504 --line988
                        3505 ..lin.C.3A.5CUsers.5Cnikhil.2Epatil.5CDocuments.5Crenesas.5CRH850_F1L_sample.5Ctoolchain.5CGHS.5Coutput.5Cobj.5Cr_tasks.283::
                        3506 .LDWlin283:
00000ed8 260600000000*  3507 	mov	.L3505,r6
                        3508 	jarl	_PrintText,lp
                        3508 <EXPANSION BEGIN>
                        3508 jarl22 _PrintText , lp 
00000ede bfff22f1*      3508 <EXPANSION END>
                        3509 --989:         R_DISPLAY_DrawImg(0,0,128,96,(uint16_t*)RenesasPicture);
                        3510 --line989
                        3511 ..lin.C.3A.5CUsers.5Cnikhil.2Epatil.5CDocuments.5Crenesas.5CRH850_F1L_sample.5Ctoolchain.5CGHS.5Coutput.5Cobj.5Cr_tasks.284::
                        3512 .LDWlin284:
00000ee2 210600000000*  3513 	mov	_RenesasPicture,r1
00000ee8 630f0100       3514 	st.w	r1,0[sp]
00000eec 0032           3515 	mov	0,r6
00000eee 003a           3516 	mov	0,r7
00000ef0 20468000       3517 	movea	128,zero,r8
00000ef4 204e6000       3518 	movea	96,zero,r9
                        3519 	jarl	_R_DISPLAY_DrawImg,lp
                        3519 <EXPANSION BEGIN>
                        3519 jarl22 _R_DISPLAY_DrawImg , lp 
00000ef8 80ff0000*      3519 <EXPANSION END>
                        3520 --990:         g_SystemStatus.DisplayDetected = 1;
                        3521 --line990
                        3522 ..lin.C.3A.5CUsers.5Cnikhil.2Epatil.5CDocuments.5Crenesas.5CRH850_F1L_sample.5Ctoolchain.5CGHS.5Coutput.5Cobj.5Cr_tasks.285::
                        3523 .LDWlin285:
00000efc 010a           3524 	mov	1,r1
00000efe 7b0f2d00       3525 	st.w	r1,44[r27]
00000f02 850d*          3526 	br	.L2468
                        3527 .L2466:
                        3528 --991:     }
                        3529 --992:     else
                        3530 --993:     {
                        3531 --994:         
                        3532 --995:         PrintText("No display detected.\n\r");
                        3533 --line995
                        3534 ..lin.C.3A.5CUsers.5Cnikhil.2Epatil.5CDocuments.5Crenesas.5CRH850_F1L_sample.5Ctoolchain.5CGHS.5Coutput.5Cobj.5Cr_tasks.286::
                        3535 .LDWlin286:
00000f04 260600000000*  3536 	mov	.L3512,r6
                        3537 	jarl	_PrintText,lp

                                                                      Page 69
                                                              C:\Users\NIKHIL~1.PAT\AppData\Local\Temp\gh_000aeoo1.s
                        3537 <EXPANSION BEGIN>
                        3537 jarl22 _PrintText , lp 
00000f0a bffff6f0*      3537 <EXPANSION END>
                        3538 --996:         g_SystemStatus.DisplayDetected = 0;
                        3539 --line996
                        3540 ..lin.C.3A.5CUsers.5Cnikhil.2Epatil.5CDocuments.5Crenesas.5CRH850_F1L_sample.5Ctoolchain.5CGHS.5Coutput.5Cobj.5Cr_tasks.287::
                        3541 .LDWlin287:
00000f0e 7b072d00       3542 	st.w	zero,44[r27]
                        3543 .L2468:
                        3544 --997:     }
                        3545 --998:     
                        3546 --999:     /* Wait for 500ms */
                        3547 --1000:     for(i=0; i<500; i++)
00000f12 00ea           3548 	mov	0,r29
00000f14 0000           3549 	nop
                        3550 .L2471:
                        3551 --1001:     {
                        3552 --1002:         R_SYSTEM_TimerTick();
                        3553 	jarl	_R_SYSTEM_TimerTick,lp
                        3553 <EXPANSION BEGIN>
                        3553 jarl22 _R_SYSTEM_TimerTick , lp 
00000f16 80ff0000*      3553 <EXPANSION END>
                        3554 --line1000
                        3555 ..lin.C.3A.5CUsers.5Cnikhil.2Epatil.5CDocuments.5Crenesas.5CRH850_F1L_sample.5Ctoolchain.5CGHS.5Coutput.5Cobj.5Cr_tasks.288::
                        3556 .LDWlin288:
00000f1a 41ea           3557 	add	1,r29
00000f1c 1d060cfe       3558 	addi	-500,r29,zero
00000f20 b9fd*          3559 	bnl	.L2471
                        3560 --1003:     }
                        3561 --1004:     
                        3562 --1005:     R_INTC_MaskInterrupt((uint16_t*)R_ICADCA0ERR);
                        3563 --line1005
                        3564 ..lin.C.3A.5CUsers.5Cnikhil.2Epatil.5CDocuments.5Crenesas.5CRH850_F1L_sample.5Ctoolchain.5CGHS.5Coutput.5Cobj.5Cr_tasks.289::
                        3565 .LDWlin289:
00000f22 20365ea0       3566 	movea	-24482,zero,r6
                        3567 	jarl	_R_INTC_MaskInterrupt,lp
                        3567 <EXPANSION BEGIN>
                        3567 jarl22 _R_INTC_MaskInterrupt , lp 
00000f26 80ff0000*      3567 <EXPANSION END>
                        3568 --1006:     R_PWMD_DiagStop();
                        3569 --line1006
                        3570 ..lin.C.3A.5CUsers.5Cnikhil.2Epatil.5CDocuments.5Crenesas.5CRH850_F1L_sample.5Ctoolchain.5CGHS.5Coutput.5Cobj.5Cr_tasks.290::
                        3571 .LDWlin290:
                        3572 	jarl	_R_PWMD_DiagStop,lp
                        3572 <EXPANSION BEGIN>
                        3572 jarl22 _R_PWMD_DiagStop , lp 
00000f2a 80ff0000*      3572 <EXPANSION END>
                        3573 --1007:     
                        3574 --1008:     /* Turn all LEDs off */
                        3575 --1009:     R_LED_SetPwmDuty(LED1, 0);
                        3576 --line1009
                        3577 ..lin.C.3A.5CUsers.5Cnikhil.2Epatil.5CDocuments.5Crenesas.5CRH850_F1L_sample.5Ctoolchain.5CGHS.5Coutput.5Cobj.5Cr_tasks.291::
                        3578 .LDWlin291:
00000f2e 0332           3579 	mov	3,r6
00000f30 003a           3580 	mov	0,r7
                        3581 	jarl	_R_LED_SetPwmDuty,lp
                        3581 <EXPANSION BEGIN>
                        3581 jarl22 _R_LED_SetPwmDuty , lp 
00000f32 80ff0000*      3581 <EXPANSION END>
                        3582 --1010:     R_LED_SetPwmDuty(LED2, 0);
                        3583 --line1010

                                                                      Page 70
                                                              C:\Users\NIKHIL~1.PAT\AppData\Local\Temp\gh_000aeoo1.s
                        3584 ..lin.C.3A.5CUsers.5Cnikhil.2Epatil.5CDocuments.5Crenesas.5CRH850_F1L_sample.5Ctoolchain.5CGHS.5Coutput.5Cobj.5Cr_tasks.292::
                        3585 .LDWlin292:
00000f36 0432           3586 	mov	4,r6
00000f38 003a           3587 	mov	0,r7
                        3588 	jarl	_R_LED_SetPwmDuty,lp
                        3588 <EXPANSION BEGIN>
                        3588 jarl22 _R_LED_SetPwmDuty , lp 
00000f3a 80ff0000*      3588 <EXPANSION END>
                        3589 --1011:     R_LED_SetPwmDuty(LEDR, 0);
                        3590 --line1011
                        3591 ..lin.C.3A.5CUsers.5Cnikhil.2Epatil.5CDocuments.5Crenesas.5CRH850_F1L_sample.5Ctoolchain.5CGHS.5Coutput.5Cobj.5Cr_tasks.293::
                        3592 .LDWlin293:
00000f3e 0032           3593 	mov	0,r6
00000f40 003a           3594 	mov	0,r7
                        3595 	jarl	_R_LED_SetPwmDuty,lp
                        3595 <EXPANSION BEGIN>
                        3595 jarl22 _R_LED_SetPwmDuty , lp 
00000f42 80ff0000*      3595 <EXPANSION END>
                        3596 --1012:     R_LED_SetPwmDuty(LEDG, 0);
                        3597 --line1012
                        3598 ..lin.C.3A.5CUsers.5Cnikhil.2Epatil.5CDocuments.5Crenesas.5CRH850_F1L_sample.5Ctoolchain.5CGHS.5Coutput.5Cobj.5Cr_tasks.294::
                        3599 .LDWlin294:
00000f46 0132           3600 	mov	1,r6
00000f48 003a           3601 	mov	0,r7
                        3602 	jarl	_R_LED_SetPwmDuty,lp
                        3602 <EXPANSION BEGIN>
                        3602 jarl22 _R_LED_SetPwmDuty , lp 
00000f4a 80ff0000*      3602 <EXPANSION END>
                        3603 --1013:     R_LED_SetPwmDuty(LEDB, 0);
                        3604 --line1013
                        3605 ..lin.C.3A.5CUsers.5Cnikhil.2Epatil.5CDocuments.5Crenesas.5CRH850_F1L_sample.5Ctoolchain.5CGHS.5Coutput.5Cobj.5Cr_tasks.295::
                        3606 .LDWlin295:
00000f4e 0232           3607 	mov	2,r6
00000f50 003a           3608 	mov	0,r7
                        3609 	jarl	_R_LED_SetPwmDuty,lp
                        3609 <EXPANSION BEGIN>
                        3609 jarl22 _R_LED_SetPwmDuty , lp 
00000f52 80ff0000*      3609 <EXPANSION END>
                        3610 --1014:     R_LED_PwmStop(LED1);
                        3611 --line1014
                        3612 ..lin.C.3A.5CUsers.5Cnikhil.2Epatil.5CDocuments.5Crenesas.5CRH850_F1L_sample.5Ctoolchain.5CGHS.5Coutput.5Cobj.5Cr_tasks.296::
                        3613 .LDWlin296:
00000f56 0332           3614 	mov	3,r6
                        3615 	jarl	_R_LED_PwmStop,lp
                        3615 <EXPANSION BEGIN>
                        3615 jarl22 _R_LED_PwmStop , lp 
00000f58 80ff0000*      3615 <EXPANSION END>
                        3616 --1015:     R_LED_PwmStop(LED2);
                        3617 --line1015
                        3618 ..lin.C.3A.5CUsers.5Cnikhil.2Epatil.5CDocuments.5Crenesas.5CRH850_F1L_sample.5Ctoolchain.5CGHS.5Coutput.5Cobj.5Cr_tasks.297::
                        3619 .LDWlin297:
00000f5c 0432           3620 	mov	4,r6
                        3621 	jarl	_R_LED_PwmStop,lp
                        3621 <EXPANSION BEGIN>
                        3621 jarl22 _R_LED_PwmStop , lp 
00000f5e 80ff0000*      3621 <EXPANSION END>
                        3622 --1016:     R_LED_PwmStop(LEDR);
                        3623 --line1016
                        3624 ..lin.C.3A.5CUsers.5Cnikhil.2Epatil.5CDocuments.5Crenesas.5CRH850_F1L_sample.5Ctoolchain.5CGHS.5Coutput.5Cobj.5Cr_tasks.298::
                        3625 .LDWlin298:
00000f62 0032           3626 	mov	0,r6

                                                                      Page 71
                                                              C:\Users\NIKHIL~1.PAT\AppData\Local\Temp\gh_000aeoo1.s
                        3627 	jarl	_R_LED_PwmStop,lp
                        3627 <EXPANSION BEGIN>
                        3627 jarl22 _R_LED_PwmStop , lp 
00000f64 80ff0000*      3627 <EXPANSION END>
                        3628 --1017:     R_LED_PwmStop(LEDG);
                        3629 --line1017
                        3630 ..lin.C.3A.5CUsers.5Cnikhil.2Epatil.5CDocuments.5Crenesas.5CRH850_F1L_sample.5Ctoolchain.5CGHS.5Coutput.5Cobj.5Cr_tasks.299::
                        3631 .LDWlin299:
00000f68 0132           3632 	mov	1,r6
                        3633 	jarl	_R_LED_PwmStop,lp
                        3633 <EXPANSION BEGIN>
                        3633 jarl22 _R_LED_PwmStop , lp 
00000f6a 80ff0000*      3633 <EXPANSION END>
                        3634 --1018:     R_LED_PwmStop(LEDB);
                        3635 --line1018
                        3636 ..lin.C.3A.5CUsers.5Cnikhil.2Epatil.5CDocuments.5Crenesas.5CRH850_F1L_sample.5Ctoolchain.5CGHS.5Coutput.5Cobj.5Cr_tasks.300::
                        3637 .LDWlin300:
00000f6e 0232           3638 	mov	2,r6
                        3639 	jarl	_R_LED_PwmStop,lp
                        3639 <EXPANSION BEGIN>
                        3639 jarl22 _R_LED_PwmStop , lp 
00000f70 80ff0000*      3639 <EXPANSION END>
                        3640 --1019:     R_LED_RingUpdate(0);
                        3641 --line1019
                        3642 ..lin.C.3A.5CUsers.5Cnikhil.2Epatil.5CDocuments.5Crenesas.5CRH850_F1L_sample.5Ctoolchain.5CGHS.5Coutput.5Cobj.5Cr_tasks.301::
                        3643 .LDWlin301:
00000f74 0032           3644 	mov	0,r6
                        3645 	jarl	_R_LED_RingUpdate,lp
                        3645 <EXPANSION BEGIN>
                        3645 jarl22 _R_LED_RingUpdate , lp 
00000f76 80ff0000*      3645 <EXPANSION END>
                        3646 --1020:     
                        3647 --1021:     
                        3648 --1022:     for(i=0; i<200; i++)
                        3649 --line1022
                        3650 ..lin.C.3A.5CUsers.5Cnikhil.2Epatil.5CDocuments.5Crenesas.5CRH850_F1L_sample.5Ctoolchain.5CGHS.5Coutput.5Cobj.5Cr_tasks.302::
                        3651 .LDWlin302:
00000f7a 00ea           3652 	mov	0,r29
00000f7c 0000           3653 	nop
                        3654 .L2474:
                        3655 --1023:     {
                        3656 --1024:         R_SYSTEM_TimerTick();
                        3657 	jarl	_R_SYSTEM_TimerTick,lp
                        3657 <EXPANSION BEGIN>
                        3657 jarl22 _R_SYSTEM_TimerTick , lp 
00000f7e 80ff0000*      3657 <EXPANSION END>
                        3658 --line1022
                        3659 ..lin.C.3A.5CUsers.5Cnikhil.2Epatil.5CDocuments.5Crenesas.5CRH850_F1L_sample.5Ctoolchain.5CGHS.5Coutput.5Cobj.5Cr_tasks.303::
                        3660 .LDWlin303:
00000f82 41ea           3661 	add	1,r29
00000f84 1d0638ff       3662 	addi	-200,r29,zero
00000f88 b9fd*          3663 	bnl	.L2474
                        3664 --1025:     }
                        3665 --1026: }
                        3666 --	    .ef
                        3667 .LDW13:
                        3668 --line1026
                        3669 ..lin.C.3A.5CUsers.5Cnikhil.2Epatil.5CDocuments.5Crenesas.5CRH850_F1L_sample.5Ctoolchain.5CGHS.5Coutput.5Cobj.5Cr_tasks.304::
                        3670 .LDWlin304:
00000f8a 23ff1500       3671 	ld.w	20[sp],lp
00000f8e 23ef0500       3672 	ld.w	4[sp],r29

                                                                      Page 72
                                                              C:\Users\NIKHIL~1.PAT\AppData\Local\Temp\gh_000aeoo1.s
00000f92 23e70900       3673 	ld.w	8[sp],r28
00000f96 23df0d00       3674 	ld.w	12[sp],r27
00000f9a 23d71100       3675 	ld.w	16[sp],r26
00000f9e 031e1800       3676 	addi	24,sp,sp
00000fa2 7f00           3677 	jmp	[lp]
                        3678 	.global	___ghs_eofn_BoardCheck
                        3679 ___ghs_eofn_BoardCheck:
                        3680 	.type	_BoardCheck,@function
                        3681 	.size	_BoardCheck,.-_BoardCheck
                        3682 	.align	2
                        3683 --_i	r29	local
                        3684 --_j	r28	local
                        3685 --.L3147	.L3509	static
                        3686 --.L3148	.L3500	static
                        3687 --.L3149	.L3501	static
                        3688 --.L3150	.L3502	static
                        3689 --.L3151	.L3503	static
                        3690 --.L3152	.L3506	static
                        3691 --.L3153	.L3513	static
                        3692 --.L3154	.L3507	static
                        3693 --.L3155	.L3514	static
                        3694 --.L3156	.L3499	static
                        3695 --.L3157	rosdaoff23(.L3498)	static
                        3696 --.L3158	.L3510	static
                        3697 --.L3159	.L3508	static
                        3698 --.L3160	.L3504	static
                        3699 --.L3161	.L3511	static
                        3700 --.L3162	.L3505	static
                        3701 --.L3163	.L3512	static
                        3702 
                        3703 	.section ".bss","awb"
                        3704 .L3146:
                        3705 	.type	.L3146,@object
                        3706 	.size	.L3146,0
                        3707 	.section ".rosdata","a"
                        3708 .L3498:--	"Okay\n\r"
00000000 4f6b6179       3709 	.byte	79,107,97,121
00000004 0a0d           3710 	.byte	10,13
00000006 00             3711 	.byte	0
                        3712 	.type	.L3498,@object
                        3713 	.size	.L3498,7
                        3714 	.section ".rodata","a"
                        3715 .L3499:--	"RGB LED test..."
0000019b 52474220       3716 	.byte	82,71,66,32
0000019f 4c454420       3717 	.byte	76,69,68,32
000001a3 74657374       3718 	.byte	116,101,115,116
000001a7 2e2e2e00       3719 	.byte	46,46,46,0
                        3720 	.type	.L3499,@object
                        3721 	.size	.L3499,16
                        3722 .L3500:--	"*                RENESAS                *\n\r"
000001ab 2a202020       3723 	.byte	42,32,32,32
000001af 20202020       3724 	.byte	32,32,32,32
000001b3 20202020       3725 	.byte	32,32,32,32
000001b7 20202020       3726 	.byte	32,32,32,32
000001bb 2052454e       3727 	.byte	32,82,69,78
000001bf 45534153       3728 	.byte	69,83,65,83
000001c3 20202020       3729 	.byte	32,32,32,32
000001c7 20202020       3730 	.byte	32,32,32,32
000001cb 20202020       3731 	.byte	32,32,32,32
000001cf 20202020       3732 	.byte	32,32,32,32
000001d3 2a0a0d00       3733 	.byte	42,10,13,0

                                                                      Page 73
                                                              C:\Users\NIKHIL~1.PAT\AppData\Local\Temp\gh_000aeoo1.s
                        3734 	.type	.L3500,@object
                        3735 	.size	.L3500,44
                        3736 .L3501:--	"*      RH850/F1x Starter Kit Demo!      *\n\r"
000001d7 2a202020       3737 	.byte	42,32,32,32
000001db 20202052       3738 	.byte	32,32,32,82
000001df 48383530       3739 	.byte	72,56,53,48
000001e3 2f463178       3740 	.byte	47,70,49,120
000001e7 20537461       3741 	.byte	32,83,116,97
000001eb 72746572       3742 	.byte	114,116,101,114
000001ef 204b6974       3743 	.byte	32,75,105,116
000001f3 2044656d       3744 	.byte	32,68,101,109
000001f7 6f212020       3745 	.byte	111,33,32,32
000001fb 20202020       3746 	.byte	32,32,32,32
000001ff 2a0a0d00       3747 	.byte	42,10,13,0
                        3748 	.type	.L3501,@object
                        3749 	.size	.L3501,44
                        3750 .L3502:--	"*****************************************\n\r"
00000203 2a2a2a2a       3751 	.byte	42,42,42,42
00000207 2a2a2a2a       3752 	.byte	42,42,42,42
0000020b 2a2a2a2a       3753 	.byte	42,42,42,42
0000020f 2a2a2a2a       3754 	.byte	42,42,42,42
00000213 2a2a2a2a       3755 	.byte	42,42,42,42
00000217 2a2a2a2a       3756 	.byte	42,42,42,42
0000021b 2a2a2a2a       3757 	.byte	42,42,42,42
0000021f 2a2a2a2a       3758 	.byte	42,42,42,42
00000223 2a2a2a2a       3759 	.byte	42,42,42,42
00000227 2a2a2a2a       3760 	.byte	42,42,42,42
0000022b 2a0a0d00       3761 	.byte	42,10,13,0
                        3762 	.type	.L3502,@object
                        3763 	.size	.L3502,44
                        3764 .L3503:--	"\n\rBegin with self test...\n\r"
0000022f 0a0d4265       3765 	.byte	10,13,66,101
00000233 67696e20       3766 	.byte	103,105,110,32
00000237 77697468       3767 	.byte	119,105,116,104
0000023b 2073656c       3768 	.byte	32,115,101,108
0000023f 66207465       3769 	.byte	102,32,116,101
00000243 73742e2e       3770 	.byte	115,116,46,46
00000247 2e0a0d00       3771 	.byte	46,10,13,0
                        3772 	.type	.L3503,@object
                        3773 	.size	.L3503,28
                        3774 .L3504:--	"Green LED error detected.\n\r"
0000024b 47726565       3775 	.byte	71,114,101,101
0000024f 6e204c45       3776 	.byte	110,32,76,69
00000253 44206572       3777 	.byte	68,32,101,114
00000257 726f7220       3778 	.byte	114,111,114,32
0000025b 64657465       3779 	.byte	100,101,116,101
0000025f 63746564       3780 	.byte	99,116,101,100
00000263 2e0a0d00       3781 	.byte	46,10,13,0
                        3782 	.type	.L3504,@object
                        3783 	.size	.L3504,28
                        3784 .L3505:--	"Display detected.\n\r"
00000267 44697370       3785 	.byte	68,105,115,112
0000026b 6c617920       3786 	.byte	108,97,121,32
0000026f 64657465       3787 	.byte	100,101,116,101
00000273 63746564       3788 	.byte	99,116,101,100
00000277 2e0a0d00       3789 	.byte	46,10,13,0
                        3790 	.type	.L3505,@object
                        3791 	.size	.L3505,20
                        3792 .L3506:--	"CAN test...Okay\n\r"
0000027b 43414e20       3793 	.byte	67,65,78,32
0000027f 74657374       3794 	.byte	116,101,115,116

                                                                      Page 74
                                                              C:\Users\NIKHIL~1.PAT\AppData\Local\Temp\gh_000aeoo1.s
00000283 2e2e2e4f       3795 	.byte	46,46,46,79
00000287 6b61790a       3796 	.byte	107,97,121,10
0000028b 0d00           3797 	.byte	13,0
                        3798 	.type	.L3506,@object
                        3799 	.size	.L3506,18
                        3800 .L3507:--	"LIN test...Okay\n\r"
0000028d 4c494e20       3801 	.byte	76,73,78,32
00000291 74657374       3802 	.byte	116,101,115,116
00000295 2e2e2e4f       3803 	.byte	46,46,46,79
00000299 6b61790a       3804 	.byte	107,97,121,10
0000029d 0d00           3805 	.byte	13,0
                        3806 	.type	.L3507,@object
                        3807 	.size	.L3507,18
                        3808 .L3508:--	"Red LED error detected.\n\r"
0000029f 52656420       3809 	.byte	82,101,100,32
000002a3 4c454420       3810 	.byte	76,69,68,32
000002a7 6572726f       3811 	.byte	101,114,114,111
000002ab 72206465       3812 	.byte	114,32,100,101
000002af 74656374       3813 	.byte	116,101,99,116
000002b3 65642e0a       3814 	.byte	101,100,46,10
000002b7 0d00           3815 	.byte	13,0
                        3816 	.type	.L3508,@object
                        3817 	.size	.L3508,26
                        3818 .L3509:--	"\r*****************************************\n\r"
000002b9 0d2a2a2a       3819 	.byte	13,42,42,42
000002bd 2a2a2a2a       3820 	.byte	42,42,42,42
000002c1 2a2a2a2a       3821 	.byte	42,42,42,42
000002c5 2a2a2a2a       3822 	.byte	42,42,42,42
000002c9 2a2a2a2a       3823 	.byte	42,42,42,42
000002cd 2a2a2a2a       3824 	.byte	42,42,42,42
000002d1 2a2a2a2a       3825 	.byte	42,42,42,42
000002d5 2a2a2a2a       3826 	.byte	42,42,42,42
000002d9 2a2a2a2a       3827 	.byte	42,42,42,42
000002dd 2a2a2a2a       3828 	.byte	42,42,42,42
000002e1 2a2a0a0d       3829 	.byte	42,42,10,13
000002e5 00             3830 	.byte	0
                        3831 	.type	.L3509,@object
                        3832 	.size	.L3509,45
                        3833 .L3510:--	"failed\n\r"
000002e6 6661696c       3834 	.byte	102,97,105,108
000002ea 65640a0d       3835 	.byte	101,100,10,13
000002ee 00             3836 	.byte	0
                        3837 	.type	.L3510,@object
                        3838 	.size	.L3510,9
                        3839 .L3511:--	"Blue LED error detected.\n\r"
000002ef 426c7565       3840 	.byte	66,108,117,101
000002f3 204c4544       3841 	.byte	32,76,69,68
000002f7 20657272       3842 	.byte	32,101,114,114
000002fb 6f722064       3843 	.byte	111,114,32,100
000002ff 65746563       3844 	.byte	101,116,101,99
00000303 7465642e       3845 	.byte	116,101,100,46
00000307 0a0d           3846 	.byte	10,13
00000309 00             3847 	.byte	0
                        3848 	.type	.L3511,@object
                        3849 	.size	.L3511,27
                        3850 .L3512:--	"No display detected.\n\r"
0000030a 4e6f2064       3851 	.byte	78,111,32,100
0000030e 6973706c       3852 	.byte	105,115,112,108
00000312 61792064       3853 	.byte	97,121,32,100
00000316 65746563       3854 	.byte	101,116,101,99
0000031a 7465642e       3855 	.byte	116,101,100,46

                                                                      Page 75
                                                              C:\Users\NIKHIL~1.PAT\AppData\Local\Temp\gh_000aeoo1.s
0000031e 0a0d           3856 	.byte	10,13
00000320 00             3857 	.byte	0
                        3858 	.type	.L3512,@object
                        3859 	.size	.L3512,23
                        3860 .L3513:--	"\n\rCAN-Error!\n\rPlease check if all jumpers of\n\rJ7 are closed and all s..."
00000321 0a0d4341       3861 	.byte	10,13,67,65
00000325 4e2d4572       3862 	.byte	78,45,69,114
00000329 726f7221       3863 	.byte	114,111,114,33
0000032d 0a0d506c       3864 	.byte	10,13,80,108
00000331 65617365       3865 	.byte	101,97,115,101
00000335 20636865       3866 	.byte	32,99,104,101
00000339 636b2069       3867 	.byte	99,107,32,105
0000033d 6620616c       3868 	.byte	102,32,97,108
00000341 6c206a75       3869 	.byte	108,32,106,117
00000345 6d706572       3870 	.byte	109,112,101,114
00000349 73206f66       3871 	.byte	115,32,111,102
0000034d 0a0d4a37       3872 	.byte	10,13,74,55
00000351 20617265       3873 	.byte	32,97,114,101
00000355 20636c6f       3874 	.byte	32,99,108,111
00000359 73656420       3875 	.byte	115,101,100,32
0000035d 616e6420       3876 	.byte	97,110,100,32
00000361 616c6c20       3877 	.byte	97,108,108,32
00000365 73776974       3878 	.byte	115,119,105,116
00000369 63686573       3879 	.byte	99,104,101,115
0000036d 206f6620       3880 	.byte	32,111,102,32
00000371 53342061       3881 	.byte	83,52,32,97
00000375 7265206f       3882 	.byte	114,101,32,111
00000379 6e2e0a0a       3883 	.byte	110,46,10,10
0000037d 0d00           3884 	.byte	13,0
                        3885 	.type	.L3513,@object
                        3886 	.size	.L3513,94
                        3887 .L3514:--	"LIN-Error!\n\rPlease check if all jumpers of\n\rJ17 are closed and switch..."
0000037f 4c494e2d       3888 	.byte	76,73,78,45
00000383 4572726f       3889 	.byte	69,114,114,111
00000387 72210a0d       3890 	.byte	114,33,10,13
0000038b 506c6561       3891 	.byte	80,108,101,97
0000038f 73652063       3892 	.byte	115,101,32,99
00000393 6865636b       3893 	.byte	104,101,99,107
00000397 20696620       3894 	.byte	32,105,102,32
0000039b 616c6c20       3895 	.byte	97,108,108,32
0000039f 6a756d70       3896 	.byte	106,117,109,112
000003a3 65727320       3897 	.byte	101,114,115,32
000003a7 6f660a0d       3898 	.byte	111,102,10,13
000003ab 4a313720       3899 	.byte	74,49,55,32
000003af 61726520       3900 	.byte	97,114,101,32
000003b3 636c6f73       3901 	.byte	99,108,111,115
000003b7 65642061       3902 	.byte	101,100,32,97
000003bb 6e642073       3903 	.byte	110,100,32,115
000003bf 77697463       3904 	.byte	119,105,116,99
000003c3 68657320       3905 	.byte	104,101,115,32
000003c7 332d3620       3906 	.byte	51,45,54,32
000003cb 6f662053       3907 	.byte	111,102,32,83
000003cf 31302061       3908 	.byte	49,48,32,97
000003d3 7265206f       3909 	.byte	114,101,32,111
000003d7 66662e0a       3910 	.byte	102,102,46,10
000003db 0a0d           3911 	.byte	10,13
000003dd 00             3912 	.byte	0
                        3913 	.type	.L3514,@object
                        3914 	.size	.L3514,95
                        3915 	.data
                        3916 	.text

                                                                      Page 76
                                                              C:\Users\NIKHIL~1.PAT\AppData\Local\Temp\gh_000aeoo1.s
                        3917 
                        3918 
                        3919 --1028: /*****************************************************************************
                        3920 --1029: ** Function:    R_TASKS_Start
                        3921 --1030: ** Description: Call peripheral initialization functions and handle executed 
                        3922 --1031: **              modes.
                        3923 --1032: ** Parameter:   None
                        3924 --1033: ** Return:      None
                        3925 --1034: ******************************************************************************/
                        3926 --1035: void R_TASKS_Start(void)
                        3927 	.align	2
                        3928 	.align	2
                        3929 	.global	_R_TASKS_Start
                        3930 _R_TASKS_Start:
00000fa4 541a           3931 	add	-12,sp
00000fa6 63ff0900       3932 	st.w	lp,8[sp]
00000faa 63ef0100       3933 	st.w	r29,0[sp]
00000fae 63e70500       3934 	st.w	r28,4[sp]
00000fb2 3d0600000000*  3935 	mov	_g_SystemStatus,r29
                        3936 --	    .bf
                        3937 .LDW23:
                        3938 --1036: { 
                        3939 --1037:     uint32_t loc_WakeUpFactor;
                        3940 --1038:     
                        3941 --1039:     R_SYSTEM_TimerInit();
                        3942 	jarl	_R_SYSTEM_TimerInit,lp
                        3942 <EXPANSION BEGIN>
                        3942 jarl22 _R_SYSTEM_TimerInit , lp 
00000fb8 80ff0000*      3942 <EXPANSION END>
                        3943 --1040:     R_UART_Init();
                        3944 --line1040
                        3945 ..lin.C.3A.5CUsers.5Cnikhil.2Epatil.5CDocuments.5Crenesas.5CRH850_F1L_sample.5Ctoolchain.5CGHS.5Coutput.5Cobj.5Cr_tasks.305::
                        3946 .LDWlin305:
                        3947 	jarl	_R_UART_Init,lp
                        3947 <EXPANSION BEGIN>
                        3947 jarl22 _R_UART_Init , lp 
00000fbc 80ff0000*      3947 <EXPANSION END>
                        3948 --1041:     R_ADCA0_Init();
                        3949 --line1041
                        3950 ..lin.C.3A.5CUsers.5Cnikhil.2Epatil.5CDocuments.5Crenesas.5CRH850_F1L_sample.5Ctoolchain.5CGHS.5Coutput.5Cobj.5Cr_tasks.306::
                        3951 .LDWlin306:
                        3952 	jarl	_R_ADCA0_Init,lp
                        3952 <EXPANSION BEGIN>
                        3952 jarl22 _R_ADCA0_Init , lp 
00000fc0 80ff0000*      3952 <EXPANSION END>
                        3953 --1042:     R_PWMD_DiagInit();
                        3954 --line1042
                        3955 ..lin.C.3A.5CUsers.5Cnikhil.2Epatil.5CDocuments.5Crenesas.5CRH850_F1L_sample.5Ctoolchain.5CGHS.5Coutput.5Cobj.5Cr_tasks.307::
                        3956 .LDWlin307:
                        3957 	jarl	_R_PWMD_DiagInit,lp
                        3957 <EXPANSION BEGIN>
                        3957 jarl22 _R_PWMD_DiagInit , lp 
00000fc4 80ff0000*      3957 <EXPANSION END>
                        3958 --1043:     
                        3959 --1044:     /* Set TAU prescalers to 2^4 = 16 */
                        3960 --1045:     R_TAUB0_CK0_Prescaler(4);
                        3961 --line1045
                        3962 ..lin.C.3A.5CUsers.5Cnikhil.2Epatil.5CDocuments.5Crenesas.5CRH850_F1L_sample.5Ctoolchain.5CGHS.5Coutput.5Cobj.5Cr_tasks.308::
                        3963 .LDWlin308:
00000fc8 0432           3964 	mov	4,r6
                        3965 	jarl	_R_TAUB0_CK0_Prescaler,lp

                                                                      Page 77
                                                              C:\Users\NIKHIL~1.PAT\AppData\Local\Temp\gh_000aeoo1.s
                        3965 <EXPANSION BEGIN>
                        3965 jarl22 _R_TAUB0_CK0_Prescaler , lp 
00000fca 80ff0000*      3965 <EXPANSION END>
                        3966 --1046:     R_TAUJ0_CK0_Prescaler(4);
                        3967 --line1046
                        3968 ..lin.C.3A.5CUsers.5Cnikhil.2Epatil.5CDocuments.5Crenesas.5CRH850_F1L_sample.5Ctoolchain.5CGHS.5Coutput.5Cobj.5Cr_tasks.309::
                        3969 .LDWlin309:
00000fce 0432           3970 	mov	4,r6
                        3971 	jarl	_R_TAUJ0_CK0_Prescaler,lp
                        3971 <EXPANSION BEGIN>
                        3971 jarl22 _R_TAUJ0_CK0_Prescaler , lp 
00000fd0 80ff0000*      3971 <EXPANSION END>
                        3972 --1047:     
                        3973 --1048:     R_TAUJ0_Channel1_Init();
                        3974 --line1048
                        3975 ..lin.C.3A.5CUsers.5Cnikhil.2Epatil.5CDocuments.5Crenesas.5CRH850_F1L_sample.5Ctoolchain.5CGHS.5Coutput.5Cobj.5Cr_tasks.310::
                        3976 .LDWlin310:
                        3977 	jarl	_R_TAUJ0_Channel1_Init,lp
                        3977 <EXPANSION BEGIN>
                        3977 jarl22 _R_TAUJ0_Channel1_Init , lp 
00000fd4 80ff0000*      3977 <EXPANSION END>
                        3978 --1049:     R_INTC_SetTableBit((uint16_t*)R_ICTAUJ0I1);
                        3979 --line1049
                        3980 ..lin.C.3A.5CUsers.5Cnikhil.2Epatil.5CDocuments.5Crenesas.5CRH850_F1L_sample.5Ctoolchain.5CGHS.5Coutput.5Cobj.5Cr_tasks.311::
                        3981 .LDWlin311:
00000fd8 203692a0       3982 	movea	-24430,zero,r6
                        3983 	jarl	_R_INTC_SetTableBit,lp
                        3983 <EXPANSION BEGIN>
                        3983 jarl22 _R_INTC_SetTableBit , lp 
00000fdc 80ff0000*      3983 <EXPANSION END>
                        3984 --1050:     
                        3985 --1051:     R_LED_PwmInit(LED1);
                        3986 --line1051
                        3987 ..lin.C.3A.5CUsers.5Cnikhil.2Epatil.5CDocuments.5Crenesas.5CRH850_F1L_sample.5Ctoolchain.5CGHS.5Coutput.5Cobj.5Cr_tasks.312::
                        3988 .LDWlin312:
00000fe0 0332           3989 	mov	3,r6
                        3990 	jarl	_R_LED_PwmInit,lp
                        3990 <EXPANSION BEGIN>
                        3990 jarl22 _R_LED_PwmInit , lp 
00000fe2 80ff0000*      3990 <EXPANSION END>
                        3991 --1052:     R_LED_PwmInit(LED2);
                        3992 --line1052
                        3993 ..lin.C.3A.5CUsers.5Cnikhil.2Epatil.5CDocuments.5Crenesas.5CRH850_F1L_sample.5Ctoolchain.5CGHS.5Coutput.5Cobj.5Cr_tasks.313::
                        3994 .LDWlin313:
00000fe6 0432           3995 	mov	4,r6
                        3996 	jarl	_R_LED_PwmInit,lp
                        3996 <EXPANSION BEGIN>
                        3996 jarl22 _R_LED_PwmInit , lp 
00000fe8 80ff0000*      3996 <EXPANSION END>
                        3997 --1053:     R_LED_PwmInit(LEDR);
                        3998 --line1053
                        3999 ..lin.C.3A.5CUsers.5Cnikhil.2Epatil.5CDocuments.5Crenesas.5CRH850_F1L_sample.5Ctoolchain.5CGHS.5Coutput.5Cobj.5Cr_tasks.314::
                        4000 .LDWlin314:
00000fec 0032           4001 	mov	0,r6
                        4002 	jarl	_R_LED_PwmInit,lp
                        4002 <EXPANSION BEGIN>
                        4002 jarl22 _R_LED_PwmInit , lp 
00000fee 80ff0000*      4002 <EXPANSION END>
                        4003 --1054:     R_LED_PwmInit(LEDG);
                        4004 --line1054
                        4005 ..lin.C.3A.5CUsers.5Cnikhil.2Epatil.5CDocuments.5Crenesas.5CRH850_F1L_sample.5Ctoolchain.5CGHS.5Coutput.5Cobj.5Cr_tasks.315::

                                                                      Page 78
                                                              C:\Users\NIKHIL~1.PAT\AppData\Local\Temp\gh_000aeoo1.s
                        4006 .LDWlin315:
00000ff2 0132           4007 	mov	1,r6
                        4008 	jarl	_R_LED_PwmInit,lp
                        4008 <EXPANSION BEGIN>
                        4008 jarl22 _R_LED_PwmInit , lp 
00000ff4 80ff0000*      4008 <EXPANSION END>
                        4009 --1055:     R_LED_PwmInit(LEDB);
                        4010 --line1055
                        4011 ..lin.C.3A.5CUsers.5Cnikhil.2Epatil.5CDocuments.5Crenesas.5CRH850_F1L_sample.5Ctoolchain.5CGHS.5Coutput.5Cobj.5Cr_tasks.316::
                        4012 .LDWlin316:
00000ff8 0232           4013 	mov	2,r6
                        4014 	jarl	_R_LED_PwmInit,lp
                        4014 <EXPANSION BEGIN>
                        4014 jarl22 _R_LED_PwmInit , lp 
00000ffa 80ff0000*      4014 <EXPANSION END>
                        4015 --1056:     R_LED_RingInit();  
                        4016 --line1056
                        4017 ..lin.C.3A.5CUsers.5Cnikhil.2Epatil.5CDocuments.5Crenesas.5CRH850_F1L_sample.5Ctoolchain.5CGHS.5Coutput.5Cobj.5Cr_tasks.317::
                        4018 .LDWlin317:
                        4019 	jarl	_R_LED_RingInit,lp
                        4019 <EXPANSION BEGIN>
                        4019 jarl22 _R_LED_RingInit , lp 
00000ffe 80ff0000*      4019 <EXPANSION END>
                        4020 --1057:     
                        4021 --1058:     R_UI_Enc1_Init();
                        4022 --line1058
                        4023 ..lin.C.3A.5CUsers.5Cnikhil.2Epatil.5CDocuments.5Crenesas.5CRH850_F1L_sample.5Ctoolchain.5CGHS.5Coutput.5Cobj.5Cr_tasks.318::
                        4024 .LDWlin318:
                        4025 	jarl	_R_UI_Enc1_Init,lp
                        4025 <EXPANSION BEGIN>
                        4025 jarl22 _R_UI_Enc1_Init , lp 
00001002 80ff0000*      4025 <EXPANSION END>
                        4026 --1059:     R_UI_Pot1_Init();
                        4027 --line1059
                        4028 ..lin.C.3A.5CUsers.5Cnikhil.2Epatil.5CDocuments.5Crenesas.5CRH850_F1L_sample.5Ctoolchain.5CGHS.5Coutput.5Cobj.5Cr_tasks.319::
                        4029 .LDWlin319:
                        4030 	jarl	_R_UI_Pot1_Init,lp
                        4030 <EXPANSION BEGIN>
                        4030 jarl22 _R_UI_Pot1_Init , lp 
00001006 80ff0000*      4030 <EXPANSION END>
                        4031 --1060:     
                        4032 --1061:     R_LED_RgbDiagInit();
                        4033 --line1061
                        4034 ..lin.C.3A.5CUsers.5Cnikhil.2Epatil.5CDocuments.5Crenesas.5CRH850_F1L_sample.5Ctoolchain.5CGHS.5Coutput.5Cobj.5Cr_tasks.320::
                        4035 .LDWlin320:
                        4036 	jarl	_R_LED_RgbDiagInit,lp
                        4036 <EXPANSION BEGIN>
                        4036 jarl22 _R_LED_RgbDiagInit , lp 
0000100a 80ff0000*      4036 <EXPANSION END>
                        4037 --1062:     
                        4038 --1063:     
                        4039 --1064:     loc_WakeUpFactor = R_STBC_GetWakeUpFactor();
                        4040 --line1064
                        4041 ..lin.C.3A.5CUsers.5Cnikhil.2Epatil.5CDocuments.5Crenesas.5CRH850_F1L_sample.5Ctoolchain.5CGHS.5Coutput.5Cobj.5Cr_tasks.321::
                        4042 .LDWlin321:
                        4043 	jarl	_R_STBC_GetWakeUpFactor,lp
                        4043 <EXPANSION BEGIN>
                        4043 jarl22 _R_STBC_GetWakeUpFactor , lp 
0000100e 80ff0000*      4043 <EXPANSION END>
00001012 0ae0           4044 	mov	r10,r28
                        4045 --1065:     /* No Wake-up -> Reset */

                                                                      Page 79
                                                              C:\Users\NIKHIL~1.PAT\AppData\Local\Temp\gh_000aeoo1.s
                        4046 --1066:     if(loc_WakeUpFactor == R_WUF_RESET)
                        4047 --line1066
                        4048 ..lin.C.3A.5CUsers.5Cnikhil.2Epatil.5CDocuments.5Crenesas.5CRH850_F1L_sample.5Ctoolchain.5CGHS.5Coutput.5Cobj.5Cr_tasks.322::
                        4049 .LDWlin322:
00001014 e0e1           4050 	cmp	zero,r28
00001016 9a15*          4051 	bne	.L3683
                        4052 --1067:     {
                        4053 --1068:         /* Test StarterKit Board functionalities */
                        4054 --1069:         BoardCheck(); 
                        4055 --line1069
                        4056 ..lin.C.3A.5CUsers.5Cnikhil.2Epatil.5CDocuments.5Crenesas.5CRH850_F1L_sample.5Ctoolchain.5CGHS.5Coutput.5Cobj.5Cr_tasks.323::
                        4057 .LDWlin323:
                        4058 	jarl	_BoardCheck,lp
                        4058 <EXPANSION BEGIN>
                        4058 jarl22 _BoardCheck , lp 
00001018 bfff98fa*      4058 <EXPANSION END>
                        4059 --1070:         
                        4060 --1071:         /* Set initial values for System Status */
                        4061 --1072:         g_SystemStatus.CurrentMode = R_MODE1;
                        4062 --line1072
                        4063 ..lin.C.3A.5CUsers.5Cnikhil.2Epatil.5CDocuments.5Crenesas.5CRH850_F1L_sample.5Ctoolchain.5CGHS.5Coutput.5Cobj.5Cr_tasks.324::
                        4064 .LDWlin324:
0000101c 010a           4065 	mov	1,r1
0000101e 7d0f0100       4066 	st.w	r1,0[r29]
                        4067 --1073:         g_SystemStatus.PreviousMode = R_RESET;
00001022 7d070500       4068 	st.w	zero,4[r29]
                        4069 --1074:         g_SystemStatus.CurrentRGB = WHITE;
00001026 060a           4070 	mov	6,r1
00001028 7d0f1100       4071 	st.w	r1,16[r29]
                        4072 --1075:         
                        4073 --1076:         PrintText("\n\r>>Enter Mode 1\n\r");
0000102c 260600000000*  4074 	mov	.L4077,r6
                        4075 	jarl	_PrintText,lp
                        4075 <EXPANSION BEGIN>
                        4075 jarl22 _PrintText , lp 
00001032 bfffceef*      4075 <EXPANSION END>
00001036 d54d*          4076 	br	.L3685
                        4077 .L3683:
                        4078 --1077:     }
                        4079 --1078:     /* Wake-up from DeepSTOP */
                        4080 --1079:     else
                        4081 --1080:     {
                        4082 --1081:       if (R_WUF_INTP12&loc_WakeUpFactor)
                        4083 --line1081
                        4084 ..lin.C.3A.5CUsers.5Cnikhil.2Epatil.5CDocuments.5Crenesas.5CRH850_F1L_sample.5Ctoolchain.5CGHS.5Coutput.5Cobj.5Cr_tasks.325::
                        4085 .LDWlin325:
00001038 1c08           4086 	mov	r28,r1
0000103a 980a           4087 	shr	24,r1
0000103c e905*          4088 	bnl	.L3686
                        4089 --1082:       {
                        4090 --1083:           PrintText("\n\r>>Wake-up from DeepSTOP by INTP Button!\n\r");
                        4091 --line1083
                        4092 ..lin.C.3A.5CUsers.5Cnikhil.2Epatil.5CDocuments.5Crenesas.5CRH850_F1L_sample.5Ctoolchain.5CGHS.5Coutput.5Cobj.5Cr_tasks.326::
                        4093 .LDWlin326:
0000103e 260600000000*  4094 	mov	.L4073,r6
                        4095 	jarl	_PrintText,lp
                        4095 <EXPANSION BEGIN>
                        4095 jarl22 _PrintText , lp 
00001044 bfffbcef*      4095 <EXPANSION END>
                        4096 .L3686:
                        4097 --1084:       }

                                                                      Page 80
                                                              C:\Users\NIKHIL~1.PAT\AppData\Local\Temp\gh_000aeoo1.s
                        4098 --1085:       
                        4099 --1086:       if (R_WUF_INTP15&loc_WakeUpFactor)
                        4100 --line1086
                        4101 ..lin.C.3A.5CUsers.5Cnikhil.2Epatil.5CDocuments.5Crenesas.5CRH850_F1L_sample.5Ctoolchain.5CGHS.5Coutput.5Cobj.5Cr_tasks.327::
                        4102 .LDWlin327:
00001048 1c08           4103 	mov	r28,r1
0000104a 9c0a           4104 	shr	28,r1
0000104c e905*          4105 	bnl	.L3688
                        4106 --1087:       {
                        4107 --1088:           PrintText("\n\r>>Wake-up from DeepSTOP by Encoder Button!\n\r");
                        4108 --line1088
                        4109 ..lin.C.3A.5CUsers.5Cnikhil.2Epatil.5CDocuments.5Crenesas.5CRH850_F1L_sample.5Ctoolchain.5CGHS.5Coutput.5Cobj.5Cr_tasks.328::
                        4110 .LDWlin328:
0000104e 260600000000*  4111 	mov	.L4078,r6
                        4112 	jarl	_PrintText,lp
                        4112 <EXPANSION BEGIN>
                        4112 jarl22 _PrintText , lp 
00001054 bfffacef*      4112 <EXPANSION END>
                        4113 .L3688:
                        4114 --1089:       }
                        4115 --1090:       
                        4116 --1091:       if (R_WUF_LPS_AI&loc_WakeUpFactor)
                        4117 --line1091
                        4118 ..lin.C.3A.5CUsers.5Cnikhil.2Epatil.5CDocuments.5Crenesas.5CRH850_F1L_sample.5Ctoolchain.5CGHS.5Coutput.5Cobj.5Cr_tasks.329::
                        4119 .LDWlin329:
00001058 dc060040       4120 	andi	16384,r28,zero
0000105c e205*          4121 	be	.L3690
                        4122 --1092:       {
                        4123 --1093:           PrintText("\n\r>>Wake-up from DeepSTOP by LPS (analog input)!\n\r");
                        4124 --line1093
                        4125 ..lin.C.3A.5CUsers.5Cnikhil.2Epatil.5CDocuments.5Crenesas.5CRH850_F1L_sample.5Ctoolchain.5CGHS.5Coutput.5Cobj.5Cr_tasks.330::
                        4126 .LDWlin330:
0000105e 260600000000*  4127 	mov	.L4079,r6
                        4128 	jarl	_PrintText,lp
                        4128 <EXPANSION BEGIN>
                        4128 jarl22 _PrintText , lp 
00001064 bfff9cef*      4128 <EXPANSION END>
                        4129 .L3690:
                        4130 --1094:       }
                        4131 --1095:       
                        4132 --1096:       if (R_WUF_LPS_DI&loc_WakeUpFactor)
                        4133 --line1096
                        4134 ..lin.C.3A.5CUsers.5Cnikhil.2Epatil.5CDocuments.5Crenesas.5CRH850_F1L_sample.5Ctoolchain.5CGHS.5Coutput.5Cobj.5Cr_tasks.331::
                        4135 .LDWlin331:
00001068 1c08           4136 	mov	r28,r1
0000106a 940a           4137 	shr	20,r1
0000106c e905*          4138 	bnl	.L3692
                        4139 --1097:       {
                        4140 --1098:           PrintText("\n\r>>Wake-up from DeepSTOP by LPS (digital input)!\n\r");
                        4141 --line1098
                        4142 ..lin.C.3A.5CUsers.5Cnikhil.2Epatil.5CDocuments.5Crenesas.5CRH850_F1L_sample.5Ctoolchain.5CGHS.5Coutput.5Cobj.5Cr_tasks.332::
                        4143 .LDWlin332:
0000106e 260600000000*  4144 	mov	.L4074,r6
                        4145 	jarl	_PrintText,lp
                        4145 <EXPANSION BEGIN>
                        4145 jarl22 _PrintText , lp 
00001074 bfff8cef*      4145 <EXPANSION END>
                        4146 .L3692:
                        4147 --1099:       }
                        4148 --1100:       
                        4149 --1101:       if (R_WUF_DCUTDI == loc_WakeUpFactor)

                                                                      Page 81
                                                              C:\Users\NIKHIL~1.PAT\AppData\Local\Temp\gh_000aeoo1.s
                        4150 --line1101
                        4151 ..lin.C.3A.5CUsers.5Cnikhil.2Epatil.5CDocuments.5Crenesas.5CRH850_F1L_sample.5Ctoolchain.5CGHS.5Coutput.5Cobj.5Cr_tasks.333::
                        4152 .LDWlin333:
00001078 400e0080       4153 	movhi	hi(-2147483648),zero,r1
0000107c e1e1           4154 	cmp	r1,r28
0000107e ea05*          4155 	bne	.L3694
                        4156 --1102:       {
                        4157 --1103:           PrintText("\n\r>>Wake-up from DeepSTOP by debugger!\n\r");
                        4158 --line1103
                        4159 ..lin.C.3A.5CUsers.5Cnikhil.2Epatil.5CDocuments.5Crenesas.5CRH850_F1L_sample.5Ctoolchain.5CGHS.5Coutput.5Cobj.5Cr_tasks.334::
                        4160 .LDWlin334:
00001080 260600000000*  4161 	mov	.L4080,r6
                        4162 	jarl	_PrintText,lp
                        4162 <EXPANSION BEGIN>
                        4162 jarl22 _PrintText , lp 
00001086 bfff7aef*      4162 <EXPANSION END>
                        4163 .L3694:
                        4164 --1104:       }
                        4165 --1105:       
                        4166 --1107:     
                        4167 --1108:         
                        4168 --1109:         
                        4169 --1110:         switch(g_SystemStatus.PreviousMode)
                        4170 --line1110
                        4171 ..lin.C.3A.5CUsers.5Cnikhil.2Epatil.5CDocuments.5Crenesas.5CRH850_F1L_sample.5Ctoolchain.5CGHS.5Coutput.5Cobj.5Cr_tasks.335::
                        4172 .LDWlin335:
0000108a 3d0f0500       4173 	ld.w	4[r29],r1
0000108e 610a           4174 	cmp	1,r1
00001090 c205*          4175 	be	.L3698
00001092 620a           4176 	cmp	2,r1
00001094 820d*          4177 	be	.L3699
00001096 d50d*          4178 	br	.L3700
                        4179 .L3698:
                        4180 --1111:         {
                        4181 --1112:             case R_MODE1:
                        4182 --1113:                 PrintText("\n\r>>Enter previous mode 1\n\r");
                        4183 --line1113
                        4184 ..lin.C.3A.5CUsers.5Cnikhil.2Epatil.5CDocuments.5Crenesas.5CRH850_F1L_sample.5Ctoolchain.5CGHS.5Coutput.5Cobj.5Cr_tasks.336::
                        4185 .LDWlin336:
00001098 260600000000*  4186 	mov	.L4075,r6
                        4187 	jarl	_PrintText,lp
                        4187 <EXPANSION BEGIN>
                        4187 jarl22 _PrintText , lp 
0000109e bfff62ef*      4187 <EXPANSION END>
                        4188 --line1114
                        4189 ..lin.C.3A.5CUsers.5Cnikhil.2Epatil.5CDocuments.5Crenesas.5CRH850_F1L_sample.5Ctoolchain.5CGHS.5Coutput.5Cobj.5Cr_tasks.337::
                        4190 .LDWlin337:
000010a2 850d*          4191 	br	.L3696
                        4192 .L3699:
                        4193 --1114:             break;
                        4194 --1115:             
                        4195 --1116:             case R_MODE2:
                        4196 --1117:                 PrintText("\n\r>>Enter previous mode 2\n\r");
                        4197 --line1117
                        4198 ..lin.C.3A.5CUsers.5Cnikhil.2Epatil.5CDocuments.5Crenesas.5CRH850_F1L_sample.5Ctoolchain.5CGHS.5Coutput.5Cobj.5Cr_tasks.338::
                        4199 .LDWlin338:
000010a4 260600000000*  4200 	mov	.L4076,r6
                        4201 	jarl	_PrintText,lp
                        4201 <EXPANSION BEGIN>
                        4201 jarl22 _PrintText , lp 
000010aa bfff56ef*      4201 <EXPANSION END>

                                                                      Page 82
                                                              C:\Users\NIKHIL~1.PAT\AppData\Local\Temp\gh_000aeoo1.s
                        4202 --line1118
                        4203 ..lin.C.3A.5CUsers.5Cnikhil.2Epatil.5CDocuments.5Crenesas.5CRH850_F1L_sample.5Ctoolchain.5CGHS.5Coutput.5Cobj.5Cr_tasks.339::
                        4204 .LDWlin339:
000010ae a505*          4205 	br	.L3696
                        4206 .L3700:
                        4207 --line1121
                        4208 ..lin.C.3A.5CUsers.5Cnikhil.2Epatil.5CDocuments.5Crenesas.5CRH850_F1L_sample.5Ctoolchain.5CGHS.5Coutput.5Cobj.5Cr_tasks.340::
                        4209 .LDWlin340:
000010b0 0000           4210 	nop
                        4211 .L3696:
                        4212 --1118:             break;
                        4213 --1119:             
                        4214 --1120:             default:
                        4215 --1121:             break;
                        4216 --1122:         }
                        4217 --1124:         g_SystemStatus.CurrentMode = g_SystemStatus.PreviousMode;
000010b2 3d0f0500       4218 	ld.w	4[r29],r1
000010b6 7d0f0100       4219 	st.w	r1,0[r29]
                        4220 --1125:         g_SystemStatus.PreviousMode = R_DEEPSTOP;
000010ba 030a           4221 	mov	3,r1
000010bc 7d0f0500       4222 	st.w	r1,4[r29]
                        4223 --1126:         
                        4224 --1127:         /* If display was connected configure reset pin to reset release */
                        4225 --1128:         if(g_SystemStatus.DisplayDetected)
000010c0 3d0f2d00       4226 	ld.w	44[r29],r1
000010c4 e009           4227 	cmp	zero,r1
000010c6 b205*          4228 	be	.L3701
                        4229 --1129:         {
                        4230 --1130:             R_DISPLAY_ResetRelease();
                        4231 --line1130
                        4232 ..lin.C.3A.5CUsers.5Cnikhil.2Epatil.5CDocuments.5Crenesas.5CRH850_F1L_sample.5Ctoolchain.5CGHS.5Coutput.5Cobj.5Cr_tasks.341::
                        4233 .LDWlin341:
                        4234 	jarl	_R_DISPLAY_ResetRelease,lp
                        4234 <EXPANSION BEGIN>
                        4234 jarl22 _R_DISPLAY_ResetRelease , lp 
000010c8 80ff0000*      4234 <EXPANSION END>
                        4235 .L3701:
                        4236 --1131:         }
                        4237 --1132:         
                        4238 --1133:         /* Release IO hold state of the Ports after DeepSTOP */
                        4239 --1134:         R_STBC_ReleaseIoHold();
                        4240 --line1134
                        4241 ..lin.C.3A.5CUsers.5Cnikhil.2Epatil.5CDocuments.5Crenesas.5CRH850_F1L_sample.5Ctoolchain.5CGHS.5Coutput.5Cobj.5Cr_tasks.342::
                        4242 .LDWlin342:
                        4243 	jarl	_R_STBC_ReleaseIoHold,lp
                        4243 <EXPANSION BEGIN>
                        4243 jarl22 _R_STBC_ReleaseIoHold , lp 
000010cc 80ff0000*      4243 <EXPANSION END>
                        4244 .L3685:
                        4245 --1135:     }
                        4246 --1136:     
                        4247 --1137:     
                        4248 --1138:     /* Mode handler loop */
                        4249 --1139:     while(1)
                        4250 --line1139
                        4251 ..lin.C.3A.5CUsers.5Cnikhil.2Epatil.5CDocuments.5Crenesas.5CRH850_F1L_sample.5Ctoolchain.5CGHS.5Coutput.5Cobj.5Cr_tasks.343::
                        4252 .LDWlin343:
000010d0 0000           4253 	nop
                        4254 .L3705:
                        4255 --1140:     {
                        4256 --1141:         switch(g_SystemStatus.CurrentMode)

                                                                      Page 83
                                                              C:\Users\NIKHIL~1.PAT\AppData\Local\Temp\gh_000aeoo1.s
000010d2 3d0f0100       4257 	ld.w	0[r29],r1
000010d6 610a           4258 	cmp	1,r1
000010d8 f10d*          4259 	bl	.L3711
000010da d205*          4260 	be	.L3708
000010dc 630a           4261 	cmp	3,r1
000010de e105*          4262 	bl	.L3709
000010e0 820d*          4263 	be	.L3710
000010e2 a50d*          4264 	br	.L3711
                        4265 .L3708:
                        4266 --1142:         {
                        4267 --1143:             case R_MODE1:
                        4268 --1144:                 Mode1();
                        4269 --line1144
                        4270 ..lin.C.3A.5CUsers.5Cnikhil.2Epatil.5CDocuments.5Crenesas.5CRH850_F1L_sample.5Ctoolchain.5CGHS.5Coutput.5Cobj.5Cr_tasks.344::
                        4271 .LDWlin344:
                        4272 	jarl	_Mode1,lp
                        4272 <EXPANSION BEGIN>
                        4272 jarl22 _Mode1 , lp 
000010e4 bfffc0f3*      4272 <EXPANSION END>
                        4273 --line1145
                        4274 ..lin.C.3A.5CUsers.5Cnikhil.2Epatil.5CDocuments.5Crenesas.5CRH850_F1L_sample.5Ctoolchain.5CGHS.5Coutput.5Cobj.5Cr_tasks.345::
                        4275 .LDWlin345:
000010e8 850d*          4276 	br	.L3706
                        4277 .L3709:
                        4278 --1145:             break;
                        4279 --1146:             
                        4280 --1147:             case R_MODE2:
                        4281 --1148:                 Mode2();
                        4282 --line1148
                        4283 ..lin.C.3A.5CUsers.5Cnikhil.2Epatil.5CDocuments.5Crenesas.5CRH850_F1L_sample.5Ctoolchain.5CGHS.5Coutput.5Cobj.5Cr_tasks.346::
                        4284 .LDWlin346:
                        4285 	jarl	_Mode2,lp
                        4285 <EXPANSION BEGIN>
                        4285 jarl22 _Mode2 , lp 
000010ea bfff2af7*      4285 <EXPANSION END>
                        4286 --line1149
                        4287 ..lin.C.3A.5CUsers.5Cnikhil.2Epatil.5CDocuments.5Crenesas.5CRH850_F1L_sample.5Ctoolchain.5CGHS.5Coutput.5Cobj.5Cr_tasks.347::
                        4288 .LDWlin347:
000010ee d505*          4289 	br	.L3706
                        4290 .L3710:
                        4291 --1149:             break;
                        4292 --1150:             
                        4293 --1151:             case R_DEEPSTOP:
                        4294 --1152:                 DeepSTOP();
                        4295 --line1152
                        4296 ..lin.C.3A.5CUsers.5Cnikhil.2Epatil.5CDocuments.5Crenesas.5CRH850_F1L_sample.5Ctoolchain.5CGHS.5Coutput.5Cobj.5Cr_tasks.348::
                        4297 .LDWlin348:
                        4298 	jarl	_DeepSTOP,lp
                        4298 <EXPANSION BEGIN>
                        4298 jarl22 _DeepSTOP , lp 
000010f0 bfff9af9*      4298 <EXPANSION END>
                        4299 --line1153
                        4300 ..lin.C.3A.5CUsers.5Cnikhil.2Epatil.5CDocuments.5Crenesas.5CRH850_F1L_sample.5Ctoolchain.5CGHS.5Coutput.5Cobj.5Cr_tasks.349::
                        4301 .LDWlin349:
000010f4 a505*          4302 	br	.L3706
                        4303 .L3711:
                        4304 --line1156
                        4305 ..lin.C.3A.5CUsers.5Cnikhil.2Epatil.5CDocuments.5Crenesas.5CRH850_F1L_sample.5Ctoolchain.5CGHS.5Coutput.5Cobj.5Cr_tasks.350::
                        4306 .LDWlin350:
000010f6 0000           4307 	nop
                        4308 .L3706:

                                                                      Page 84
                                                              C:\Users\NIKHIL~1.PAT\AppData\Local\Temp\gh_000aeoo1.s
000010f8 d5ed*          4309 	br	.L3705
                        4310 --	    .ef
                        4311 .LDW33:
                        4312 ..lin.C.3A.5CUsers.5Cnikhil.2Epatil.5CDocuments.5Crenesas.5CRH850_F1L_sample.5Ctoolchain.5CGHS.5Coutput.5Cobj.5Cr_tasks.351::
                        4313 .LDWlin351:
                        4314 	.global	___ghs_eofn_R_TASKS_Start
                        4315 ___ghs_eofn_R_TASKS_Start:
                        4316 	.type	_R_TASKS_Start,@function
                        4317 	.size	_R_TASKS_Start,.-_R_TASKS_Start
                        4318 	.align	2
                        4319 --_loc_WakeUpFactor	r28	local
                        4320 --.L3939	.L4077	static
                        4321 --.L3940	.L4073	static
                        4322 --.L3941	.L4078	static
                        4323 --.L3942	.L4079	static
                        4324 --.L3943	.L4074	static
                        4325 --.L3944	.L4080	static
                        4326 --.L3945	.L4075	static
                        4327 --.L3946	.L4076	static
                        4328 
                        4329 	.section ".bss","awb"
                        4330 .L3938:
                        4331 	.type	.L3938,@object
                        4332 	.size	.L3938,0
                        4333 	.section ".rodata","a"
                        4334 .L4073:--	"\n\r>>Wake-up from DeepSTOP by INTP Button!\n\r"
000003de 0a0d3e3e       4335 	.byte	10,13,62,62
000003e2 57616b65       4336 	.byte	87,97,107,101
000003e6 2d757020       4337 	.byte	45,117,112,32
000003ea 66726f6d       4338 	.byte	102,114,111,109
000003ee 20446565       4339 	.byte	32,68,101,101
000003f2 7053544f       4340 	.byte	112,83,84,79
000003f6 50206279       4341 	.byte	80,32,98,121
000003fa 20494e54       4342 	.byte	32,73,78,84
000003fe 50204275       4343 	.byte	80,32,66,117
00000402 74746f6e       4344 	.byte	116,116,111,110
00000406 210a0d00       4345 	.byte	33,10,13,0
                        4346 	.type	.L4073,@object
                        4347 	.size	.L4073,44
                        4348 .L4074:--	"\n\r>>Wake-up from DeepSTOP by LPS (digital input)!\n\r"
0000040a 0a0d3e3e       4349 	.byte	10,13,62,62
0000040e 57616b65       4350 	.byte	87,97,107,101
00000412 2d757020       4351 	.byte	45,117,112,32
00000416 66726f6d       4352 	.byte	102,114,111,109
0000041a 20446565       4353 	.byte	32,68,101,101
0000041e 7053544f       4354 	.byte	112,83,84,79
00000422 50206279       4355 	.byte	80,32,98,121
00000426 204c5053       4356 	.byte	32,76,80,83
0000042a 20286469       4357 	.byte	32,40,100,105
0000042e 67697461       4358 	.byte	103,105,116,97
00000432 6c20696e       4359 	.byte	108,32,105,110
00000436 70757429       4360 	.byte	112,117,116,41
0000043a 210a0d00       4361 	.byte	33,10,13,0
                        4362 	.type	.L4074,@object
                        4363 	.size	.L4074,52
                        4364 .L4075:--	"\n\r>>Enter previous mode 1\n\r"
0000043e 0a0d3e3e       4365 	.byte	10,13,62,62
00000442 456e7465       4366 	.byte	69,110,116,101
00000446 72207072       4367 	.byte	114,32,112,114
0000044a 6576696f       4368 	.byte	101,118,105,111
0000044e 7573206d       4369 	.byte	117,115,32,109

                                                                      Page 85
                                                              C:\Users\NIKHIL~1.PAT\AppData\Local\Temp\gh_000aeoo1.s
00000452 6f646520       4370 	.byte	111,100,101,32
00000456 310a0d00       4371 	.byte	49,10,13,0
                        4372 	.type	.L4075,@object
                        4373 	.size	.L4075,28
                        4374 .L4076:--	"\n\r>>Enter previous mode 2\n\r"
0000045a 0a0d3e3e       4375 	.byte	10,13,62,62
0000045e 456e7465       4376 	.byte	69,110,116,101
00000462 72207072       4377 	.byte	114,32,112,114
00000466 6576696f       4378 	.byte	101,118,105,111
0000046a 7573206d       4379 	.byte	117,115,32,109
0000046e 6f646520       4380 	.byte	111,100,101,32
00000472 320a0d00       4381 	.byte	50,10,13,0
                        4382 	.type	.L4076,@object
                        4383 	.size	.L4076,28
                        4384 .L4077:--	"\n\r>>Enter Mode 1\n\r"
00000476 0a0d3e3e       4385 	.byte	10,13,62,62
0000047a 456e7465       4386 	.byte	69,110,116,101
0000047e 72204d6f       4387 	.byte	114,32,77,111
00000482 64652031       4388 	.byte	100,101,32,49
00000486 0a0d           4389 	.byte	10,13
00000488 00             4390 	.byte	0
                        4391 	.type	.L4077,@object
                        4392 	.size	.L4077,19
                        4393 .L4078:--	"\n\r>>Wake-up from DeepSTOP by Encoder Button!\n\r"
00000489 0a0d3e3e       4394 	.byte	10,13,62,62
0000048d 57616b65       4395 	.byte	87,97,107,101
00000491 2d757020       4396 	.byte	45,117,112,32
00000495 66726f6d       4397 	.byte	102,114,111,109
00000499 20446565       4398 	.byte	32,68,101,101
0000049d 7053544f       4399 	.byte	112,83,84,79
000004a1 50206279       4400 	.byte	80,32,98,121
000004a5 20456e63       4401 	.byte	32,69,110,99
000004a9 6f646572       4402 	.byte	111,100,101,114
000004ad 20427574       4403 	.byte	32,66,117,116
000004b1 746f6e21       4404 	.byte	116,111,110,33
000004b5 0a0d           4405 	.byte	10,13
000004b7 00             4406 	.byte	0
                        4407 	.type	.L4078,@object
                        4408 	.size	.L4078,47
                        4409 .L4079:--	"\n\r>>Wake-up from DeepSTOP by LPS (analog input)!\n\r"
000004b8 0a0d3e3e       4410 	.byte	10,13,62,62
000004bc 57616b65       4411 	.byte	87,97,107,101
000004c0 2d757020       4412 	.byte	45,117,112,32
000004c4 66726f6d       4413 	.byte	102,114,111,109
000004c8 20446565       4414 	.byte	32,68,101,101
000004cc 7053544f       4415 	.byte	112,83,84,79
000004d0 50206279       4416 	.byte	80,32,98,121
000004d4 204c5053       4417 	.byte	32,76,80,83
000004d8 2028616e       4418 	.byte	32,40,97,110
000004dc 616c6f67       4419 	.byte	97,108,111,103
000004e0 20696e70       4420 	.byte	32,105,110,112
000004e4 75742921       4421 	.byte	117,116,41,33
000004e8 0a0d           4422 	.byte	10,13
000004ea 00             4423 	.byte	0
                        4424 	.type	.L4079,@object
                        4425 	.size	.L4079,51
                        4426 .L4080:--	"\n\r>>Wake-up from DeepSTOP by debugger!\n\r"
000004eb 0a0d3e3e       4427 	.byte	10,13,62,62
000004ef 57616b65       4428 	.byte	87,97,107,101
000004f3 2d757020       4429 	.byte	45,117,112,32
000004f7 66726f6d       4430 	.byte	102,114,111,109

                                                                      Page 86
                                                              C:\Users\NIKHIL~1.PAT\AppData\Local\Temp\gh_000aeoo1.s
000004fb 20446565       4431 	.byte	32,68,101,101
000004ff 7053544f       4432 	.byte	112,83,84,79
00000503 50206279       4433 	.byte	80,32,98,121
00000507 20646562       4434 	.byte	32,100,101,98
0000050b 75676765       4435 	.byte	117,103,103,101
0000050f 72210a0d       4436 	.byte	114,33,10,13
00000513 00             4437 	.byte	0
                        4438 	.type	.L4080,@object
                        4439 	.size	.L4080,41
                        4440 	.data
                        4441 	.text
                        4442 
                        4443 --1153:             break;
                        4444 --1154:             
                        4445 --1155:             default:
                        4446 --1156:             break;
                        4447 --1157:         }
                        4448 --1158:     }
                        4449 --1159: }
                        4450 	.align	2
                        4451 
                        4452 	.section ".rodata","a"
                        4453 	.align	2
                        4454 	.global	_g_LEDRingPattern
00000514 01000300       4455 _g_LEDRingPattern:	.byte	1,0,3,0
00000518 07000f00       4456 	.byte	7,0,15,0
0000051c 1f003f00       4457 	.byte	31,0,63,0
00000520 7f00ff00       4458 	.byte	127,0,255,0
00000524 ff80ffc0       4459 	.byte	255,128,255,192
00000528 ffe0fff0       4460 	.byte	255,224,255,240
0000052c fff8fffc       4461 	.byte	255,248,255,252
00000530 fffeffff       4462 	.byte	255,254,255,255
                        4463 	.type	_g_LEDRingPattern,@object
                        4464 	.size	_g_LEDRingPattern,32
                        4465 	.global	_g_FixedRGBColors
00000534 ff0f           4466 _g_FixedRGBColors:	.byte	255,15
00000536 0000           4467 	.space	2
00000538 0000           4468 	.space	2
0000053a ff0fff0f       4469 	.byte	255,15,255,15
0000053e 0000           4470 	.space	2
00000540 0000           4471 	.space	2
00000542 ff0f           4472 	.byte	255,15
00000544 0000           4473 	.space	2
00000546 0000           4474 	.space	2
00000548 ff0fff0f       4475 	.byte	255,15,255,15
0000054c 0000           4476 	.space	2
0000054e 0000           4477 	.space	2
00000550 ff0f           4478 	.byte	255,15
00000552 ff0f           4479 	.byte	255,15
00000554 0000           4480 	.space	2
00000556 ff0f           4481 	.byte	255,15
00000558 ff0fff0f       4482 	.byte	255,15,255,15
0000055c ff0f           4483 	.byte	255,15
                        4484 	.type	_g_FixedRGBColors,@object
                        4485 	.size	_g_FixedRGBColors,42
                        4486 	.data
                        4487 	.global	_RenesasPicture
00000000 cc391332       4488 _RenesasPicture:	.byte	204,57,19,50
00000004 13321332       4489 	.byte	19,50,19,50
00000008 13321332       4490 	.byte	19,50,19,50
0000000c 13321332       4491 	.byte	19,50,19,50

                                                                      Page 87
                                                              C:\Users\NIKHIL~1.PAT\AppData\Local\Temp\gh_000aeoo1.s
00000010 13321332       4492 	.byte	19,50,19,50
00000014 13321332       4493 	.byte	19,50,19,50
00000018 13321332       4494 	.byte	19,50,19,50
0000001c 13321332       4495 	.byte	19,50,19,50
00000020 13321332       4496 	.byte	19,50,19,50
00000024 13321332       4497 	.byte	19,50,19,50
00000028 13321332       4498 	.byte	19,50,19,50
0000002c 13321332       4499 	.byte	19,50,19,50
00000030 13321332       4500 	.byte	19,50,19,50
00000034 13321332       4501 	.byte	19,50,19,50
00000038 13321332       4502 	.byte	19,50,19,50
0000003c 13321332       4503 	.byte	19,50,19,50
00000040 13321332       4504 	.byte	19,50,19,50
00000044 13321332       4505 	.byte	19,50,19,50
00000048 13321332       4506 	.byte	19,50,19,50
0000004c 13321332       4507 	.byte	19,50,19,50
00000050 13321332       4508 	.byte	19,50,19,50
00000054 13321332       4509 	.byte	19,50,19,50
00000058 13321332       4510 	.byte	19,50,19,50
0000005c 13321332       4511 	.byte	19,50,19,50
00000060 13321332       4512 	.byte	19,50,19,50
00000064 13321332       4513 	.byte	19,50,19,50
00000068 13321332       4514 	.byte	19,50,19,50
0000006c 13321332       4515 	.byte	19,50,19,50
00000070 13321332       4516 	.byte	19,50,19,50
00000074 13321332       4517 	.byte	19,50,19,50
00000078 13321332       4518 	.byte	19,50,19,50
0000007c 13321332       4519 	.byte	19,50,19,50
00000080 13321332       4520 	.byte	19,50,19,50
00000084 13321332       4521 	.byte	19,50,19,50
00000088 13321332       4522 	.byte	19,50,19,50
0000008c 13321332       4523 	.byte	19,50,19,50
00000090 13321332       4524 	.byte	19,50,19,50
00000094 13321332       4525 	.byte	19,50,19,50
00000098 13321332       4526 	.byte	19,50,19,50
0000009c 13321332       4527 	.byte	19,50,19,50
000000a0 13321332       4528 	.byte	19,50,19,50
000000a4 13321332       4529 	.byte	19,50,19,50
000000a8 13321332       4530 	.byte	19,50,19,50
000000ac 13321332       4531 	.byte	19,50,19,50
000000b0 13321332       4532 	.byte	19,50,19,50
000000b4 13321332       4533 	.byte	19,50,19,50
000000b8 13321332       4534 	.byte	19,50,19,50
000000bc 13321332       4535 	.byte	19,50,19,50
000000c0 13321332       4536 	.byte	19,50,19,50
000000c4 13321332       4537 	.byte	19,50,19,50
000000c8 13321332       4538 	.byte	19,50,19,50
000000cc 13321332       4539 	.byte	19,50,19,50
000000d0 13321332       4540 	.byte	19,50,19,50
000000d4 13321332       4541 	.byte	19,50,19,50
000000d8 13321332       4542 	.byte	19,50,19,50
000000dc 13321332       4543 	.byte	19,50,19,50
000000e0 13321332       4544 	.byte	19,50,19,50
000000e4 13321332       4545 	.byte	19,50,19,50
000000e8 13321332       4546 	.byte	19,50,19,50
000000ec 13321332       4547 	.byte	19,50,19,50
000000f0 13321332       4548 	.byte	19,50,19,50
000000f4 13321332       4549 	.byte	19,50,19,50
000000f8 13321332       4550 	.byte	19,50,19,50
000000fc 13321232       4551 	.byte	19,50,18,50
00000100 cc391332       4552 	.byte	204,57,19,50

                                                                      Page 88
                                                              C:\Users\NIKHIL~1.PAT\AppData\Local\Temp\gh_000aeoo1.s
00000104 13321332       4553 	.byte	19,50,19,50
00000108 13321332       4554 	.byte	19,50,19,50
0000010c 13321332       4555 	.byte	19,50,19,50
00000110 13321332       4556 	.byte	19,50,19,50
00000114 13321332       4557 	.byte	19,50,19,50
00000118 13321332       4558 	.byte	19,50,19,50
0000011c 13321332       4559 	.byte	19,50,19,50
00000120 13321332       4560 	.byte	19,50,19,50
00000124 13321332       4561 	.byte	19,50,19,50
00000128 13321332       4562 	.byte	19,50,19,50
0000012c 13321332       4563 	.byte	19,50,19,50
00000130 13321332       4564 	.byte	19,50,19,50
00000134 13321332       4565 	.byte	19,50,19,50
00000138 13321332       4566 	.byte	19,50,19,50
0000013c 13321332       4567 	.byte	19,50,19,50
00000140 13321332       4568 	.byte	19,50,19,50
00000144 13321332       4569 	.byte	19,50,19,50
00000148 13321332       4570 	.byte	19,50,19,50
0000014c 13321332       4571 	.byte	19,50,19,50
00000150 13321332       4572 	.byte	19,50,19,50
00000154 13321332       4573 	.byte	19,50,19,50
00000158 13321332       4574 	.byte	19,50,19,50
0000015c 13321332       4575 	.byte	19,50,19,50
00000160 13321332       4576 	.byte	19,50,19,50
00000164 13321332       4577 	.byte	19,50,19,50
00000168 13321332       4578 	.byte	19,50,19,50
0000016c 13321332       4579 	.byte	19,50,19,50
00000170 13321332       4580 	.byte	19,50,19,50
00000174 13321332       4581 	.byte	19,50,19,50
00000178 13321332       4582 	.byte	19,50,19,50
0000017c 13321332       4583 	.byte	19,50,19,50
00000180 13321332       4584 	.byte	19,50,19,50
00000184 13321332       4585 	.byte	19,50,19,50
00000188 13321332       4586 	.byte	19,50,19,50
0000018c 13321332       4587 	.byte	19,50,19,50
00000190 13321332       4588 	.byte	19,50,19,50
00000194 13321332       4589 	.byte	19,50,19,50
00000198 13321332       4590 	.byte	19,50,19,50
0000019c 13321332       4591 	.byte	19,50,19,50
000001a0 13321332       4592 	.byte	19,50,19,50
000001a4 13321332       4593 	.byte	19,50,19,50
000001a8 13321332       4594 	.byte	19,50,19,50
000001ac 13321332       4595 	.byte	19,50,19,50
000001b0 13321332       4596 	.byte	19,50,19,50
000001b4 13321332       4597 	.byte	19,50,19,50
000001b8 13321332       4598 	.byte	19,50,19,50
000001bc 13321332       4599 	.byte	19,50,19,50
000001c0 13321332       4600 	.byte	19,50,19,50
000001c4 13321332       4601 	.byte	19,50,19,50
000001c8 13321332       4602 	.byte	19,50,19,50
000001cc 13321332       4603 	.byte	19,50,19,50
000001d0 13321332       4604 	.byte	19,50,19,50
000001d4 13321332       4605 	.byte	19,50,19,50
000001d8 13321332       4606 	.byte	19,50,19,50
000001dc 13321332       4607 	.byte	19,50,19,50
000001e0 13321332       4608 	.byte	19,50,19,50
000001e4 13321332       4609 	.byte	19,50,19,50
000001e8 13321332       4610 	.byte	19,50,19,50
000001ec 13321332       4611 	.byte	19,50,19,50
000001f0 13321332       4612 	.byte	19,50,19,50
000001f4 13321332       4613 	.byte	19,50,19,50

                                                                      Page 89
                                                              C:\Users\NIKHIL~1.PAT\AppData\Local\Temp\gh_000aeoo1.s
000001f8 13321332       4614 	.byte	19,50,19,50
000001fc 13321232       4615 	.byte	19,50,18,50
00000200 cc391332       4616 	.byte	204,57,19,50
00000204 13321332       4617 	.byte	19,50,19,50
00000208 13321332       4618 	.byte	19,50,19,50
0000020c 13321332       4619 	.byte	19,50,19,50
00000210 13321332       4620 	.byte	19,50,19,50
00000214 13321332       4621 	.byte	19,50,19,50
00000218 13321332       4622 	.byte	19,50,19,50
0000021c 13321332       4623 	.byte	19,50,19,50
00000220 13321332       4624 	.byte	19,50,19,50
00000224 13321332       4625 	.byte	19,50,19,50
00000228 13321332       4626 	.byte	19,50,19,50
0000022c 13321332       4627 	.byte	19,50,19,50
00000230 13321332       4628 	.byte	19,50,19,50
00000234 13321332       4629 	.byte	19,50,19,50
00000238 13321332       4630 	.byte	19,50,19,50
0000023c 13321332       4631 	.byte	19,50,19,50
00000240 13321332       4632 	.byte	19,50,19,50
00000244 13321332       4633 	.byte	19,50,19,50
00000248 13321332       4634 	.byte	19,50,19,50
0000024c 13321332       4635 	.byte	19,50,19,50
00000250 13321332       4636 	.byte	19,50,19,50
00000254 13321332       4637 	.byte	19,50,19,50
00000258 13321332       4638 	.byte	19,50,19,50
0000025c 13321332       4639 	.byte	19,50,19,50
00000260 13321332       4640 	.byte	19,50,19,50
00000264 13321332       4641 	.byte	19,50,19,50
00000268 13321332       4642 	.byte	19,50,19,50
0000026c 13321332       4643 	.byte	19,50,19,50
00000270 13321332       4644 	.byte	19,50,19,50
00000274 13321332       4645 	.byte	19,50,19,50
00000278 13321332       4646 	.byte	19,50,19,50
0000027c 13321332       4647 	.byte	19,50,19,50
00000280 13321332       4648 	.byte	19,50,19,50
00000284 13321332       4649 	.byte	19,50,19,50
00000288 13321332       4650 	.byte	19,50,19,50
0000028c 13321332       4651 	.byte	19,50,19,50
00000290 13321332       4652 	.byte	19,50,19,50
00000294 13321332       4653 	.byte	19,50,19,50
00000298 13321332       4654 	.byte	19,50,19,50
0000029c 13321332       4655 	.byte	19,50,19,50
000002a0 13321332       4656 	.byte	19,50,19,50
000002a4 13321332       4657 	.byte	19,50,19,50
000002a8 13321332       4658 	.byte	19,50,19,50
000002ac 13321332       4659 	.byte	19,50,19,50
000002b0 13321332       4660 	.byte	19,50,19,50
000002b4 13321332       4661 	.byte	19,50,19,50
000002b8 13321332       4662 	.byte	19,50,19,50
000002bc 13321332       4663 	.byte	19,50,19,50
000002c0 13321332       4664 	.byte	19,50,19,50
000002c4 13321332       4665 	.byte	19,50,19,50
000002c8 13321332       4666 	.byte	19,50,19,50
000002cc 13321332       4667 	.byte	19,50,19,50
000002d0 13321332       4668 	.byte	19,50,19,50
000002d4 13321332       4669 	.byte	19,50,19,50
000002d8 13321332       4670 	.byte	19,50,19,50
000002dc 13321332       4671 	.byte	19,50,19,50
000002e0 13321332       4672 	.byte	19,50,19,50
000002e4 13321332       4673 	.byte	19,50,19,50
000002e8 13321332       4674 	.byte	19,50,19,50

                                                                      Page 90
                                                              C:\Users\NIKHIL~1.PAT\AppData\Local\Temp\gh_000aeoo1.s
000002ec 13321332       4675 	.byte	19,50,19,50
000002f0 13321332       4676 	.byte	19,50,19,50
000002f4 13321332       4677 	.byte	19,50,19,50
000002f8 13321332       4678 	.byte	19,50,19,50
000002fc 13321232       4679 	.byte	19,50,18,50
00000300 cc391332       4680 	.byte	204,57,19,50
00000304 13321332       4681 	.byte	19,50,19,50
00000308 13321332       4682 	.byte	19,50,19,50
0000030c 13321332       4683 	.byte	19,50,19,50
00000310 13321332       4684 	.byte	19,50,19,50
00000314 13321332       4685 	.byte	19,50,19,50
00000318 13321332       4686 	.byte	19,50,19,50
0000031c 13321332       4687 	.byte	19,50,19,50
00000320 13321332       4688 	.byte	19,50,19,50
00000324 13321332       4689 	.byte	19,50,19,50
00000328 13321332       4690 	.byte	19,50,19,50
0000032c 13321332       4691 	.byte	19,50,19,50
00000330 13321332       4692 	.byte	19,50,19,50
00000334 13321332       4693 	.byte	19,50,19,50
00000338 13321332       4694 	.byte	19,50,19,50
0000033c 13321332       4695 	.byte	19,50,19,50
00000340 13321332       4696 	.byte	19,50,19,50
00000344 13321332       4697 	.byte	19,50,19,50
00000348 13321332       4698 	.byte	19,50,19,50
0000034c 13321332       4699 	.byte	19,50,19,50
00000350 13321332       4700 	.byte	19,50,19,50
00000354 13321332       4701 	.byte	19,50,19,50
00000358 13321332       4702 	.byte	19,50,19,50
0000035c 13321332       4703 	.byte	19,50,19,50
00000360 13321332       4704 	.byte	19,50,19,50
00000364 13321332       4705 	.byte	19,50,19,50
00000368 13321332       4706 	.byte	19,50,19,50
0000036c 13321332       4707 	.byte	19,50,19,50
00000370 13321332       4708 	.byte	19,50,19,50
00000374 13321332       4709 	.byte	19,50,19,50
00000378 13321332       4710 	.byte	19,50,19,50
0000037c 13321332       4711 	.byte	19,50,19,50
00000380 13321332       4712 	.byte	19,50,19,50
00000384 13321332       4713 	.byte	19,50,19,50
00000388 13321332       4714 	.byte	19,50,19,50
0000038c 13321332       4715 	.byte	19,50,19,50
00000390 13321332       4716 	.byte	19,50,19,50
00000394 13321332       4717 	.byte	19,50,19,50
00000398 13321332       4718 	.byte	19,50,19,50
0000039c 13321332       4719 	.byte	19,50,19,50
000003a0 13321332       4720 	.byte	19,50,19,50
000003a4 13321332       4721 	.byte	19,50,19,50
000003a8 13321332       4722 	.byte	19,50,19,50
000003ac 13321332       4723 	.byte	19,50,19,50
000003b0 13321332       4724 	.byte	19,50,19,50
000003b4 13321332       4725 	.byte	19,50,19,50
000003b8 13321332       4726 	.byte	19,50,19,50
000003bc 13321332       4727 	.byte	19,50,19,50
000003c0 13321332       4728 	.byte	19,50,19,50
000003c4 13321332       4729 	.byte	19,50,19,50
000003c8 13321332       4730 	.byte	19,50,19,50
000003cc 13321332       4731 	.byte	19,50,19,50
000003d0 13321332       4732 	.byte	19,50,19,50
000003d4 13321332       4733 	.byte	19,50,19,50
000003d8 13321332       4734 	.byte	19,50,19,50
000003dc 13321332       4735 	.byte	19,50,19,50

                                                                      Page 91
                                                              C:\Users\NIKHIL~1.PAT\AppData\Local\Temp\gh_000aeoo1.s
000003e0 13321332       4736 	.byte	19,50,19,50
000003e4 13321332       4737 	.byte	19,50,19,50
000003e8 13321332       4738 	.byte	19,50,19,50
000003ec 13321332       4739 	.byte	19,50,19,50
000003f0 13321332       4740 	.byte	19,50,19,50
000003f4 13321332       4741 	.byte	19,50,19,50
000003f8 13321332       4742 	.byte	19,50,19,50
000003fc 13321232       4743 	.byte	19,50,18,50
00000400 cc391332       4744 	.byte	204,57,19,50
00000404 13321332       4745 	.byte	19,50,19,50
00000408 13321332       4746 	.byte	19,50,19,50
0000040c 13321332       4747 	.byte	19,50,19,50
00000410 13321332       4748 	.byte	19,50,19,50
00000414 13321332       4749 	.byte	19,50,19,50
00000418 13321332       4750 	.byte	19,50,19,50
0000041c 13321332       4751 	.byte	19,50,19,50
00000420 13321332       4752 	.byte	19,50,19,50
00000424 13321332       4753 	.byte	19,50,19,50
00000428 13321332       4754 	.byte	19,50,19,50
0000042c 13321332       4755 	.byte	19,50,19,50
00000430 13321332       4756 	.byte	19,50,19,50
00000434 13321332       4757 	.byte	19,50,19,50
00000438 13321332       4758 	.byte	19,50,19,50
0000043c 13321332       4759 	.byte	19,50,19,50
00000440 13321332       4760 	.byte	19,50,19,50
00000444 13321332       4761 	.byte	19,50,19,50
00000448 13321332       4762 	.byte	19,50,19,50
0000044c 13321332       4763 	.byte	19,50,19,50
00000450 13321332       4764 	.byte	19,50,19,50
00000454 13321332       4765 	.byte	19,50,19,50
00000458 13321332       4766 	.byte	19,50,19,50
0000045c 13321332       4767 	.byte	19,50,19,50
00000460 13321332       4768 	.byte	19,50,19,50
00000464 13321332       4769 	.byte	19,50,19,50
00000468 13321332       4770 	.byte	19,50,19,50
0000046c 13321332       4771 	.byte	19,50,19,50
00000470 13321332       4772 	.byte	19,50,19,50
00000474 13321332       4773 	.byte	19,50,19,50
00000478 13321332       4774 	.byte	19,50,19,50
0000047c 13321332       4775 	.byte	19,50,19,50
00000480 13321332       4776 	.byte	19,50,19,50
00000484 13321332       4777 	.byte	19,50,19,50
00000488 13321332       4778 	.byte	19,50,19,50
0000048c 13321332       4779 	.byte	19,50,19,50
00000490 13321332       4780 	.byte	19,50,19,50
00000494 13321332       4781 	.byte	19,50,19,50
00000498 13321332       4782 	.byte	19,50,19,50
0000049c 13321332       4783 	.byte	19,50,19,50
000004a0 13321332       4784 	.byte	19,50,19,50
000004a4 13321332       4785 	.byte	19,50,19,50
000004a8 13321332       4786 	.byte	19,50,19,50
000004ac 13321332       4787 	.byte	19,50,19,50
000004b0 13321332       4788 	.byte	19,50,19,50
000004b4 13321332       4789 	.byte	19,50,19,50
000004b8 13321332       4790 	.byte	19,50,19,50
000004bc 13321332       4791 	.byte	19,50,19,50
000004c0 13321332       4792 	.byte	19,50,19,50
000004c4 13321332       4793 	.byte	19,50,19,50
000004c8 13321332       4794 	.byte	19,50,19,50
000004cc 13321332       4795 	.byte	19,50,19,50
000004d0 13321332       4796 	.byte	19,50,19,50

                                                                      Page 92
                                                              C:\Users\NIKHIL~1.PAT\AppData\Local\Temp\gh_000aeoo1.s
000004d4 13321332       4797 	.byte	19,50,19,50
000004d8 13321332       4798 	.byte	19,50,19,50
000004dc 13321332       4799 	.byte	19,50,19,50
000004e0 13321332       4800 	.byte	19,50,19,50
000004e4 13321332       4801 	.byte	19,50,19,50
000004e8 13321332       4802 	.byte	19,50,19,50
000004ec 13321332       4803 	.byte	19,50,19,50
000004f0 13321332       4804 	.byte	19,50,19,50
000004f4 13321332       4805 	.byte	19,50,19,50
000004f8 13321332       4806 	.byte	19,50,19,50
000004fc 13321232       4807 	.byte	19,50,18,50
00000500 cc391332       4808 	.byte	204,57,19,50
00000504 13321332       4809 	.byte	19,50,19,50
00000508 13321332       4810 	.byte	19,50,19,50
0000050c 13321332       4811 	.byte	19,50,19,50
00000510 13321332       4812 	.byte	19,50,19,50
00000514 13321332       4813 	.byte	19,50,19,50
00000518 f231f231       4814 	.byte	242,49,242,49
0000051c f231f231       4815 	.byte	242,49,242,49
00000520 f231f231       4816 	.byte	242,49,242,49
00000524 f3311332       4817 	.byte	243,49,19,50
00000528 13321332       4818 	.byte	19,50,19,50
0000052c 13321332       4819 	.byte	19,50,19,50
00000530 13321332       4820 	.byte	19,50,19,50
00000534 13321332       4821 	.byte	19,50,19,50
00000538 13321332       4822 	.byte	19,50,19,50
0000053c 13321332       4823 	.byte	19,50,19,50
00000540 13321332       4824 	.byte	19,50,19,50
00000544 13321332       4825 	.byte	19,50,19,50
00000548 13321332       4826 	.byte	19,50,19,50
0000054c 13321332       4827 	.byte	19,50,19,50
00000550 13321332       4828 	.byte	19,50,19,50
00000554 13321332       4829 	.byte	19,50,19,50
00000558 13321332       4830 	.byte	19,50,19,50
0000055c 13321332       4831 	.byte	19,50,19,50
00000560 13321332       4832 	.byte	19,50,19,50
00000564 13321332       4833 	.byte	19,50,19,50
00000568 13321332       4834 	.byte	19,50,19,50
0000056c 13321332       4835 	.byte	19,50,19,50
00000570 13321332       4836 	.byte	19,50,19,50
00000574 13321332       4837 	.byte	19,50,19,50
00000578 13321332       4838 	.byte	19,50,19,50
0000057c 13321332       4839 	.byte	19,50,19,50
00000580 13321332       4840 	.byte	19,50,19,50
00000584 13321332       4841 	.byte	19,50,19,50
00000588 13321332       4842 	.byte	19,50,19,50
0000058c 13321332       4843 	.byte	19,50,19,50
00000590 13321332       4844 	.byte	19,50,19,50
00000594 13321332       4845 	.byte	19,50,19,50
00000598 13321332       4846 	.byte	19,50,19,50
0000059c 13321332       4847 	.byte	19,50,19,50
000005a0 13321332       4848 	.byte	19,50,19,50
000005a4 13321332       4849 	.byte	19,50,19,50
000005a8 13321332       4850 	.byte	19,50,19,50
000005ac 13321332       4851 	.byte	19,50,19,50
000005b0 13321332       4852 	.byte	19,50,19,50
000005b4 13321332       4853 	.byte	19,50,19,50
000005b8 13321332       4854 	.byte	19,50,19,50
000005bc 13321332       4855 	.byte	19,50,19,50
000005c0 13321332       4856 	.byte	19,50,19,50
000005c4 13321332       4857 	.byte	19,50,19,50

                                                                      Page 93
                                                              C:\Users\NIKHIL~1.PAT\AppData\Local\Temp\gh_000aeoo1.s
000005c8 13321332       4858 	.byte	19,50,19,50
000005cc 13321332       4859 	.byte	19,50,19,50
000005d0 13321332       4860 	.byte	19,50,19,50
000005d4 13321332       4861 	.byte	19,50,19,50
000005d8 13321332       4862 	.byte	19,50,19,50
000005dc 13321332       4863 	.byte	19,50,19,50
000005e0 13321332       4864 	.byte	19,50,19,50
000005e4 13321332       4865 	.byte	19,50,19,50
000005e8 13321332       4866 	.byte	19,50,19,50
000005ec 13321332       4867 	.byte	19,50,19,50
000005f0 13321332       4868 	.byte	19,50,19,50
000005f4 13321332       4869 	.byte	19,50,19,50
000005f8 13321332       4870 	.byte	19,50,19,50
000005fc 13321232       4871 	.byte	19,50,18,50
00000600 cc391332       4872 	.byte	204,57,19,50
00000604 13321332       4873 	.byte	19,50,19,50
00000608 13321332       4874 	.byte	19,50,19,50
0000060c 13321332       4875 	.byte	19,50,19,50
00000610 f231d229       4876 	.byte	242,49,210,41
00000614 d229f231       4877 	.byte	210,41,242,49
00000618 944af552       4878 	.byte	148,74,245,82
0000061c 7663766b       4879 	.byte	118,99,118,107
00000620 355bd44a       4880 	.byte	53,91,212,74
00000624 1332d229       4881 	.byte	19,50,210,41
00000628 f231f331       4882 	.byte	242,49,243,49
0000062c 13321332       4883 	.byte	19,50,19,50
00000630 13321332       4884 	.byte	19,50,19,50
00000634 13321332       4885 	.byte	19,50,19,50
00000638 13321332       4886 	.byte	19,50,19,50
0000063c 13321332       4887 	.byte	19,50,19,50
00000640 13321332       4888 	.byte	19,50,19,50
00000644 13321332       4889 	.byte	19,50,19,50
00000648 13321332       4890 	.byte	19,50,19,50
0000064c 13321332       4891 	.byte	19,50,19,50
00000650 13321332       4892 	.byte	19,50,19,50
00000654 13321332       4893 	.byte	19,50,19,50
00000658 13321332       4894 	.byte	19,50,19,50
0000065c 13321332       4895 	.byte	19,50,19,50
00000660 13321332       4896 	.byte	19,50,19,50
00000664 13321332       4897 	.byte	19,50,19,50
00000668 13321332       4898 	.byte	19,50,19,50
0000066c 13321332       4899 	.byte	19,50,19,50
00000670 13321332       4900 	.byte	19,50,19,50
00000674 13321332       4901 	.byte	19,50,19,50
00000678 13321332       4902 	.byte	19,50,19,50
0000067c 13321332       4903 	.byte	19,50,19,50
00000680 13321332       4904 	.byte	19,50,19,50
00000684 13321332       4905 	.byte	19,50,19,50
00000688 13321332       4906 	.byte	19,50,19,50
0000068c 13321332       4907 	.byte	19,50,19,50
00000690 13321332       4908 	.byte	19,50,19,50
00000694 13321332       4909 	.byte	19,50,19,50
00000698 13321332       4910 	.byte	19,50,19,50
0000069c 13321332       4911 	.byte	19,50,19,50
000006a0 13321332       4912 	.byte	19,50,19,50
000006a4 13321332       4913 	.byte	19,50,19,50
000006a8 13321332       4914 	.byte	19,50,19,50
000006ac 13321332       4915 	.byte	19,50,19,50
000006b0 13321332       4916 	.byte	19,50,19,50
000006b4 13321332       4917 	.byte	19,50,19,50
000006b8 13321332       4918 	.byte	19,50,19,50

                                                                      Page 94
                                                              C:\Users\NIKHIL~1.PAT\AppData\Local\Temp\gh_000aeoo1.s
000006bc 13321332       4919 	.byte	19,50,19,50
000006c0 13321332       4920 	.byte	19,50,19,50
000006c4 13321332       4921 	.byte	19,50,19,50
000006c8 13321332       4922 	.byte	19,50,19,50
000006cc 13321332       4923 	.byte	19,50,19,50
000006d0 13321332       4924 	.byte	19,50,19,50
000006d4 13321332       4925 	.byte	19,50,19,50
000006d8 13321332       4926 	.byte	19,50,19,50
000006dc 13321332       4927 	.byte	19,50,19,50
000006e0 13321332       4928 	.byte	19,50,19,50
000006e4 13321332       4929 	.byte	19,50,19,50
000006e8 13321332       4930 	.byte	19,50,19,50
000006ec 13321332       4931 	.byte	19,50,19,50
000006f0 13321332       4932 	.byte	19,50,19,50
000006f4 13321332       4933 	.byte	19,50,19,50
000006f8 13321332       4934 	.byte	19,50,19,50
000006fc 13321232       4935 	.byte	19,50,18,50
00000700 cc391332       4936 	.byte	204,57,19,50
00000704 13321332       4937 	.byte	19,50,19,50
00000708 1332f331       4938 	.byte	19,50,243,49
0000070c f231333a       4939 	.byte	242,49,51,58
00000710 966b5aa5       4940 	.byte	150,107,90,165
00000714 bcd6bff7       4941 	.byte	188,214,191,247
00000718 ffffffff       4942 	.byte	255,255,255,255
0000071c ffffffff       4943 	.byte	255,255,255,255
00000720 dfffdfff       4944 	.byte	223,255,223,255
00000724 bef79cce       4945 	.byte	190,247,156,206
00000728 788c7342       4946 	.byte	120,140,115,66
0000072c f2311332       4947 	.byte	242,49,19,50
00000730 13321332       4948 	.byte	19,50,19,50
00000734 13321332       4949 	.byte	19,50,19,50
00000738 13321332       4950 	.byte	19,50,19,50
0000073c 13321332       4951 	.byte	19,50,19,50
00000740 13321332       4952 	.byte	19,50,19,50
00000744 13321332       4953 	.byte	19,50,19,50
00000748 13321332       4954 	.byte	19,50,19,50
0000074c 13321332       4955 	.byte	19,50,19,50
00000750 13321332       4956 	.byte	19,50,19,50
00000754 13321332       4957 	.byte	19,50,19,50
00000758 13321332       4958 	.byte	19,50,19,50
0000075c 13321332       4959 	.byte	19,50,19,50
00000760 13321332       4960 	.byte	19,50,19,50
00000764 13321332       4961 	.byte	19,50,19,50
00000768 13321332       4962 	.byte	19,50,19,50
0000076c 13321332       4963 	.byte	19,50,19,50
00000770 13321332       4964 	.byte	19,50,19,50
00000774 13321332       4965 	.byte	19,50,19,50
00000778 13321332       4966 	.byte	19,50,19,50
0000077c 13321332       4967 	.byte	19,50,19,50
00000780 13321332       4968 	.byte	19,50,19,50
00000784 13321332       4969 	.byte	19,50,19,50
00000788 13321332       4970 	.byte	19,50,19,50
0000078c 13321332       4971 	.byte	19,50,19,50
00000790 13321332       4972 	.byte	19,50,19,50
00000794 13321332       4973 	.byte	19,50,19,50
00000798 13321332       4974 	.byte	19,50,19,50
0000079c 13321332       4975 	.byte	19,50,19,50
000007a0 13321332       4976 	.byte	19,50,19,50
000007a4 13321332       4977 	.byte	19,50,19,50
000007a8 13321332       4978 	.byte	19,50,19,50
000007ac 13321332       4979 	.byte	19,50,19,50

                                                                      Page 95
                                                              C:\Users\NIKHIL~1.PAT\AppData\Local\Temp\gh_000aeoo1.s
000007b0 13321332       4980 	.byte	19,50,19,50
000007b4 13321332       4981 	.byte	19,50,19,50
000007b8 13321332       4982 	.byte	19,50,19,50
000007bc 13321332       4983 	.byte	19,50,19,50
000007c0 13321332       4984 	.byte	19,50,19,50
000007c4 13321332       4985 	.byte	19,50,19,50
000007c8 13321332       4986 	.byte	19,50,19,50
000007cc 13321332       4987 	.byte	19,50,19,50
000007d0 13321332       4988 	.byte	19,50,19,50
000007d4 13321332       4989 	.byte	19,50,19,50
000007d8 13321332       4990 	.byte	19,50,19,50
000007dc 13321332       4991 	.byte	19,50,19,50
000007e0 13321332       4992 	.byte	19,50,19,50
000007e4 13321332       4993 	.byte	19,50,19,50
000007e8 13321332       4994 	.byte	19,50,19,50
000007ec 13321332       4995 	.byte	19,50,19,50
000007f0 13321332       4996 	.byte	19,50,19,50
000007f4 13321332       4997 	.byte	19,50,19,50
000007f8 13321332       4998 	.byte	19,50,19,50
000007fc 13321232       4999 	.byte	19,50,18,50
00000800 cc391332       5000 	.byte	204,57,19,50
00000804 13321332       5001 	.byte	19,50,19,50
00000808 1332d452       5002 	.byte	19,50,212,82
0000080c 5aa57eef       5003 	.byte	90,165,126,239
00000810 1ddf9aad       5004 	.byte	29,223,154,173
00000814 988cb66b       5005 	.byte	152,140,182,107
00000818 76637663       5006 	.byte	118,99,118,99
0000081c 177c7aad       5007 	.byte	23,124,122,173
00000820 7eefffff       5008 	.byte	126,239,255,255
00000824 ffffffff       5009 	.byte	255,255,255,255
00000828 ffff3de7       5010 	.byte	255,255,61,231
0000082c 966bf231       5011 	.byte	150,107,242,49
00000830 13321332       5012 	.byte	19,50,19,50
00000834 13321332       5013 	.byte	19,50,19,50
00000838 13321332       5014 	.byte	19,50,19,50
0000083c 13321332       5015 	.byte	19,50,19,50
00000840 13321332       5016 	.byte	19,50,19,50
00000844 13321332       5017 	.byte	19,50,19,50
00000848 13321332       5018 	.byte	19,50,19,50
0000084c 13321332       5019 	.byte	19,50,19,50
00000850 13321332       5020 	.byte	19,50,19,50
00000854 13321332       5021 	.byte	19,50,19,50
00000858 13321332       5022 	.byte	19,50,19,50
0000085c 13321332       5023 	.byte	19,50,19,50
00000860 13321332       5024 	.byte	19,50,19,50
00000864 13321332       5025 	.byte	19,50,19,50
00000868 13321332       5026 	.byte	19,50,19,50
0000086c 13321332       5027 	.byte	19,50,19,50
00000870 13321332       5028 	.byte	19,50,19,50
00000874 13321332       5029 	.byte	19,50,19,50
00000878 13321332       5030 	.byte	19,50,19,50
0000087c 13321332       5031 	.byte	19,50,19,50
00000880 13321332       5032 	.byte	19,50,19,50
00000884 13321332       5033 	.byte	19,50,19,50
00000888 13321332       5034 	.byte	19,50,19,50
0000088c 13321332       5035 	.byte	19,50,19,50
00000890 13321332       5036 	.byte	19,50,19,50
00000894 13321332       5037 	.byte	19,50,19,50
00000898 13321332       5038 	.byte	19,50,19,50
0000089c 13321332       5039 	.byte	19,50,19,50
000008a0 13321332       5040 	.byte	19,50,19,50

                                                                      Page 96
                                                              C:\Users\NIKHIL~1.PAT\AppData\Local\Temp\gh_000aeoo1.s
000008a4 13321332       5041 	.byte	19,50,19,50
000008a8 13321332       5042 	.byte	19,50,19,50
000008ac 13321332       5043 	.byte	19,50,19,50
000008b0 13321332       5044 	.byte	19,50,19,50
000008b4 13321332       5045 	.byte	19,50,19,50
000008b8 13321332       5046 	.byte	19,50,19,50
000008bc 13321332       5047 	.byte	19,50,19,50
000008c0 13321332       5048 	.byte	19,50,19,50
000008c4 13321332       5049 	.byte	19,50,19,50
000008c8 13321332       5050 	.byte	19,50,19,50
000008cc 13321332       5051 	.byte	19,50,19,50
000008d0 13321332       5052 	.byte	19,50,19,50
000008d4 13321332       5053 	.byte	19,50,19,50
000008d8 13321332       5054 	.byte	19,50,19,50
000008dc 13321332       5055 	.byte	19,50,19,50
000008e0 13321332       5056 	.byte	19,50,19,50
000008e4 13321332       5057 	.byte	19,50,19,50
000008e8 13321332       5058 	.byte	19,50,19,50
000008ec 13321332       5059 	.byte	19,50,19,50
000008f0 13321332       5060 	.byte	19,50,19,50
000008f4 13321332       5061 	.byte	19,50,19,50
000008f8 13321332       5062 	.byte	19,50,19,50
000008fc 13321232       5063 	.byte	19,50,18,50
00000900 cc391332       5064 	.byte	204,57,19,50
00000904 1332f231       5065 	.byte	19,50,242,49
00000908 76631de7       5066 	.byte	118,99,29,231
0000090c 399d944a       5067 	.byte	57,157,148,74
00000910 d229d231       5068 	.byte	210,41,210,49
00000914 f231f231       5069 	.byte	242,49,242,49
00000918 f231f231       5070 	.byte	242,49,242,49
0000091c f231d231       5071 	.byte	242,49,210,49
00000920 73421bbe       5072 	.byte	115,66,27,190
00000924 ffffffff       5073 	.byte	255,255,255,255
00000928 ffffffff       5074 	.byte	255,255,255,255
0000092c bcd6d452       5075 	.byte	188,214,212,82
00000930 f2311332       5076 	.byte	242,49,19,50
00000934 f3311332       5077 	.byte	243,49,19,50
00000938 333a533a       5078 	.byte	51,58,83,58
0000093c 533a533a       5079 	.byte	83,58,83,58
00000940 533a533a       5080 	.byte	83,58,83,58
00000944 533a533a       5081 	.byte	83,58,83,58
00000948 533a533a       5082 	.byte	83,58,83,58
0000094c 533a1332       5083 	.byte	83,58,19,50
00000950 1332333a       5084 	.byte	19,50,51,58
00000954 533a533a       5085 	.byte	83,58,83,58
00000958 533a333a       5086 	.byte	83,58,51,58
0000095c 1332f331       5087 	.byte	19,50,243,49
00000960 13321332       5088 	.byte	19,50,19,50
00000964 13321332       5089 	.byte	19,50,19,50
00000968 13321332       5090 	.byte	19,50,19,50
0000096c 333a533a       5091 	.byte	51,58,83,58
00000970 333a1332       5092 	.byte	51,58,19,50
00000974 13321332       5093 	.byte	19,50,19,50
00000978 13321332       5094 	.byte	19,50,19,50
0000097c 333a333a       5095 	.byte	51,58,51,58
00000980 533a533a       5096 	.byte	83,58,83,58
00000984 533a533a       5097 	.byte	83,58,83,58
00000988 533a533a       5098 	.byte	83,58,83,58
0000098c 533a533a       5099 	.byte	83,58,83,58
00000990 533a333a       5100 	.byte	83,58,51,58
00000994 f3311332       5101 	.byte	243,49,19,50

                                                                      Page 97
                                                              C:\Users\NIKHIL~1.PAT\AppData\Local\Temp\gh_000aeoo1.s
00000998 f3311332       5102 	.byte	243,49,19,50
0000099c 333a333a       5103 	.byte	51,58,51,58
000009a0 533a533a       5104 	.byte	83,58,83,58
000009a4 533a533a       5105 	.byte	83,58,83,58
000009a8 533a533a       5106 	.byte	83,58,83,58
000009ac 533a533a       5107 	.byte	83,58,83,58
000009b0 533a333a       5108 	.byte	83,58,51,58
000009b4 13321332       5109 	.byte	19,50,19,50
000009b8 13321332       5110 	.byte	19,50,19,50
000009bc 13321332       5111 	.byte	19,50,19,50
000009c0 13321332       5112 	.byte	19,50,19,50
000009c4 333a533a       5113 	.byte	51,58,83,58
000009c8 533a533a       5114 	.byte	83,58,83,58
000009cc 333a1332       5115 	.byte	51,58,19,50
000009d0 13321332       5116 	.byte	19,50,19,50
000009d4 13321332       5117 	.byte	19,50,19,50
000009d8 13321332       5118 	.byte	19,50,19,50
000009dc 1332333a       5119 	.byte	19,50,51,58
000009e0 333a533a       5120 	.byte	51,58,83,58
000009e4 533a533a       5121 	.byte	83,58,83,58
000009e8 533a533a       5122 	.byte	83,58,83,58
000009ec 533a533a       5123 	.byte	83,58,83,58
000009f0 533a533a       5124 	.byte	83,58,83,58
000009f4 533a1332       5125 	.byte	83,58,19,50
000009f8 13321332       5126 	.byte	19,50,19,50
000009fc 13321232       5127 	.byte	19,50,18,50
00000a00 cc391332       5128 	.byte	204,57,19,50
00000a04 13321332       5129 	.byte	19,50,19,50
00000a08 944ab44a       5130 	.byte	148,74,180,74
00000a0c b229f231       5131 	.byte	178,41,242,49
00000a10 13321332       5132 	.byte	19,50,19,50
00000a14 13321332       5133 	.byte	19,50,19,50
00000a18 13321332       5134 	.byte	19,50,19,50
00000a1c 13321332       5135 	.byte	19,50,19,50
00000a20 f231f552       5136 	.byte	242,49,245,82
00000a24 bef7ffff       5137 	.byte	190,247,255,255
00000a28 ffffffff       5138 	.byte	255,255,255,255
00000a2c ffff5563       5139 	.byte	255,255,85,99
00000a30 f2311332       5140 	.byte	242,49,19,50
00000a34 9442d673       5141 	.byte	148,66,214,115
00000a38 5aa51bbe       5142 	.byte	90,165,27,190
00000a3c 7cce7cce       5143 	.byte	124,206,124,206
00000a40 7cce7cce       5144 	.byte	124,206,124,206
00000a44 7cce7cce       5145 	.byte	124,206,124,206
00000a48 7cce9cce       5146 	.byte	124,206,156,206
00000a4c fbbd7342       5147 	.byte	251,189,115,66
00000a50 f231177c       5148 	.byte	242,49,23,124
00000a54 7cce7cce       5149 	.byte	124,206,124,206
00000a58 5bc69aad       5150 	.byte	91,198,154,173
00000a5c d673333a       5151 	.byte	214,115,51,58
00000a60 f2311332       5152 	.byte	242,49,19,50
00000a64 13321332       5153 	.byte	19,50,19,50
00000a68 1332d229       5154 	.byte	19,50,210,41
00000a6c dbb57cce       5155 	.byte	219,181,124,206
00000a70 b894d229       5156 	.byte	184,148,210,41
00000a74 13321332       5157 	.byte	19,50,19,50
00000a78 333a355b       5158 	.byte	51,58,53,91
00000a7c b894dbb5       5159 	.byte	184,148,219,181
00000a80 5cc67cce       5160 	.byte	92,198,124,206
00000a84 7cce7cce       5161 	.byte	124,206,124,206
00000a88 7cce7cce       5162 	.byte	124,206,124,206

                                                                      Page 98
                                                              C:\Users\NIKHIL~1.PAT\AppData\Local\Temp\gh_000aeoo1.s
00000a8c 7cce7cce       5163 	.byte	124,206,124,206
00000a90 5cc67884       5164 	.byte	92,198,120,132
00000a94 d2291332       5165 	.byte	210,41,19,50
00000a98 7342b66b       5166 	.byte	115,66,182,107
00000a9c 39a5fbbd       5167 	.byte	57,165,251,189
00000aa0 5cc67cce       5168 	.byte	92,198,124,206
00000aa4 7cce7cce       5169 	.byte	124,206,124,206
00000aa8 7cce7cce       5170 	.byte	124,206,124,206
00000aac 7cce7cce       5171 	.byte	124,206,124,206
00000ab0 7cce5784       5172 	.byte	124,206,87,132
00000ab4 f2311332       5173 	.byte	242,49,19,50
00000ab8 13321332       5174 	.byte	19,50,19,50
00000abc 13321332       5175 	.byte	19,50,19,50
00000ac0 1332d452       5176 	.byte	19,50,212,82
00000ac4 399d3bc6       5177 	.byte	57,157,59,198
00000ac8 7cce7cce       5178 	.byte	124,206,124,206
00000acc f99c333a       5179 	.byte	249,156,51,58
00000ad0 f2311332       5180 	.byte	242,49,19,50
00000ad4 13321332       5181 	.byte	19,50,19,50
00000ad8 f231333a       5182 	.byte	242,49,51,58
00000adc 155bd894       5183 	.byte	21,91,216,148
00000ae0 dbb55bc6       5184 	.byte	219,181,91,198
00000ae4 7cce7cce       5185 	.byte	124,206,124,206
00000ae8 7cce7cce       5186 	.byte	124,206,124,206
00000aec 7cce7cce       5187 	.byte	124,206,124,206
00000af0 7cce9cce       5188 	.byte	124,206,156,206
00000af4 9aad333a       5189 	.byte	154,173,51,58
00000af8 13321332       5190 	.byte	19,50,19,50
00000afc 13321232       5191 	.byte	19,50,18,50
00000b00 cc391332       5192 	.byte	204,57,19,50
00000b04 13321332       5193 	.byte	19,50,19,50
00000b08 f231f231       5194 	.byte	242,49,242,49
00000b0c 13321332       5195 	.byte	19,50,19,50
00000b10 13321332       5196 	.byte	19,50,19,50
00000b14 13321332       5197 	.byte	19,50,19,50
00000b18 13321332       5198 	.byte	19,50,19,50
00000b1c 13321332       5199 	.byte	19,50,19,50
00000b20 f231155b       5200 	.byte	242,49,21,91
00000b24 7eefffff       5201 	.byte	126,239,255,255
00000b28 ffffffff       5202 	.byte	255,255,255,255
00000b2c 7eef355b       5203 	.byte	126,239,53,91
00000b30 d2291553       5204 	.byte	210,41,21,83
00000b34 bcd6ffff       5205 	.byte	188,214,255,255
00000b38 ffffffff       5206 	.byte	255,255,255,255
00000b3c 5ee71ddf       5207 	.byte	94,231,29,223
00000b40 1ddf1ddf       5208 	.byte	29,223,29,223
00000b44 1ddf1ddf       5209 	.byte	29,223,29,223
00000b48 1ddf5ee7       5210 	.byte	29,223,94,231
00000b4c b894333a       5211 	.byte	184,148,51,58
00000b50 f231d894       5212 	.byte	242,49,216,148
00000b54 ffffffff       5213 	.byte	255,255,255,255
00000b58 ffffffff       5214 	.byte	255,255,255,255
00000b5c ffff399d       5215 	.byte	255,255,57,157
00000b60 333af231       5216 	.byte	51,58,242,49
00000b64 13321332       5217 	.byte	19,50,19,50
00000b68 1332b229       5218 	.byte	19,50,178,41
00000b6c 5ee7ffff       5219 	.byte	94,231,255,255
00000b70 dbb5d229       5220 	.byte	219,181,210,41
00000b74 f231533a       5221 	.byte	242,49,83,58
00000b78 d994ffff       5222 	.byte	217,148,255,255
00000b7c ffffffff       5223 	.byte	255,255,255,255

                                                                      Page 99
                                                              C:\Users\NIKHIL~1.PAT\AppData\Local\Temp\gh_000aeoo1.s
00000b80 9ef73de7       5224 	.byte	158,247,61,231
00000b84 1ddf1ddf       5225 	.byte	29,223,29,223
00000b88 1ddf1ddf       5226 	.byte	29,223,29,223
00000b8c 1ddf1ddf       5227 	.byte	29,223,29,223
00000b90 7cce155b       5228 	.byte	124,206,21,91
00000b94 d229f452       5229 	.byte	210,41,244,82
00000b98 5cc6ffff       5230 	.byte	92,198,255,255
00000b9c ffffffff       5231 	.byte	255,255,255,255
00000ba0 9eef3de7       5232 	.byte	158,239,61,231
00000ba4 1ddf1ddf       5233 	.byte	29,223,29,223
00000ba8 1ddf1ddf       5234 	.byte	29,223,29,223
00000bac 1ddf3de7       5235 	.byte	29,223,61,231
00000bb0 5cce5663       5236 	.byte	92,206,86,99
00000bb4 d2291332       5237 	.byte	210,41,19,50
00000bb8 13321332       5238 	.byte	19,50,19,50
00000bbc 1332f231       5239 	.byte	19,50,242,49
00000bc0 155b9eef       5240 	.byte	21,91,158,239
00000bc4 ffffffff       5241 	.byte	255,255,255,255
00000bc8 ffffffff       5242 	.byte	255,255,255,255
00000bcc 9eef377c       5243 	.byte	158,239,55,124
00000bd0 d2311332       5244 	.byte	210,49,19,50
00000bd4 13321332       5245 	.byte	19,50,19,50
00000bd8 1332199d       5246 	.byte	19,50,25,157
00000bdc ffffffff       5247 	.byte	255,255,255,255
00000be0 ffffffff       5248 	.byte	255,255,255,255
00000be4 3ee71ddf       5249 	.byte	62,231,29,223
00000be8 1ddf1ddf       5250 	.byte	29,223,29,223
00000bec 1ddf1ddf       5251 	.byte	29,223,29,223
00000bf0 1ddf5ee7       5252 	.byte	29,223,94,231
00000bf4 377c1332       5253 	.byte	55,124,19,50
00000bf8 13321332       5254 	.byte	19,50,19,50
00000bfc 13321232       5255 	.byte	19,50,18,50
00000c00 cc391332       5256 	.byte	204,57,19,50
00000c04 13321332       5257 	.byte	19,50,19,50
00000c08 13321332       5258 	.byte	19,50,19,50
00000c0c 13321332       5259 	.byte	19,50,19,50
00000c10 13321332       5260 	.byte	19,50,19,50
00000c14 13321332       5261 	.byte	19,50,19,50
00000c18 13321332       5262 	.byte	19,50,19,50
00000c1c 1332f231       5263 	.byte	19,50,242,49
00000c20 5342399d       5264 	.byte	83,66,57,157
00000c24 ffffffff       5265 	.byte	255,255,255,255
00000c28 ffffffff       5266 	.byte	255,255,255,255
00000c2c 39a55342       5267 	.byte	57,165,83,66
00000c30 f2319cd6       5268 	.byte	242,49,156,214
00000c34 ffffffff       5269 	.byte	255,255,255,255
00000c38 ffff1bbe       5270 	.byte	255,255,27,190
00000c3c 155b7342       5271 	.byte	21,91,115,66
00000c40 73427342       5272 	.byte	115,66,115,66
00000c44 73427342       5273 	.byte	115,66,115,66
00000c48 73425342       5274 	.byte	115,66,83,66
00000c4c f231f331       5275 	.byte	242,49,243,49
00000c50 f231d894       5276 	.byte	242,49,216,148
00000c54 ffffffff       5277 	.byte	255,255,255,255
00000c58 dff7ffff       5278 	.byte	223,247,255,255
00000c5c ffffbff7       5279 	.byte	255,255,191,247
00000c60 b88c1332       5280 	.byte	184,140,19,50
00000c64 f2311332       5281 	.byte	242,49,19,50
00000c68 1332b229       5282 	.byte	19,50,178,41
00000c6c 3de7ffff       5283 	.byte	61,231,255,255
00000c70 bab5d229       5284 	.byte	186,181,210,41

                                                                      Page 100
                                                              C:\Users\NIKHIL~1.PAT\AppData\Local\Temp\gh_000aeoo1.s
00000c74 f331b66b       5285 	.byte	243,49,182,107
00000c78 ffffffff       5286 	.byte	255,255,255,255
00000c7c ffff1ddf       5287 	.byte	255,255,29,223
00000c80 377cb44a       5288 	.byte	55,124,180,74
00000c84 73427342       5289 	.byte	115,66,115,66
00000c88 73427342       5290 	.byte	115,66,115,66
00000c8c 73427342       5291 	.byte	115,66,115,66
00000c90 333ad229       5292 	.byte	51,58,210,41
00000c94 f231f99c       5293 	.byte	242,49,249,156
00000c98 ffffffff       5294 	.byte	255,255,255,255
00000c9c ffffffff       5295 	.byte	255,255,255,255
00000ca0 177c9442       5296 	.byte	23,124,148,66
00000ca4 53427342       5297 	.byte	83,66,115,66
00000ca8 73427342       5298 	.byte	115,66,115,66
00000cac 73427342       5299 	.byte	115,66,115,66
00000cb0 333af231       5300 	.byte	51,58,242,49
00000cb4 13321332       5301 	.byte	19,50,19,50
00000cb8 13321332       5302 	.byte	19,50,19,50
00000cbc f331333a       5303 	.byte	243,49,51,58
00000cc0 bcd6ffff       5304 	.byte	188,214,255,255
00000cc4 ffffbff7       5305 	.byte	255,255,191,247
00000cc8 dfffffff       5306 	.byte	223,255,255,255
00000ccc ffff7cce       5307 	.byte	255,255,124,206
00000cd0 b44af231       5308 	.byte	180,74,242,49
00000cd4 1332f231       5309 	.byte	19,50,242,49
00000cd8 355bffff       5310 	.byte	53,91,255,255
00000cdc ffffffff       5311 	.byte	255,255,255,255
00000ce0 ffff5cc6       5312 	.byte	255,255,92,198
00000ce4 b44a5342       5313 	.byte	180,74,83,66
00000ce8 73427342       5314 	.byte	115,66,115,66
00000cec 73427342       5315 	.byte	115,66,115,66
00000cf0 73425342       5316 	.byte	115,66,83,66
00000cf4 f2311332       5317 	.byte	242,49,19,50
00000cf8 13321332       5318 	.byte	19,50,19,50
00000cfc 13321232       5319 	.byte	19,50,18,50
00000d00 cc391332       5320 	.byte	204,57,19,50
00000d04 13321332       5321 	.byte	19,50,19,50
00000d08 13321332       5322 	.byte	19,50,19,50
00000d0c 13321332       5323 	.byte	19,50,19,50
00000d10 13321332       5324 	.byte	19,50,19,50
00000d14 13321332       5325 	.byte	19,50,19,50
00000d18 1332f231       5326 	.byte	19,50,242,49
00000d1c d229155b       5327 	.byte	210,41,21,91
00000d20 5aa5ffff       5328 	.byte	90,165,255,255
00000d24 ffffffff       5329 	.byte	255,255,255,255
00000d28 bef79aad       5330 	.byte	190,247,154,173
00000d2c b44ad229       5331 	.byte	180,74,210,41
00000d30 f5529eef       5332 	.byte	245,82,158,239
00000d34 ffffffff       5333 	.byte	255,255,255,255
00000d38 dff7f552       5334 	.byte	223,247,245,82
00000d3c 9229d229       5335 	.byte	146,41,210,41
00000d40 d229d229       5336 	.byte	210,41,210,41
00000d44 d229d229       5337 	.byte	210,41,210,41
00000d48 d229d229       5338 	.byte	210,41,210,41
00000d4c f2311332       5339 	.byte	242,49,19,50
00000d50 f231d894       5340 	.byte	242,49,216,148
00000d54 ffffbef7       5341 	.byte	255,255,190,247
00000d58 9aadffff       5342 	.byte	154,173,255,255
00000d5c ffffffff       5343 	.byte	255,255,255,255
00000d60 7eef177c       5344 	.byte	126,239,23,124
00000d64 1332f231       5345 	.byte	19,50,242,49

                                                                      Page 101
                                                              C:\Users\NIKHIL~1.PAT\AppData\Local\Temp\gh_000aeoo1.s
00000d68 1332b229       5346 	.byte	19,50,178,41
00000d6c 3de7ffff       5347 	.byte	61,231,255,255
00000d70 bab5d229       5348 	.byte	186,181,210,41
00000d74 533a399d       5349 	.byte	83,58,57,157
00000d78 ffffffff       5350 	.byte	255,255,255,255
00000d7c ffff199d       5351 	.byte	255,255,25,157
00000d80 f231d229       5352 	.byte	242,49,210,41
00000d84 d229d229       5353 	.byte	210,41,210,41
00000d88 d229d229       5354 	.byte	210,41,210,41
00000d8c d229d229       5355 	.byte	210,41,210,41
00000d90 d231f331       5356 	.byte	210,49,243,49
00000d94 133239a5       5357 	.byte	19,50,57,165
00000d98 ffffffff       5358 	.byte	255,255,255,255
00000d9c ffffffff       5359 	.byte	255,255,255,255
00000da0 b894155b       5360 	.byte	184,148,21,91
00000da4 333ab229       5361 	.byte	51,58,178,41
00000da8 d229f231       5362 	.byte	210,41,242,49
00000dac f231f231       5363 	.byte	242,49,242,49
00000db0 f2311332       5364 	.byte	242,49,19,50
00000db4 13321332       5365 	.byte	19,50,19,50
00000db8 13321332       5366 	.byte	19,50,19,50
00000dbc d229b88c       5367 	.byte	210,41,184,140
00000dc0 ffffffff       5368 	.byte	255,255,255,255
00000dc4 dfff199d       5369 	.byte	223,255,25,157
00000dc8 3bc6ffff       5370 	.byte	59,198,255,255
00000dcc ffffffff       5371 	.byte	255,255,255,255
00000dd0 d9941332       5372 	.byte	217,148,19,50
00000dd4 f231d231       5373 	.byte	242,49,210,49
00000dd8 b66bffff       5374 	.byte	182,107,255,255
00000ddc ffffffff       5375 	.byte	255,255,255,255
00000de0 ffff7cce       5376 	.byte	255,255,124,206
00000de4 76639442       5377 	.byte	118,99,148,66
00000de8 d229b229       5378 	.byte	210,41,178,41
00000dec d231f231       5379 	.byte	210,49,242,49
00000df0 f231f231       5380 	.byte	242,49,242,49
00000df4 13321332       5381 	.byte	19,50,19,50
00000df8 13321332       5382 	.byte	19,50,19,50
00000dfc 13321232       5383 	.byte	19,50,18,50
00000e00 cc391332       5384 	.byte	204,57,19,50
00000e04 13321332       5385 	.byte	19,50,19,50
00000e08 1332f231       5386 	.byte	19,50,242,49
00000e0c d229d229       5387 	.byte	210,41,210,41
00000e10 d229d229       5388 	.byte	210,41,210,41
00000e14 d2311332       5389 	.byte	210,49,19,50
00000e18 f3317342       5390 	.byte	243,49,115,66
00000e1c b88cbcd6       5391 	.byte	184,140,188,214
00000e20 ffffffff       5392 	.byte	255,255,255,255
00000e24 bff75cc6       5393 	.byte	191,247,92,198
00000e28 3784533a       5394 	.byte	55,132,83,58
00000e2c d231d229       5395 	.byte	210,49,210,41
00000e30 966b9eef       5396 	.byte	150,107,158,239
00000e34 ffffffff       5397 	.byte	255,255,255,255
00000e38 dff7966b       5398 	.byte	223,247,150,107
00000e3c f5521553       5399 	.byte	245,82,21,83
00000e40 15531553       5400 	.byte	21,83,21,83
00000e44 15531553       5401 	.byte	21,83,21,83
00000e48 f552355b       5402 	.byte	245,82,53,91
00000e4c 533a1332       5403 	.byte	83,58,19,50
00000e50 f231d894       5404 	.byte	242,49,216,148
00000e54 ffff7eef       5405 	.byte	255,255,126,239
00000e58 944adbb5       5406 	.byte	148,74,219,181

                                                                      Page 102
                                                              C:\Users\NIKHIL~1.PAT\AppData\Local\Temp\gh_000aeoo1.s
00000e5c ffffffff       5407 	.byte	255,255,255,255
00000e60 ffff1de7       5408 	.byte	255,255,29,231
00000e64 7663f231       5409 	.byte	118,99,242,49
00000e68 1332b229       5410 	.byte	19,50,178,41
00000e6c 3de7ffff       5411 	.byte	61,231,255,255
00000e70 bab5d229       5412 	.byte	186,181,210,41
00000e74 73429aad       5413 	.byte	115,66,154,173
00000e78 ffffffff       5414 	.byte	255,255,255,255
00000e7c ffff5aa5       5415 	.byte	255,255,90,165
00000e80 1553f552       5416 	.byte	21,83,245,82
00000e84 15531553       5417 	.byte	21,83,21,83
00000e88 15531553       5418 	.byte	21,83,21,83
00000e8c 15531553       5419 	.byte	21,83,21,83
00000e90 f452f231       5420 	.byte	244,82,242,49
00000e94 f231966b       5421 	.byte	242,49,150,107
00000e98 5ee7ffff       5422 	.byte	94,231,255,255
00000e9c ffffffff       5423 	.byte	255,255,255,255
00000ea0 fffffdde       5424 	.byte	255,255,253,222
00000ea4 9aad7884       5425 	.byte	154,173,120,132
00000ea8 5563333a       5426 	.byte	85,99,51,58
00000eac b229f231       5427 	.byte	178,41,242,49
00000eb0 13321332       5428 	.byte	19,50,19,50
00000eb4 13321332       5429 	.byte	19,50,19,50
00000eb8 1332f231       5430 	.byte	19,50,242,49
00000ebc f4527eef       5431 	.byte	244,82,126,239
00000ec0 ffffffff       5432 	.byte	255,255,255,255
00000ec4 9cce1332       5433 	.byte	156,206,19,50
00000ec8 b66bdfff       5434 	.byte	182,107,223,255
00000ecc ffffffff       5435 	.byte	255,255,255,255
00000ed0 3de75663       5436 	.byte	61,231,86,99
00000ed4 f231f231       5437 	.byte	242,49,242,49
00000ed8 533a5cc6       5438 	.byte	83,58,92,198
00000edc ffffffff       5439 	.byte	255,255,255,255
00000ee0 ffffffff       5440 	.byte	255,255,255,255
00000ee4 7eef1bbe       5441 	.byte	126,239,27,190
00000ee8 d994b66b       5442 	.byte	217,148,182,107
00000eec 9442d229       5443 	.byte	148,66,210,41
00000ef0 d229f231       5444 	.byte	210,41,242,49
00000ef4 13321332       5445 	.byte	19,50,19,50
00000ef8 13321332       5446 	.byte	19,50,19,50
00000efc 13321232       5447 	.byte	19,50,18,50
00000f00 cc391332       5448 	.byte	204,57,19,50
00000f04 13321332       5449 	.byte	19,50,19,50
00000f08 1332b44a       5450 	.byte	19,50,180,74
00000f0c 76635563       5451 	.byte	118,99,85,99
00000f10 55635563       5452 	.byte	85,99,85,99
00000f14 355b333a       5453 	.byte	53,91,51,58
00000f18 f231b66b       5454 	.byte	242,49,182,107
00000f1c ffffffff       5455 	.byte	255,255,255,255
00000f20 ffffffff       5456 	.byte	255,255,255,255
00000f24 3bc67342       5457 	.byte	59,198,115,66
00000f28 d229f231       5458 	.byte	210,41,242,49
00000f2c 1332d229       5459 	.byte	19,50,210,41
00000f30 966b9eef       5460 	.byte	150,107,158,239
00000f34 ffffffff       5461 	.byte	255,255,255,255
00000f38 ffff1ddf       5462 	.byte	255,255,29,223
00000f3c fddefdde       5463 	.byte	253,222,253,222
00000f40 fddefdde       5464 	.byte	253,222,253,222
00000f44 fddefdde       5465 	.byte	253,222,253,222
00000f48 fdde3bc6       5466 	.byte	253,222,59,198
00000f4c b44af331       5467 	.byte	180,74,243,49

                                                                      Page 103
                                                              C:\Users\NIKHIL~1.PAT\AppData\Local\Temp\gh_000aeoo1.s
00000f50 f231d894       5468 	.byte	242,49,216,148
00000f54 ffff7eef       5469 	.byte	255,255,126,239
00000f58 333ab44a       5470 	.byte	51,58,180,74
00000f5c 5cc6ffff       5471 	.byte	92,198,255,255
00000f60 ffffffff       5472 	.byte	255,255,255,255
00000f64 ddd6f552       5473 	.byte	221,214,245,82
00000f68 f231b229       5474 	.byte	242,49,178,41
00000f6c 3de7ffff       5475 	.byte	61,231,255,255
00000f70 bab5d229       5476 	.byte	186,181,210,41
00000f74 73429aad       5477 	.byte	115,66,154,173
00000f78 ffffffff       5478 	.byte	255,255,255,255
00000f7c ffff7eef       5479 	.byte	255,255,126,239
00000f80 fddefdde       5480 	.byte	253,222,253,222
00000f84 fddefdde       5481 	.byte	253,222,253,222
00000f88 fddefdde       5482 	.byte	253,222,253,222
00000f8c fddeddd6       5483 	.byte	253,222,221,214
00000f90 b88cd229       5484 	.byte	184,140,210,41
00000f94 f231133a       5485 	.byte	242,49,19,58
00000f98 b66b3bc6       5486 	.byte	182,107,59,198
00000f9c ffffffff       5487 	.byte	255,255,255,255
00000fa0 ffffffff       5488 	.byte	255,255,255,255
00000fa4 ffffdfff       5489 	.byte	255,255,223,255
00000fa8 dddedbb5       5490 	.byte	221,222,219,181
00000fac b88c1553       5491 	.byte	184,140,21,83
00000fb0 d229f231       5492 	.byte	210,41,242,49
00000fb4 13321332       5493 	.byte	19,50,19,50
00000fb8 f331f231       5494 	.byte	243,49,242,49
00000fbc 1bbeffff       5495 	.byte	27,190,255,255
00000fc0 ffffffff       5496 	.byte	255,255,255,255
00000fc4 7663d229       5497 	.byte	118,99,210,41
00000fc8 53429aad       5498 	.byte	83,66,154,173
00000fcc ffffffff       5499 	.byte	255,255,255,255
00000fd0 ffffbab5       5500 	.byte	255,255,186,181
00000fd4 7342f231       5501 	.byte	115,66,242,49
00000fd8 f231d452       5502 	.byte	242,49,212,82
00000fdc 5aa57eef       5503 	.byte	90,165,126,239
00000fe0 ffffffff       5504 	.byte	255,255,255,255
00000fe4 ffffffff       5505 	.byte	255,255,255,255
00000fe8 ffff5ee7       5506 	.byte	255,255,94,231
00000fec 5bc6399d       5507 	.byte	91,198,57,157
00000ff0 b66b1332       5508 	.byte	182,107,19,50
00000ff4 d2291332       5509 	.byte	210,41,19,50
00000ff8 13321332       5510 	.byte	19,50,19,50
00000ffc 13321232       5511 	.byte	19,50,18,50
00001000 cc391332       5512 	.byte	204,57,19,50
00001004 1332f331       5513 	.byte	19,50,243,49
00001008 333a988c       5514 	.byte	51,58,152,140
0000100c 5ee7fdde       5515 	.byte	94,231,253,222
00001010 fdde1ddf       5516 	.byte	253,222,29,223
00001014 5cc67442       5517 	.byte	92,198,116,66
00001018 f231b44a       5518 	.byte	242,49,180,74
0000101c 5eefffff       5519 	.byte	94,239,255,255
00001020 ffffffff       5520 	.byte	255,255,255,255
00001024 3bc61332       5521 	.byte	59,198,19,50
00001028 f2311332       5522 	.byte	242,49,19,50
0000102c 1332d229       5523 	.byte	19,50,210,41
00001030 966b9eef       5524 	.byte	150,107,158,239
00001034 ffffffff       5525 	.byte	255,255,255,255
00001038 ffff3bbe       5526 	.byte	255,255,59,190
0000103c dbb5dbb5       5527 	.byte	219,181,219,181
00001040 dbb5dbb5       5528 	.byte	219,181,219,181

                                                                      Page 104
                                                              C:\Users\NIKHIL~1.PAT\AppData\Local\Temp\gh_000aeoo1.s
00001044 dbb5dbb5       5529 	.byte	219,181,219,181
00001048 1bbe5784       5530 	.byte	27,190,87,132
0000104c 533af331       5531 	.byte	83,58,243,49
00001050 f231d894       5532 	.byte	242,49,216,148
00001054 ffff7eef       5533 	.byte	255,255,126,239
00001058 333af231       5534 	.byte	51,58,242,49
0000105c 355bddd6       5535 	.byte	53,91,221,214
00001060 ffffffff       5536 	.byte	255,255,255,255
00001064 ffff7cce       5537 	.byte	255,255,124,206
00001068 9442b229       5538 	.byte	148,66,178,41
0000106c 3de7ffff       5539 	.byte	61,231,255,255
00001070 bab5d229       5540 	.byte	186,181,210,41
00001074 73429aad       5541 	.byte	115,66,154,173
00001078 ffffffff       5542 	.byte	255,255,255,255
0000107c ffffddde       5543 	.byte	255,255,221,222
00001080 fbb5dbb5       5544 	.byte	251,181,219,181
00001084 dbb5dbb5       5545 	.byte	219,181,219,181
00001088 dbb5dbb5       5546 	.byte	219,181,219,181
0000108c dbb59aad       5547 	.byte	219,181,154,173
00001090 155bf231       5548 	.byte	21,91,242,49
00001094 1332f231       5549 	.byte	19,50,242,49
00001098 f231b44a       5550 	.byte	242,49,180,74
0000109c f7737aad       5551 	.byte	247,115,122,173
000010a0 1ddfffff       5552 	.byte	29,223,255,255
000010a4 ffffffff       5553 	.byte	255,255,255,255
000010a8 ffffffff       5554 	.byte	255,255,255,255
000010ac dff7ddde       5555 	.byte	223,247,221,222
000010b0 39a5b44a       5556 	.byte	57,165,180,74
000010b4 d2291332       5557 	.byte	210,41,19,50
000010b8 b229377c       5558 	.byte	178,41,55,124
000010bc bef7ffff       5559 	.byte	190,247,255,255
000010c0 ffffdbb5       5560 	.byte	255,255,219,181
000010c4 f2311332       5561 	.byte	242,49,19,50
000010c8 f2317663       5562 	.byte	242,49,118,99
000010cc 5eefffff       5563 	.byte	94,239,255,255
000010d0 ffffffff       5564 	.byte	255,255,255,255
000010d4 f7731332       5565 	.byte	247,115,19,50
000010d8 1332f231       5566 	.byte	19,50,242,49
000010dc 533a7663       5567 	.byte	83,58,118,99
000010e0 d8947cce       5568 	.byte	216,148,124,206
000010e4 ffffffff       5569 	.byte	255,255,255,255
000010e8 ffffffff       5570 	.byte	255,255,255,255
000010ec ffffffff       5571 	.byte	255,255,255,255
000010f0 3ee71bbe       5572 	.byte	62,231,27,190
000010f4 7663f231       5573 	.byte	118,99,242,49
000010f8 13321332       5574 	.byte	19,50,19,50
000010fc 13321232       5575 	.byte	19,50,18,50
00001100 cc391332       5576 	.byte	204,57,19,50
00001104 1332f231       5577 	.byte	19,50,242,49
00001108 333a399d       5578 	.byte	51,58,57,157
0000110c ffffffff       5579 	.byte	255,255,255,255
00001110 ffffffff       5580 	.byte	255,255,255,255
00001114 5ee7944a       5581 	.byte	94,231,148,74
00001118 f331f231       5582 	.byte	243,49,242,49
0000111c 966bdff7       5583 	.byte	150,107,223,247
00001120 ffffffff       5584 	.byte	255,255,255,255
00001124 bef7988c       5585 	.byte	190,247,152,140
00001128 d2291332       5586 	.byte	210,41,19,50
0000112c 1332d229       5587 	.byte	19,50,210,41
00001130 966b9eef       5588 	.byte	150,107,158,239
00001134 ffffffff       5589 	.byte	255,255,255,255

                                                                      Page 105
                                                              C:\Users\NIKHIL~1.PAT\AppData\Local\Temp\gh_000aeoo1.s
00001138 dff7355b       5590 	.byte	223,247,53,91
0000113c 73427442       5591 	.byte	115,66,116,66
00001140 74427442       5592 	.byte	116,66,116,66
00001144 74427442       5593 	.byte	116,66,116,66
00001148 9442333a       5594 	.byte	148,66,51,58
0000114c 13321332       5595 	.byte	19,50,19,50
00001150 f231d894       5596 	.byte	242,49,216,148
00001154 ffff7eef       5597 	.byte	255,255,126,239
00001158 333af231       5598 	.byte	51,58,242,49
0000115c f231b66b       5599 	.byte	242,49,182,107
00001160 3de7ffff       5600 	.byte	61,231,255,255
00001164 ffffffff       5601 	.byte	255,255,255,255
00001168 fbbdf231       5602 	.byte	251,189,242,49
0000116c 3de7ffff       5603 	.byte	61,231,255,255
00001170 bab5d229       5604 	.byte	186,181,210,41
00001174 7342bab5       5605 	.byte	115,66,186,181
00001178 ffffffff       5606 	.byte	255,255,255,255
0000117c ffff199d       5607 	.byte	255,255,25,157
00001180 94427442       5608 	.byte	148,66,116,66
00001184 74427442       5609 	.byte	116,66,116,66
00001188 74427442       5610 	.byte	116,66,116,66
0000118c 74427342       5611 	.byte	116,66,115,66
00001190 f3311332       5612 	.byte	243,49,19,50
00001194 13321332       5613 	.byte	19,50,19,50
00001198 1332f231       5614 	.byte	19,50,242,49
0000119c f2317342       5615 	.byte	242,49,115,66
000011a0 f552b66b       5616 	.byte	245,82,182,107
000011a4 7aa53de7       5617 	.byte	122,165,61,231
000011a8 ffffffff       5618 	.byte	255,255,255,255
000011ac ffffffff       5619 	.byte	255,255,255,255
000011b0 ffff1bbe       5620 	.byte	255,255,27,190
000011b4 d452d229       5621 	.byte	212,82,210,41
000011b8 9442ddd6       5622 	.byte	148,66,221,214
000011bc ffffffff       5623 	.byte	255,255,255,255
000011c0 bff7b44a       5624 	.byte	191,247,180,74
000011c4 f2311332       5625 	.byte	242,49,19,50
000011c8 f231333a       5626 	.byte	242,49,51,58
000011cc 199dffff       5627 	.byte	25,157,255,255
000011d0 ffffffff       5628 	.byte	255,255,255,255
000011d4 fddeb44a       5629 	.byte	253,222,180,74
000011d8 f2311332       5630 	.byte	242,49,19,50
000011dc f231f231       5631 	.byte	242,49,242,49
000011e0 333ab44a       5632 	.byte	51,58,180,74
000011e4 5663b894       5633 	.byte	86,99,184,148
000011e8 9cceffff       5634 	.byte	156,206,255,255
000011ec ffffffff       5635 	.byte	255,255,255,255
000011f0 ffffffff       5636 	.byte	255,255,255,255
000011f4 5ee7966b       5637 	.byte	94,231,150,107
000011f8 13321332       5638 	.byte	19,50,19,50
000011fc 13321232       5639 	.byte	19,50,18,50
00001200 cc391332       5640 	.byte	204,57,19,50
00001204 1332f231       5641 	.byte	19,50,242,49
00001208 333a199d       5642 	.byte	51,58,25,157
0000120c ffffffff       5643 	.byte	255,255,255,255
00001210 ffffffff       5644 	.byte	255,255,255,255
00001214 3de7944a       5645 	.byte	61,231,148,74
00001218 f3311332       5646 	.byte	243,49,19,50
0000121c 1332b66b       5647 	.byte	19,50,182,107
00001220 dff7ffff       5648 	.byte	223,247,255,255
00001224 ffff3ee7       5649 	.byte	255,255,62,231
00001228 b66bb229       5650 	.byte	182,107,178,41

                                                                      Page 106
                                                              C:\Users\NIKHIL~1.PAT\AppData\Local\Temp\gh_000aeoo1.s
0000122c 1332f231       5651 	.byte	19,50,242,49
00001230 355b9eef       5652 	.byte	53,91,158,239
00001234 ffffffff       5653 	.byte	255,255,255,255
00001238 dff7b44a       5654 	.byte	223,247,180,74
0000123c f231f231       5655 	.byte	242,49,242,49
00001240 f231f231       5656 	.byte	242,49,242,49
00001244 f231f231       5657 	.byte	242,49,242,49
00001248 f231f331       5658 	.byte	242,49,243,49
0000124c 13321332       5659 	.byte	19,50,19,50
00001250 f231d894       5660 	.byte	242,49,216,148
00001254 ffff7eef       5661 	.byte	255,255,126,239
00001258 333af231       5662 	.byte	51,58,242,49
0000125c f231f231       5663 	.byte	242,49,242,49
00001260 57849eef       5664 	.byte	87,132,158,239
00001264 ffffffff       5665 	.byte	255,255,255,255
00001268 ffff199d       5666 	.byte	255,255,25,157
0000126c 5ee7ffff       5667 	.byte	94,231,255,255
00001270 bab5d229       5668 	.byte	186,181,210,41
00001274 53425aa5       5669 	.byte	83,66,90,165
00001278 ffffffff       5670 	.byte	255,255,255,255
0000127c ffffd994       5671 	.byte	255,255,217,148
00001280 1332f231       5672 	.byte	19,50,242,49
00001284 f231f231       5673 	.byte	242,49,242,49
00001288 f231f231       5674 	.byte	242,49,242,49
0000128c f231f231       5675 	.byte	242,49,242,49
00001290 13321332       5676 	.byte	19,50,19,50
00001294 13321332       5677 	.byte	19,50,19,50
00001298 13321332       5678 	.byte	19,50,19,50
0000129c 1332f231       5679 	.byte	19,50,242,49
000012a0 f231f331       5680 	.byte	242,49,243,49
000012a4 5342b44a       5681 	.byte	83,66,180,74
000012a8 966b7cce       5682 	.byte	150,107,124,206
000012ac ffffffff       5683 	.byte	255,255,255,255
000012b0 ffffffff       5684 	.byte	255,255,255,255
000012b4 788c7221       5685 	.byte	120,140,114,33
000012b8 5aa5dfff       5686 	.byte	90,165,223,255
000012bc ffffffff       5687 	.byte	255,255,255,255
000012c0 d994f231       5688 	.byte	217,148,242,49
000012c4 13321332       5689 	.byte	19,50,19,50
000012c8 1332f231       5690 	.byte	19,50,242,49
000012cc 355bddd6       5691 	.byte	53,91,221,214
000012d0 ffffffff       5692 	.byte	255,255,255,255
000012d4 fffff99c       5693 	.byte	255,255,249,156
000012d8 333a1332       5694 	.byte	51,58,19,50
000012dc 13321332       5695 	.byte	19,50,19,50
000012e0 f331f231       5696 	.byte	243,49,242,49
000012e4 f231333a       5697 	.byte	242,49,51,58
000012e8 9442155b       5698 	.byte	148,66,21,91
000012ec 7aadbef7       5699 	.byte	122,173,190,247
000012f0 ffffffff       5700 	.byte	255,255,255,255
000012f4 ffff7cce       5701 	.byte	255,255,124,206
000012f8 13321332       5702 	.byte	19,50,19,50
000012fc 13321232       5703 	.byte	19,50,18,50
00001300 cc391332       5704 	.byte	204,57,19,50
00001304 1332f231       5705 	.byte	19,50,242,49
00001308 333a199d       5706 	.byte	51,58,25,157
0000130c ffffffff       5707 	.byte	255,255,255,255
00001310 ffffffff       5708 	.byte	255,255,255,255
00001314 3de7944a       5709 	.byte	61,231,148,74
00001318 f3311332       5710 	.byte	243,49,19,50
0000131c 13321332       5711 	.byte	19,50,19,50

                                                                      Page 107
                                                              C:\Users\NIKHIL~1.PAT\AppData\Local\Temp\gh_000aeoo1.s
00001320 76637eef       5712 	.byte	118,99,126,239
00001324 ffffffff       5713 	.byte	255,255,255,255
00001328 fdde5563       5714 	.byte	253,222,85,99
0000132c d229f231       5715 	.byte	210,41,242,49
00001330 13323ee7       5716 	.byte	19,50,62,231
00001334 ffffffff       5717 	.byte	255,255,255,255
00001338 dffff994       5718 	.byte	223,255,249,148
0000133c 9221d229       5719 	.byte	146,33,210,41
00001340 d229d229       5720 	.byte	210,41,210,41
00001344 d229d229       5721 	.byte	210,41,210,41
00001348 d229d229       5722 	.byte	210,41,210,41
0000134c d229f231       5723 	.byte	210,41,242,49
00001350 f231d894       5724 	.byte	242,49,216,148
00001354 ffff7eef       5725 	.byte	255,255,126,239
00001358 333af231       5726 	.byte	51,58,242,49
0000135c 1332f231       5727 	.byte	19,50,242,49
00001360 f231199d       5728 	.byte	242,49,25,157
00001364 dff7ffff       5729 	.byte	223,247,255,255
00001368 ffffdff7       5730 	.byte	255,255,223,247
0000136c ffffffff       5731 	.byte	255,255,255,255
00001370 bab5d229       5732 	.byte	186,181,210,41
00001374 1332177c       5733 	.byte	19,50,23,124
00001378 ffffffff       5734 	.byte	255,255,255,255
0000137c ffff7cce       5735 	.byte	255,255,124,206
00001380 b44ab229       5736 	.byte	180,74,178,41
00001384 d229d229       5737 	.byte	210,41,210,41
00001388 d229d229       5738 	.byte	210,41,210,41
0000138c d229d229       5739 	.byte	210,41,210,41
00001390 d229d231       5740 	.byte	210,41,210,49
00001394 1332f231       5741 	.byte	19,50,242,49
00001398 d229d229       5742 	.byte	210,41,210,41
0000139c d229d229       5743 	.byte	210,41,210,41
000013a0 d229d229       5744 	.byte	210,41,210,41
000013a4 d229d229       5745 	.byte	210,41,210,41
000013a8 d2295563       5746 	.byte	210,41,85,99
000013ac ffffffff       5747 	.byte	255,255,255,255
000013b0 ffffffff       5748 	.byte	255,255,255,255
000013b4 788c5563       5749 	.byte	120,140,85,99
000013b8 3de7ffff       5750 	.byte	61,231,255,255
000013bc ffff3ee7       5751 	.byte	255,255,62,231
000013c0 533a1332       5752 	.byte	83,58,19,50
000013c4 f331d229       5753 	.byte	243,49,210,41
000013c8 d229d229       5754 	.byte	210,41,210,41
000013cc b229988c       5755 	.byte	178,41,152,140
000013d0 ffffffff       5756 	.byte	255,255,255,255
000013d4 ffffdfff       5757 	.byte	255,255,223,255
000013d8 1553d229       5758 	.byte	21,83,210,41
000013dc d229d229       5759 	.byte	210,41,210,41
000013e0 d229d229       5760 	.byte	210,41,210,41
000013e4 d229d229       5761 	.byte	210,41,210,41
000013e8 d229b229       5762 	.byte	210,41,178,41
000013ec b44abcd6       5763 	.byte	180,74,188,214
000013f0 ffffffff       5764 	.byte	255,255,255,255
000013f4 ffffddde       5765 	.byte	255,255,221,222
000013f8 13321332       5766 	.byte	19,50,19,50
000013fc 13321232       5767 	.byte	19,50,18,50
00001400 cc391332       5768 	.byte	204,57,19,50
00001404 1332f231       5769 	.byte	19,50,242,49
00001408 333a399d       5770 	.byte	51,58,57,157
0000140c ffffffff       5771 	.byte	255,255,255,255
00001410 ffffffff       5772 	.byte	255,255,255,255

                                                                      Page 108
                                                              C:\Users\NIKHIL~1.PAT\AppData\Local\Temp\gh_000aeoo1.s
00001414 3ee7944a       5773 	.byte	62,231,148,74
00001418 f3311332       5774 	.byte	243,49,19,50
0000141c 13321332       5775 	.byte	19,50,19,50
00001420 1332d452       5776 	.byte	19,50,212,82
00001424 7cceffff       5777 	.byte	124,206,255,255
00001428 fffffdde       5778 	.byte	255,255,253,222
0000142c 355bf231       5779 	.byte	53,91,242,49
00001430 d231f773       5780 	.byte	210,49,247,115
00001434 dff7ffff       5781 	.byte	223,247,255,255
00001438 ffffdfff       5782 	.byte	255,255,223,255
0000143c fddefbbd       5783 	.byte	253,222,251,189
00001440 dbb5fbbd       5784 	.byte	219,181,251,189
00001444 fbbdfbbd       5785 	.byte	251,189,251,189
00001448 fbbdfbbd       5786 	.byte	251,189,251,189
0000144c 3bc6d452       5787 	.byte	59,198,212,82
00001450 f231d894       5788 	.byte	242,49,216,148
00001454 ffff7eef       5789 	.byte	255,255,126,239
00001458 333af231       5790 	.byte	51,58,242,49
0000145c 13321332       5791 	.byte	19,50,19,50
00001460 f2311332       5792 	.byte	242,49,19,50
00001464 bab5ffff       5793 	.byte	186,181,255,255
00001468 ffffffff       5794 	.byte	255,255,255,255
0000146c ffffffff       5795 	.byte	255,255,255,255
00001470 bab5d229       5796 	.byte	186,181,210,41
00001474 f231b44a       5797 	.byte	242,49,180,74
00001478 1bbeffff       5798 	.byte	27,190,255,255
0000147c ffffffff       5799 	.byte	255,255,255,255
00001480 7eef5bc6       5800 	.byte	126,239,91,198
00001484 fbbdfbbd       5801 	.byte	251,189,251,189
00001488 fbbdfbbd       5802 	.byte	251,189,251,189
0000148c fbbdfbbd       5803 	.byte	251,189,251,189
00001490 fbbdf994       5804 	.byte	251,189,249,148
00001494 d229155b       5805 	.byte	210,41,21,91
00001498 7aadfbbd       5806 	.byte	122,173,251,189
0000149c fbbdfbbd       5807 	.byte	251,189,251,189
000014a0 fbbdfbbd       5808 	.byte	251,189,251,189
000014a4 fbbdfbbd       5809 	.byte	251,189,251,189
000014a8 5cc69eef       5810 	.byte	92,198,158,239
000014ac ffffffff       5811 	.byte	255,255,255,255
000014b0 ffffddd6       5812 	.byte	255,255,221,214
000014b4 7663dbb5       5813 	.byte	118,99,219,181
000014b8 ffffffff       5814 	.byte	255,255,255,255
000014bc ffffd673       5815 	.byte	255,255,214,115
000014c0 13321332       5816 	.byte	19,50,19,50
000014c4 7342dbb5       5817 	.byte	115,66,219,181
000014c8 fbbdfbbd       5818 	.byte	251,189,251,189
000014cc dbb55cce       5819 	.byte	219,181,92,206
000014d0 9ef7ffff       5820 	.byte	158,247,255,255
000014d4 ffffffff       5821 	.byte	255,255,255,255
000014d8 fddefbbd       5822 	.byte	253,222,251,189
000014dc fbbdfbbd       5823 	.byte	251,189,251,189
000014e0 fbbdfbbd       5824 	.byte	251,189,251,189
000014e4 fbbdfbbd       5825 	.byte	251,189,251,189
000014e8 dbb51bbe       5826 	.byte	219,181,27,190
000014ec 3de7ffff       5827 	.byte	61,231,255,255
000014f0 ffffffff       5828 	.byte	255,255,255,255
000014f4 ffff177c       5829 	.byte	255,255,23,124
000014f8 13321332       5830 	.byte	19,50,19,50
000014fc 13321232       5831 	.byte	19,50,18,50
00001500 cc391332       5832 	.byte	204,57,19,50
00001504 13321332       5833 	.byte	19,50,19,50

                                                                      Page 109
                                                              C:\Users\NIKHIL~1.PAT\AppData\Local\Temp\gh_000aeoo1.s
00001508 133a966b       5834 	.byte	19,58,150,107
0000150c 59a5199d       5835 	.byte	89,165,25,157
00001510 199d399d       5836 	.byte	25,157,57,157
00001514 b88c533a       5837 	.byte	184,140,83,58
00001518 13321332       5838 	.byte	19,50,19,50
0000151c 13321332       5839 	.byte	19,50,19,50
00001520 1332f231       5840 	.byte	19,50,242,49
00001524 5342199d       5841 	.byte	83,66,25,157
00001528 dff7ffff       5842 	.byte	223,247,255,255
0000152c 3de75563       5843 	.byte	61,231,85,99
00001530 1332f231       5844 	.byte	19,50,242,49
00001534 355bfbbd       5845 	.byte	53,91,251,189
00001538 9eefffff       5846 	.byte	158,239,255,255
0000153c ffffffff       5847 	.byte	255,255,255,255
00001540 ffffffff       5848 	.byte	255,255,255,255
00001544 ffffffff       5849 	.byte	255,255,255,255
00001548 ffffffff       5850 	.byte	255,255,255,255
0000154c 7cce7342       5851 	.byte	124,206,115,66
00001550 f231b894       5852 	.byte	242,49,184,148
00001554 ffff5eef       5853 	.byte	255,255,94,239
00001558 333af231       5854 	.byte	51,58,242,49
0000155c 13321332       5855 	.byte	19,50,19,50
00001560 1332f231       5856 	.byte	19,50,242,49
00001564 333a5aa5       5857 	.byte	51,58,90,165
00001568 bff7ffff       5858 	.byte	191,247,255,255
0000156c ffffdfff       5859 	.byte	255,255,223,255
00001570 baadd229       5860 	.byte	186,173,210,41
00001574 1332f231       5861 	.byte	19,50,242,49
00001578 7342b88c       5862 	.byte	115,66,184,140
0000157c 1ddfdfff       5863 	.byte	29,223,223,255
00001580 ffffffff       5864 	.byte	255,255,255,255
00001584 ffffffff       5865 	.byte	255,255,255,255
00001588 ffffffff       5866 	.byte	255,255,255,255
0000158c ffffffff       5867 	.byte	255,255,255,255
00001590 9eef7884       5868 	.byte	158,239,120,132
00001594 f2315aa5       5869 	.byte	242,49,90,165
00001598 ffffffff       5870 	.byte	255,255,255,255
0000159c ffffffff       5871 	.byte	255,255,255,255
000015a0 ffffffff       5872 	.byte	255,255,255,255
000015a4 ffffffff       5873 	.byte	255,255,255,255
000015a8 ffffffff       5874 	.byte	255,255,255,255
000015ac dfff5ee7       5875 	.byte	223,255,94,231
000015b0 5aa5944a       5876 	.byte	90,165,148,74
000015b4 57849eef       5877 	.byte	87,132,158,239
000015b8 ffffffff       5878 	.byte	255,255,255,255
000015bc 5cc6333a       5879 	.byte	92,198,51,58
000015c0 13321332       5880 	.byte	19,50,19,50
000015c4 199dffff       5881 	.byte	25,157,255,255
000015c8 ffffffff       5882 	.byte	255,255,255,255
000015cc ffffffff       5883 	.byte	255,255,255,255
000015d0 ffffffff       5884 	.byte	255,255,255,255
000015d4 ffffffff       5885 	.byte	255,255,255,255
000015d8 ffffffff       5886 	.byte	255,255,255,255
000015dc ffffffff       5887 	.byte	255,255,255,255
000015e0 ffffffff       5888 	.byte	255,255,255,255
000015e4 ffffffff       5889 	.byte	255,255,255,255
000015e8 ffffffff       5890 	.byte	255,255,255,255
000015ec ffffffff       5891 	.byte	255,255,255,255
000015f0 bef75cc6       5892 	.byte	190,247,92,198
000015f4 966b1332       5893 	.byte	150,107,19,50
000015f8 13321332       5894 	.byte	19,50,19,50

                                                                      Page 110
                                                              C:\Users\NIKHIL~1.PAT\AppData\Local\Temp\gh_000aeoo1.s
000015fc 13321232       5895 	.byte	19,50,18,50
00001600 cc391332       5896 	.byte	204,57,19,50
00001604 13321332       5897 	.byte	19,50,19,50
00001608 1332f231       5898 	.byte	19,50,242,49
0000160c f231f231       5899 	.byte	242,49,242,49
00001610 f231f231       5900 	.byte	242,49,242,49
00001614 f2311332       5901 	.byte	242,49,19,50
00001618 13321332       5902 	.byte	19,50,19,50
0000161c 13321332       5903 	.byte	19,50,19,50
00001620 13321332       5904 	.byte	19,50,19,50
00001624 f331d231       5905 	.byte	243,49,210,49
00001628 76639cce       5906 	.byte	118,99,156,206
0000162c ffffbef7       5907 	.byte	255,255,190,247
00001630 f773333a       5908 	.byte	247,115,51,58
00001634 f231d229       5909 	.byte	242,49,210,41
00001638 d229533a       5910 	.byte	210,41,83,58
0000163c 944a944a       5911 	.byte	148,74,148,74
00001640 944a944a       5912 	.byte	148,74,148,74
00001644 944a944a       5913 	.byte	148,74,148,74
00001648 944ab44a       5914 	.byte	148,74,180,74
0000164c 133a1332       5915 	.byte	19,58,19,50
00001650 1332533a       5916 	.byte	19,50,83,58
00001654 b44a9442       5917 	.byte	180,74,148,66
00001658 13321332       5918 	.byte	19,50,19,50
0000165c 13321332       5919 	.byte	19,50,19,50
00001660 13321332       5920 	.byte	19,50,19,50
00001664 1332d229       5921 	.byte	19,50,210,41
00001668 13329442       5922 	.byte	19,50,148,66
0000166c 944a944a       5923 	.byte	148,74,148,74
00001670 5342f331       5924 	.byte	83,66,243,49
00001674 13321332       5925 	.byte	19,50,19,50
00001678 f331f231       5926 	.byte	243,49,242,49
0000167c d2291332       5927 	.byte	210,41,19,50
00001680 7442944a       5928 	.byte	116,66,148,74
00001684 944a944a       5929 	.byte	148,74,148,74
00001688 944a944a       5930 	.byte	148,74,148,74
0000168c 944a944a       5931 	.byte	148,74,148,74
00001690 7342f231       5932 	.byte	115,66,242,49
00001694 333a7442       5933 	.byte	51,58,116,66
00001698 944a944a       5934 	.byte	148,74,148,74
0000169c 944a944a       5935 	.byte	148,74,148,74
000016a0 944a944a       5936 	.byte	148,74,148,74
000016a4 944a944a       5937 	.byte	148,74,148,74
000016a8 944a9442       5938 	.byte	148,74,148,66
000016ac 133ad229       5939 	.byte	19,58,210,41
000016b0 d231f331       5940 	.byte	210,49,243,49
000016b4 7342b44a       5941 	.byte	115,66,180,74
000016b8 944ab44a       5942 	.byte	148,74,180,74
000016bc 333a1332       5943 	.byte	51,58,19,50
000016c0 13321332       5944 	.byte	19,50,19,50
000016c4 944a944a       5945 	.byte	148,74,148,74
000016c8 944a944a       5946 	.byte	148,74,148,74
000016cc 944a944a       5947 	.byte	148,74,148,74
000016d0 944a944a       5948 	.byte	148,74,148,74
000016d4 944a944a       5949 	.byte	148,74,148,74
000016d8 944a944a       5950 	.byte	148,74,148,74
000016dc 944a944a       5951 	.byte	148,74,148,74
000016e0 944a944a       5952 	.byte	148,74,148,74
000016e4 944a944a       5953 	.byte	148,74,148,74
000016e8 944a944a       5954 	.byte	148,74,148,74
000016ec 944a533a       5955 	.byte	148,74,83,58

                                                                      Page 111
                                                              C:\Users\NIKHIL~1.PAT\AppData\Local\Temp\gh_000aeoo1.s
000016f0 d231d229       5956 	.byte	210,49,210,41
000016f4 f2311332       5957 	.byte	242,49,19,50
000016f8 13321332       5958 	.byte	19,50,19,50
000016fc 13321232       5959 	.byte	19,50,18,50
00001700 cc391332       5960 	.byte	204,57,19,50
00001704 13321332       5961 	.byte	19,50,19,50
00001708 13321332       5962 	.byte	19,50,19,50
0000170c 13321332       5963 	.byte	19,50,19,50
00001710 13321332       5964 	.byte	19,50,19,50
00001714 13321332       5965 	.byte	19,50,19,50
00001718 13321332       5966 	.byte	19,50,19,50
0000171c 13321332       5967 	.byte	19,50,19,50
00001720 13321332       5968 	.byte	19,50,19,50
00001724 13321332       5969 	.byte	19,50,19,50
00001728 d2311332       5970 	.byte	210,49,19,50
0000172c 5884fdde       5971 	.byte	88,132,253,222
00001730 dfff199d       5972 	.byte	223,255,25,157
00001734 b44a1332       5973 	.byte	180,74,19,50
00001738 f231f231       5974 	.byte	242,49,242,49
0000173c f231f231       5975 	.byte	242,49,242,49
00001740 f231f231       5976 	.byte	242,49,242,49
00001744 f231f231       5977 	.byte	242,49,242,49
00001748 f231f231       5978 	.byte	242,49,242,49
0000174c f3311332       5979 	.byte	243,49,19,50
00001750 1332f331       5980 	.byte	19,50,243,49
00001754 f231f231       5981 	.byte	242,49,242,49
00001758 13321332       5982 	.byte	19,50,19,50
0000175c 13321332       5983 	.byte	19,50,19,50
00001760 13321332       5984 	.byte	19,50,19,50
00001764 13321332       5985 	.byte	19,50,19,50
00001768 f331f231       5986 	.byte	243,49,242,49
0000176c f231f231       5987 	.byte	242,49,242,49
00001770 f2311332       5988 	.byte	242,49,19,50
00001774 13321332       5989 	.byte	19,50,19,50
00001778 13321332       5990 	.byte	19,50,19,50
0000177c 1332f331       5991 	.byte	19,50,243,49
00001780 f231f231       5992 	.byte	242,49,242,49
00001784 f231f231       5993 	.byte	242,49,242,49
00001788 f231f231       5994 	.byte	242,49,242,49
0000178c f231f231       5995 	.byte	242,49,242,49
00001790 f2311332       5996 	.byte	242,49,19,50
00001794 1332f231       5997 	.byte	19,50,242,49
00001798 f231f231       5998 	.byte	242,49,242,49
0000179c f231f231       5999 	.byte	242,49,242,49
000017a0 f231f231       6000 	.byte	242,49,242,49
000017a4 f231f231       6001 	.byte	242,49,242,49
000017a8 f231f231       6002 	.byte	242,49,242,49
000017ac f3311332       6003 	.byte	243,49,19,50
000017b0 13321332       6004 	.byte	19,50,19,50
000017b4 f231f231       6005 	.byte	242,49,242,49
000017b8 f231f231       6006 	.byte	242,49,242,49
000017bc f3311332       6007 	.byte	243,49,19,50
000017c0 13321332       6008 	.byte	19,50,19,50
000017c4 f231f231       6009 	.byte	242,49,242,49
000017c8 f231f231       6010 	.byte	242,49,242,49
000017cc f231f231       6011 	.byte	242,49,242,49
000017d0 f231f231       6012 	.byte	242,49,242,49
000017d4 f231f231       6013 	.byte	242,49,242,49
000017d8 f231f231       6014 	.byte	242,49,242,49
000017dc f231f231       6015 	.byte	242,49,242,49
000017e0 f231f231       6016 	.byte	242,49,242,49

                                                                      Page 112
                                                              C:\Users\NIKHIL~1.PAT\AppData\Local\Temp\gh_000aeoo1.s
000017e4 f231f231       6017 	.byte	242,49,242,49
000017e8 f231f231       6018 	.byte	242,49,242,49
000017ec f231f231       6019 	.byte	242,49,242,49
000017f0 13321332       6020 	.byte	19,50,19,50
000017f4 13321332       6021 	.byte	19,50,19,50
000017f8 13321332       6022 	.byte	19,50,19,50
000017fc 13321232       6023 	.byte	19,50,18,50
00001800 cc391332       6024 	.byte	204,57,19,50
00001804 13321332       6025 	.byte	19,50,19,50
00001808 13321332       6026 	.byte	19,50,19,50
0000180c 13321332       6027 	.byte	19,50,19,50
00001810 13321332       6028 	.byte	19,50,19,50
00001814 13321332       6029 	.byte	19,50,19,50
00001818 13321332       6030 	.byte	19,50,19,50
0000181c 13321332       6031 	.byte	19,50,19,50
00001820 13321332       6032 	.byte	19,50,19,50
00001824 13321332       6033 	.byte	19,50,19,50
00001828 1332f331       6034 	.byte	19,50,243,49
0000182c b229133a       6035 	.byte	178,41,19,58
00001830 5784ddd6       6036 	.byte	87,132,221,214
00001834 fbb55563       6037 	.byte	251,181,85,99
00001838 9442f331       6038 	.byte	148,66,243,49
0000183c 13321332       6039 	.byte	19,50,19,50
00001840 13321332       6040 	.byte	19,50,19,50
00001844 13321332       6041 	.byte	19,50,19,50
00001848 13321332       6042 	.byte	19,50,19,50
0000184c 13321332       6043 	.byte	19,50,19,50
00001850 13321332       6044 	.byte	19,50,19,50
00001854 13321332       6045 	.byte	19,50,19,50
00001858 13321332       6046 	.byte	19,50,19,50
0000185c 13321332       6047 	.byte	19,50,19,50
00001860 13321332       6048 	.byte	19,50,19,50
00001864 13321332       6049 	.byte	19,50,19,50
00001868 13321332       6050 	.byte	19,50,19,50
0000186c 13321332       6051 	.byte	19,50,19,50
00001870 13321332       6052 	.byte	19,50,19,50
00001874 13321332       6053 	.byte	19,50,19,50
00001878 13321332       6054 	.byte	19,50,19,50
0000187c 13321332       6055 	.byte	19,50,19,50
00001880 13321332       6056 	.byte	19,50,19,50
00001884 13321332       6057 	.byte	19,50,19,50
00001888 13321332       6058 	.byte	19,50,19,50
0000188c 13321332       6059 	.byte	19,50,19,50
00001890 13321332       6060 	.byte	19,50,19,50
00001894 13321332       6061 	.byte	19,50,19,50
00001898 13321332       6062 	.byte	19,50,19,50
0000189c 13321332       6063 	.byte	19,50,19,50
000018a0 13321332       6064 	.byte	19,50,19,50
000018a4 13321332       6065 	.byte	19,50,19,50
000018a8 13321332       6066 	.byte	19,50,19,50
000018ac 13321332       6067 	.byte	19,50,19,50
000018b0 13321332       6068 	.byte	19,50,19,50
000018b4 13321332       6069 	.byte	19,50,19,50
000018b8 13321332       6070 	.byte	19,50,19,50
000018bc 13321332       6071 	.byte	19,50,19,50
000018c0 13321332       6072 	.byte	19,50,19,50
000018c4 13321332       6073 	.byte	19,50,19,50
000018c8 13321332       6074 	.byte	19,50,19,50
000018cc 13321332       6075 	.byte	19,50,19,50
000018d0 13321332       6076 	.byte	19,50,19,50
000018d4 13321332       6077 	.byte	19,50,19,50

                                                                      Page 113
                                                              C:\Users\NIKHIL~1.PAT\AppData\Local\Temp\gh_000aeoo1.s
000018d8 13321332       6078 	.byte	19,50,19,50
000018dc 13321332       6079 	.byte	19,50,19,50
000018e0 13321332       6080 	.byte	19,50,19,50
000018e4 13321332       6081 	.byte	19,50,19,50
000018e8 13321332       6082 	.byte	19,50,19,50
000018ec 13321332       6083 	.byte	19,50,19,50
000018f0 13321332       6084 	.byte	19,50,19,50
000018f4 13321332       6085 	.byte	19,50,19,50
000018f8 13321332       6086 	.byte	19,50,19,50
000018fc 13321232       6087 	.byte	19,50,18,50
00001900 cc391332       6088 	.byte	204,57,19,50
00001904 13321332       6089 	.byte	19,50,19,50
00001908 13321332       6090 	.byte	19,50,19,50
0000190c 13321332       6091 	.byte	19,50,19,50
00001910 13321332       6092 	.byte	19,50,19,50
00001914 13321332       6093 	.byte	19,50,19,50
00001918 13321332       6094 	.byte	19,50,19,50
0000191c 13321332       6095 	.byte	19,50,19,50
00001920 13321332       6096 	.byte	19,50,19,50
00001924 13321332       6097 	.byte	19,50,19,50
00001928 13321332       6098 	.byte	19,50,19,50
0000192c 1332f231       6099 	.byte	19,50,242,49
00001930 d229d229       6100 	.byte	210,41,210,41
00001934 7663199d       6101 	.byte	118,99,25,157
00001938 b66bf231       6102 	.byte	182,107,242,49
0000193c 13321332       6103 	.byte	19,50,19,50
00001940 13321332       6104 	.byte	19,50,19,50
00001944 13321332       6105 	.byte	19,50,19,50
00001948 13321332       6106 	.byte	19,50,19,50
0000194c 13321332       6107 	.byte	19,50,19,50
00001950 13321332       6108 	.byte	19,50,19,50
00001954 13321332       6109 	.byte	19,50,19,50
00001958 13321332       6110 	.byte	19,50,19,50
0000195c 13321332       6111 	.byte	19,50,19,50
00001960 13321332       6112 	.byte	19,50,19,50
00001964 13321332       6113 	.byte	19,50,19,50
00001968 13321332       6114 	.byte	19,50,19,50
0000196c 13321332       6115 	.byte	19,50,19,50
00001970 13321332       6116 	.byte	19,50,19,50
00001974 13321332       6117 	.byte	19,50,19,50
00001978 13321332       6118 	.byte	19,50,19,50
0000197c 13321332       6119 	.byte	19,50,19,50
00001980 13321332       6120 	.byte	19,50,19,50
00001984 13321332       6121 	.byte	19,50,19,50
00001988 13321332       6122 	.byte	19,50,19,50
0000198c 13321332       6123 	.byte	19,50,19,50
00001990 13321332       6124 	.byte	19,50,19,50
00001994 13321332       6125 	.byte	19,50,19,50
00001998 13321332       6126 	.byte	19,50,19,50
0000199c 13321332       6127 	.byte	19,50,19,50
000019a0 13321332       6128 	.byte	19,50,19,50
000019a4 13321332       6129 	.byte	19,50,19,50
000019a8 13321332       6130 	.byte	19,50,19,50
000019ac 13321332       6131 	.byte	19,50,19,50
000019b0 13321332       6132 	.byte	19,50,19,50
000019b4 13321332       6133 	.byte	19,50,19,50
000019b8 13321332       6134 	.byte	19,50,19,50
000019bc 13321332       6135 	.byte	19,50,19,50
000019c0 13321332       6136 	.byte	19,50,19,50
000019c4 13321332       6137 	.byte	19,50,19,50
000019c8 13321332       6138 	.byte	19,50,19,50

                                                                      Page 114
                                                              C:\Users\NIKHIL~1.PAT\AppData\Local\Temp\gh_000aeoo1.s
000019cc 13321332       6139 	.byte	19,50,19,50
000019d0 13321332       6140 	.byte	19,50,19,50
000019d4 13321332       6141 	.byte	19,50,19,50
000019d8 13321332       6142 	.byte	19,50,19,50
000019dc 13321332       6143 	.byte	19,50,19,50
000019e0 13321332       6144 	.byte	19,50,19,50
000019e4 13321332       6145 	.byte	19,50,19,50
000019e8 13321332       6146 	.byte	19,50,19,50
000019ec 13321332       6147 	.byte	19,50,19,50
000019f0 13321332       6148 	.byte	19,50,19,50
000019f4 13321332       6149 	.byte	19,50,19,50
000019f8 13321332       6150 	.byte	19,50,19,50
000019fc 13321232       6151 	.byte	19,50,18,50
00001a00 cc391332       6152 	.byte	204,57,19,50
00001a04 13321332       6153 	.byte	19,50,19,50
00001a08 13321332       6154 	.byte	19,50,19,50
00001a0c 13321332       6155 	.byte	19,50,19,50
00001a10 13321332       6156 	.byte	19,50,19,50
00001a14 13321332       6157 	.byte	19,50,19,50
00001a18 13321332       6158 	.byte	19,50,19,50
00001a1c 13321332       6159 	.byte	19,50,19,50
00001a20 13321332       6160 	.byte	19,50,19,50
00001a24 13321332       6161 	.byte	19,50,19,50
00001a28 13321332       6162 	.byte	19,50,19,50
00001a2c 13321332       6163 	.byte	19,50,19,50
00001a30 1332f331       6164 	.byte	19,50,243,49
00001a34 d229b229       6165 	.byte	210,41,178,41
00001a38 f2311332       6166 	.byte	242,49,19,50
00001a3c 13321332       6167 	.byte	19,50,19,50
00001a40 13321332       6168 	.byte	19,50,19,50
00001a44 13321332       6169 	.byte	19,50,19,50
00001a48 13321332       6170 	.byte	19,50,19,50
00001a4c 13321332       6171 	.byte	19,50,19,50
00001a50 13321332       6172 	.byte	19,50,19,50
00001a54 13321332       6173 	.byte	19,50,19,50
00001a58 13321332       6174 	.byte	19,50,19,50
00001a5c 13321332       6175 	.byte	19,50,19,50
00001a60 13321332       6176 	.byte	19,50,19,50
00001a64 13321332       6177 	.byte	19,50,19,50
00001a68 13321332       6178 	.byte	19,50,19,50
00001a6c 13321332       6179 	.byte	19,50,19,50
00001a70 13321332       6180 	.byte	19,50,19,50
00001a74 13321332       6181 	.byte	19,50,19,50
00001a78 13321332       6182 	.byte	19,50,19,50
00001a7c 13321332       6183 	.byte	19,50,19,50
00001a80 13321332       6184 	.byte	19,50,19,50
00001a84 13321332       6185 	.byte	19,50,19,50
00001a88 13321332       6186 	.byte	19,50,19,50
00001a8c 13321332       6187 	.byte	19,50,19,50
00001a90 13321332       6188 	.byte	19,50,19,50
00001a94 13321332       6189 	.byte	19,50,19,50
00001a98 13321332       6190 	.byte	19,50,19,50
00001a9c 13321332       6191 	.byte	19,50,19,50
00001aa0 13321332       6192 	.byte	19,50,19,50
00001aa4 13321332       6193 	.byte	19,50,19,50
00001aa8 13321332       6194 	.byte	19,50,19,50
00001aac 13321332       6195 	.byte	19,50,19,50
00001ab0 13321332       6196 	.byte	19,50,19,50
00001ab4 13321332       6197 	.byte	19,50,19,50
00001ab8 13321332       6198 	.byte	19,50,19,50
00001abc 13321332       6199 	.byte	19,50,19,50

                                                                      Page 115
                                                              C:\Users\NIKHIL~1.PAT\AppData\Local\Temp\gh_000aeoo1.s
00001ac0 13321332       6200 	.byte	19,50,19,50
00001ac4 13321332       6201 	.byte	19,50,19,50
00001ac8 13321332       6202 	.byte	19,50,19,50
00001acc 13321332       6203 	.byte	19,50,19,50
00001ad0 13321332       6204 	.byte	19,50,19,50
00001ad4 13321332       6205 	.byte	19,50,19,50
00001ad8 13321332       6206 	.byte	19,50,19,50
00001adc 13321332       6207 	.byte	19,50,19,50
00001ae0 13321332       6208 	.byte	19,50,19,50
00001ae4 13321332       6209 	.byte	19,50,19,50
00001ae8 13321332       6210 	.byte	19,50,19,50
00001aec 13321332       6211 	.byte	19,50,19,50
00001af0 13321332       6212 	.byte	19,50,19,50
00001af4 13321332       6213 	.byte	19,50,19,50
00001af8 13321332       6214 	.byte	19,50,19,50
00001afc 13321232       6215 	.byte	19,50,18,50
00001b00 cc391332       6216 	.byte	204,57,19,50
00001b04 13321332       6217 	.byte	19,50,19,50
00001b08 13321332       6218 	.byte	19,50,19,50
00001b0c 13321332       6219 	.byte	19,50,19,50
00001b10 13321332       6220 	.byte	19,50,19,50
00001b14 13321332       6221 	.byte	19,50,19,50
00001b18 13321332       6222 	.byte	19,50,19,50
00001b1c 13321332       6223 	.byte	19,50,19,50
00001b20 13321332       6224 	.byte	19,50,19,50
00001b24 13321332       6225 	.byte	19,50,19,50
00001b28 13321332       6226 	.byte	19,50,19,50
00001b2c 13321332       6227 	.byte	19,50,19,50
00001b30 13321332       6228 	.byte	19,50,19,50
00001b34 13321332       6229 	.byte	19,50,19,50
00001b38 13321332       6230 	.byte	19,50,19,50
00001b3c 13321332       6231 	.byte	19,50,19,50
00001b40 13321332       6232 	.byte	19,50,19,50
00001b44 13321332       6233 	.byte	19,50,19,50
00001b48 13321332       6234 	.byte	19,50,19,50
00001b4c 13321332       6235 	.byte	19,50,19,50
00001b50 13321332       6236 	.byte	19,50,19,50
00001b54 13321332       6237 	.byte	19,50,19,50
00001b58 13321332       6238 	.byte	19,50,19,50
00001b5c 13321332       6239 	.byte	19,50,19,50
00001b60 13321332       6240 	.byte	19,50,19,50
00001b64 13321332       6241 	.byte	19,50,19,50
00001b68 13321332       6242 	.byte	19,50,19,50
00001b6c 13321332       6243 	.byte	19,50,19,50
00001b70 13321332       6244 	.byte	19,50,19,50
00001b74 13321332       6245 	.byte	19,50,19,50
00001b78 13321332       6246 	.byte	19,50,19,50
00001b7c 13321332       6247 	.byte	19,50,19,50
00001b80 13321332       6248 	.byte	19,50,19,50
00001b84 13321332       6249 	.byte	19,50,19,50
00001b88 13321332       6250 	.byte	19,50,19,50
00001b8c 13321332       6251 	.byte	19,50,19,50
00001b90 13321332       6252 	.byte	19,50,19,50
00001b94 13321332       6253 	.byte	19,50,19,50
00001b98 13321332       6254 	.byte	19,50,19,50
00001b9c 13321332       6255 	.byte	19,50,19,50
00001ba0 13321332       6256 	.byte	19,50,19,50
00001ba4 13321332       6257 	.byte	19,50,19,50
00001ba8 13321332       6258 	.byte	19,50,19,50
00001bac 13321332       6259 	.byte	19,50,19,50
00001bb0 13321332       6260 	.byte	19,50,19,50

                                                                      Page 116
                                                              C:\Users\NIKHIL~1.PAT\AppData\Local\Temp\gh_000aeoo1.s
00001bb4 13321332       6261 	.byte	19,50,19,50
00001bb8 13321332       6262 	.byte	19,50,19,50
00001bbc 13321332       6263 	.byte	19,50,19,50
00001bc0 13321332       6264 	.byte	19,50,19,50
00001bc4 13321332       6265 	.byte	19,50,19,50
00001bc8 13321332       6266 	.byte	19,50,19,50
00001bcc 13321332       6267 	.byte	19,50,19,50
00001bd0 13321332       6268 	.byte	19,50,19,50
00001bd4 13321332       6269 	.byte	19,50,19,50
00001bd8 13321332       6270 	.byte	19,50,19,50
00001bdc 13321332       6271 	.byte	19,50,19,50
00001be0 13321332       6272 	.byte	19,50,19,50
00001be4 13321332       6273 	.byte	19,50,19,50
00001be8 13321332       6274 	.byte	19,50,19,50
00001bec 13321332       6275 	.byte	19,50,19,50
00001bf0 13321332       6276 	.byte	19,50,19,50
00001bf4 13321332       6277 	.byte	19,50,19,50
00001bf8 13321332       6278 	.byte	19,50,19,50
00001bfc 13321232       6279 	.byte	19,50,18,50
00001c00 cc391332       6280 	.byte	204,57,19,50
00001c04 13321332       6281 	.byte	19,50,19,50
00001c08 13321332       6282 	.byte	19,50,19,50
00001c0c 13321332       6283 	.byte	19,50,19,50
00001c10 13321332       6284 	.byte	19,50,19,50
00001c14 13321332       6285 	.byte	19,50,19,50
00001c18 13321332       6286 	.byte	19,50,19,50
00001c1c 13321332       6287 	.byte	19,50,19,50
00001c20 13321332       6288 	.byte	19,50,19,50
00001c24 13321332       6289 	.byte	19,50,19,50
00001c28 13321332       6290 	.byte	19,50,19,50
00001c2c 13321332       6291 	.byte	19,50,19,50
00001c30 13321332       6292 	.byte	19,50,19,50
00001c34 13321332       6293 	.byte	19,50,19,50
00001c38 13321332       6294 	.byte	19,50,19,50
00001c3c 13321332       6295 	.byte	19,50,19,50
00001c40 13321332       6296 	.byte	19,50,19,50
00001c44 13321332       6297 	.byte	19,50,19,50
00001c48 13321332       6298 	.byte	19,50,19,50
00001c4c 13321332       6299 	.byte	19,50,19,50
00001c50 13321332       6300 	.byte	19,50,19,50
00001c54 13321332       6301 	.byte	19,50,19,50
00001c58 13321332       6302 	.byte	19,50,19,50
00001c5c 13321332       6303 	.byte	19,50,19,50
00001c60 13321332       6304 	.byte	19,50,19,50
00001c64 13321332       6305 	.byte	19,50,19,50
00001c68 13321332       6306 	.byte	19,50,19,50
00001c6c 13321332       6307 	.byte	19,50,19,50
00001c70 13321332       6308 	.byte	19,50,19,50
00001c74 13321332       6309 	.byte	19,50,19,50
00001c78 13321332       6310 	.byte	19,50,19,50
00001c7c 13321332       6311 	.byte	19,50,19,50
00001c80 13321332       6312 	.byte	19,50,19,50
00001c84 13321332       6313 	.byte	19,50,19,50
00001c88 13321332       6314 	.byte	19,50,19,50
00001c8c 13321332       6315 	.byte	19,50,19,50
00001c90 13321332       6316 	.byte	19,50,19,50
00001c94 13321332       6317 	.byte	19,50,19,50
00001c98 13321332       6318 	.byte	19,50,19,50
00001c9c 13321332       6319 	.byte	19,50,19,50
00001ca0 13321332       6320 	.byte	19,50,19,50
00001ca4 13321332       6321 	.byte	19,50,19,50

                                                                      Page 117
                                                              C:\Users\NIKHIL~1.PAT\AppData\Local\Temp\gh_000aeoo1.s
00001ca8 13321332       6322 	.byte	19,50,19,50
00001cac 13321332       6323 	.byte	19,50,19,50
00001cb0 13321332       6324 	.byte	19,50,19,50
00001cb4 13321332       6325 	.byte	19,50,19,50
00001cb8 13321332       6326 	.byte	19,50,19,50
00001cbc 13321332       6327 	.byte	19,50,19,50
00001cc0 13321332       6328 	.byte	19,50,19,50
00001cc4 13321332       6329 	.byte	19,50,19,50
00001cc8 13321332       6330 	.byte	19,50,19,50
00001ccc 13321332       6331 	.byte	19,50,19,50
00001cd0 13321332       6332 	.byte	19,50,19,50
00001cd4 13321332       6333 	.byte	19,50,19,50
00001cd8 13321332       6334 	.byte	19,50,19,50
00001cdc 13321332       6335 	.byte	19,50,19,50
00001ce0 13321332       6336 	.byte	19,50,19,50
00001ce4 13321332       6337 	.byte	19,50,19,50
00001ce8 13321332       6338 	.byte	19,50,19,50
00001cec 13321332       6339 	.byte	19,50,19,50
00001cf0 13321332       6340 	.byte	19,50,19,50
00001cf4 13321332       6341 	.byte	19,50,19,50
00001cf8 13321332       6342 	.byte	19,50,19,50
00001cfc 13321232       6343 	.byte	19,50,18,50
00001d00 cc391332       6344 	.byte	204,57,19,50
00001d04 13321332       6345 	.byte	19,50,19,50
00001d08 13321332       6346 	.byte	19,50,19,50
00001d0c 13321332       6347 	.byte	19,50,19,50
00001d10 13321332       6348 	.byte	19,50,19,50
00001d14 13321332       6349 	.byte	19,50,19,50
00001d18 13321332       6350 	.byte	19,50,19,50
00001d1c 13321332       6351 	.byte	19,50,19,50
00001d20 13321332       6352 	.byte	19,50,19,50
00001d24 13321332       6353 	.byte	19,50,19,50
00001d28 13321332       6354 	.byte	19,50,19,50
00001d2c 13321332       6355 	.byte	19,50,19,50
00001d30 13321332       6356 	.byte	19,50,19,50
00001d34 13321332       6357 	.byte	19,50,19,50
00001d38 13321332       6358 	.byte	19,50,19,50
00001d3c 13321332       6359 	.byte	19,50,19,50
00001d40 13321332       6360 	.byte	19,50,19,50
00001d44 13321332       6361 	.byte	19,50,19,50
00001d48 13321332       6362 	.byte	19,50,19,50
00001d4c 13321332       6363 	.byte	19,50,19,50
00001d50 13321332       6364 	.byte	19,50,19,50
00001d54 13321332       6365 	.byte	19,50,19,50
00001d58 13321332       6366 	.byte	19,50,19,50
00001d5c 13321332       6367 	.byte	19,50,19,50
00001d60 13321332       6368 	.byte	19,50,19,50
00001d64 13321332       6369 	.byte	19,50,19,50
00001d68 13321332       6370 	.byte	19,50,19,50
00001d6c 13321332       6371 	.byte	19,50,19,50
00001d70 13321332       6372 	.byte	19,50,19,50
00001d74 13321332       6373 	.byte	19,50,19,50
00001d78 13321332       6374 	.byte	19,50,19,50
00001d7c 13321332       6375 	.byte	19,50,19,50
00001d80 13321332       6376 	.byte	19,50,19,50
00001d84 13321332       6377 	.byte	19,50,19,50
00001d88 13321332       6378 	.byte	19,50,19,50
00001d8c 13321332       6379 	.byte	19,50,19,50
00001d90 13321332       6380 	.byte	19,50,19,50
00001d94 13321332       6381 	.byte	19,50,19,50
00001d98 13321332       6382 	.byte	19,50,19,50

                                                                      Page 118
                                                              C:\Users\NIKHIL~1.PAT\AppData\Local\Temp\gh_000aeoo1.s
00001d9c 13321332       6383 	.byte	19,50,19,50
00001da0 13321332       6384 	.byte	19,50,19,50
00001da4 13321332       6385 	.byte	19,50,19,50
00001da8 13321332       6386 	.byte	19,50,19,50
00001dac 13321332       6387 	.byte	19,50,19,50
00001db0 13321332       6388 	.byte	19,50,19,50
00001db4 13321332       6389 	.byte	19,50,19,50
00001db8 13321332       6390 	.byte	19,50,19,50
00001dbc 13321332       6391 	.byte	19,50,19,50
00001dc0 13321332       6392 	.byte	19,50,19,50
00001dc4 13321332       6393 	.byte	19,50,19,50
00001dc8 13321332       6394 	.byte	19,50,19,50
00001dcc 13321332       6395 	.byte	19,50,19,50
00001dd0 13321332       6396 	.byte	19,50,19,50
00001dd4 13321332       6397 	.byte	19,50,19,50
00001dd8 13321332       6398 	.byte	19,50,19,50
00001ddc 13321332       6399 	.byte	19,50,19,50
00001de0 13321332       6400 	.byte	19,50,19,50
00001de4 13321332       6401 	.byte	19,50,19,50
00001de8 13321332       6402 	.byte	19,50,19,50
00001dec 13321332       6403 	.byte	19,50,19,50
00001df0 13321332       6404 	.byte	19,50,19,50
00001df4 13321332       6405 	.byte	19,50,19,50
00001df8 13321332       6406 	.byte	19,50,19,50
00001dfc 13321232       6407 	.byte	19,50,18,50
00001e00 cc391332       6408 	.byte	204,57,19,50
00001e04 13321332       6409 	.byte	19,50,19,50
00001e08 13321332       6410 	.byte	19,50,19,50
00001e0c 13321332       6411 	.byte	19,50,19,50
00001e10 13321332       6412 	.byte	19,50,19,50
00001e14 13321332       6413 	.byte	19,50,19,50
00001e18 13321332       6414 	.byte	19,50,19,50
00001e1c 13321332       6415 	.byte	19,50,19,50
00001e20 13321332       6416 	.byte	19,50,19,50
00001e24 13321332       6417 	.byte	19,50,19,50
00001e28 13321332       6418 	.byte	19,50,19,50
00001e2c 13321332       6419 	.byte	19,50,19,50
00001e30 13321332       6420 	.byte	19,50,19,50
00001e34 13321332       6421 	.byte	19,50,19,50
00001e38 13321332       6422 	.byte	19,50,19,50
00001e3c 13321332       6423 	.byte	19,50,19,50
00001e40 13321332       6424 	.byte	19,50,19,50
00001e44 13321332       6425 	.byte	19,50,19,50
00001e48 13321332       6426 	.byte	19,50,19,50
00001e4c 13321332       6427 	.byte	19,50,19,50
00001e50 13321332       6428 	.byte	19,50,19,50
00001e54 13321332       6429 	.byte	19,50,19,50
00001e58 13321332       6430 	.byte	19,50,19,50
00001e5c 13321332       6431 	.byte	19,50,19,50
00001e60 13321332       6432 	.byte	19,50,19,50
00001e64 13321332       6433 	.byte	19,50,19,50
00001e68 13321332       6434 	.byte	19,50,19,50
00001e6c 13321332       6435 	.byte	19,50,19,50
00001e70 13321332       6436 	.byte	19,50,19,50
00001e74 13321332       6437 	.byte	19,50,19,50
00001e78 13321332       6438 	.byte	19,50,19,50
00001e7c 13321332       6439 	.byte	19,50,19,50
00001e80 13321332       6440 	.byte	19,50,19,50
00001e84 13321332       6441 	.byte	19,50,19,50
00001e88 13321332       6442 	.byte	19,50,19,50
00001e8c 13321332       6443 	.byte	19,50,19,50

                                                                      Page 119
                                                              C:\Users\NIKHIL~1.PAT\AppData\Local\Temp\gh_000aeoo1.s
00001e90 13321332       6444 	.byte	19,50,19,50
00001e94 13321332       6445 	.byte	19,50,19,50
00001e98 13321332       6446 	.byte	19,50,19,50
00001e9c 13321332       6447 	.byte	19,50,19,50
00001ea0 13321332       6448 	.byte	19,50,19,50
00001ea4 13321332       6449 	.byte	19,50,19,50
00001ea8 13321332       6450 	.byte	19,50,19,50
00001eac 13321332       6451 	.byte	19,50,19,50
00001eb0 13321332       6452 	.byte	19,50,19,50
00001eb4 13321332       6453 	.byte	19,50,19,50
00001eb8 13321332       6454 	.byte	19,50,19,50
00001ebc 13321332       6455 	.byte	19,50,19,50
00001ec0 13321332       6456 	.byte	19,50,19,50
00001ec4 13321332       6457 	.byte	19,50,19,50
00001ec8 13321332       6458 	.byte	19,50,19,50
00001ecc 13321332       6459 	.byte	19,50,19,50
00001ed0 13321332       6460 	.byte	19,50,19,50
00001ed4 13321332       6461 	.byte	19,50,19,50
00001ed8 13321332       6462 	.byte	19,50,19,50
00001edc 13321332       6463 	.byte	19,50,19,50
00001ee0 13321332       6464 	.byte	19,50,19,50
00001ee4 13321332       6465 	.byte	19,50,19,50
00001ee8 13321332       6466 	.byte	19,50,19,50
00001eec 13321332       6467 	.byte	19,50,19,50
00001ef0 13321332       6468 	.byte	19,50,19,50
00001ef4 13321332       6469 	.byte	19,50,19,50
00001ef8 13321332       6470 	.byte	19,50,19,50
00001efc 13321232       6471 	.byte	19,50,18,50
00001f00 cc391332       6472 	.byte	204,57,19,50
00001f04 13321332       6473 	.byte	19,50,19,50
00001f08 13321332       6474 	.byte	19,50,19,50
00001f0c 13321332       6475 	.byte	19,50,19,50
00001f10 13321332       6476 	.byte	19,50,19,50
00001f14 13321332       6477 	.byte	19,50,19,50
00001f18 13321332       6478 	.byte	19,50,19,50
00001f1c 13321332       6479 	.byte	19,50,19,50
00001f20 13321332       6480 	.byte	19,50,19,50
00001f24 13321332       6481 	.byte	19,50,19,50
00001f28 13321332       6482 	.byte	19,50,19,50
00001f2c 13321332       6483 	.byte	19,50,19,50
00001f30 13321332       6484 	.byte	19,50,19,50
00001f34 13321332       6485 	.byte	19,50,19,50
00001f38 13321332       6486 	.byte	19,50,19,50
00001f3c 13321332       6487 	.byte	19,50,19,50
00001f40 13321332       6488 	.byte	19,50,19,50
00001f44 13321332       6489 	.byte	19,50,19,50
00001f48 13321332       6490 	.byte	19,50,19,50
00001f4c 13321332       6491 	.byte	19,50,19,50
00001f50 13321332       6492 	.byte	19,50,19,50
00001f54 13321332       6493 	.byte	19,50,19,50
00001f58 13321332       6494 	.byte	19,50,19,50
00001f5c 13321332       6495 	.byte	19,50,19,50
00001f60 13321332       6496 	.byte	19,50,19,50
00001f64 13321332       6497 	.byte	19,50,19,50
00001f68 13321332       6498 	.byte	19,50,19,50
00001f6c 13321332       6499 	.byte	19,50,19,50
00001f70 13321332       6500 	.byte	19,50,19,50
00001f74 13321332       6501 	.byte	19,50,19,50
00001f78 13321332       6502 	.byte	19,50,19,50
00001f7c 13321332       6503 	.byte	19,50,19,50
00001f80 13321332       6504 	.byte	19,50,19,50

                                                                      Page 120
                                                              C:\Users\NIKHIL~1.PAT\AppData\Local\Temp\gh_000aeoo1.s
00001f84 13321332       6505 	.byte	19,50,19,50
00001f88 13321332       6506 	.byte	19,50,19,50
00001f8c 13321332       6507 	.byte	19,50,19,50
00001f90 13321332       6508 	.byte	19,50,19,50
00001f94 13321332       6509 	.byte	19,50,19,50
00001f98 13321332       6510 	.byte	19,50,19,50
00001f9c 13321332       6511 	.byte	19,50,19,50
00001fa0 13321332       6512 	.byte	19,50,19,50
00001fa4 13321332       6513 	.byte	19,50,19,50
00001fa8 13321332       6514 	.byte	19,50,19,50
00001fac 13321332       6515 	.byte	19,50,19,50
00001fb0 13321332       6516 	.byte	19,50,19,50
00001fb4 13321332       6517 	.byte	19,50,19,50
00001fb8 13321332       6518 	.byte	19,50,19,50
00001fbc 13321332       6519 	.byte	19,50,19,50
00001fc0 13321332       6520 	.byte	19,50,19,50
00001fc4 13321332       6521 	.byte	19,50,19,50
00001fc8 13321332       6522 	.byte	19,50,19,50
00001fcc 13321332       6523 	.byte	19,50,19,50
00001fd0 13321332       6524 	.byte	19,50,19,50
00001fd4 13321332       6525 	.byte	19,50,19,50
00001fd8 13321332       6526 	.byte	19,50,19,50
00001fdc 13321332       6527 	.byte	19,50,19,50
00001fe0 13321332       6528 	.byte	19,50,19,50
00001fe4 13321332       6529 	.byte	19,50,19,50
00001fe8 13321332       6530 	.byte	19,50,19,50
00001fec 13321332       6531 	.byte	19,50,19,50
00001ff0 13321332       6532 	.byte	19,50,19,50
00001ff4 13321332       6533 	.byte	19,50,19,50
00001ff8 13321332       6534 	.byte	19,50,19,50
00001ffc 13321232       6535 	.byte	19,50,18,50
00002000 cc391332       6536 	.byte	204,57,19,50
00002004 13321332       6537 	.byte	19,50,19,50
00002008 13321332       6538 	.byte	19,50,19,50
0000200c 13321332       6539 	.byte	19,50,19,50
00002010 13321332       6540 	.byte	19,50,19,50
00002014 13321332       6541 	.byte	19,50,19,50
00002018 13321332       6542 	.byte	19,50,19,50
0000201c 13321332       6543 	.byte	19,50,19,50
00002020 13321332       6544 	.byte	19,50,19,50
00002024 13321332       6545 	.byte	19,50,19,50
00002028 13321332       6546 	.byte	19,50,19,50
0000202c 13321332       6547 	.byte	19,50,19,50
00002030 13321332       6548 	.byte	19,50,19,50
00002034 13321332       6549 	.byte	19,50,19,50
00002038 13321332       6550 	.byte	19,50,19,50
0000203c 13321332       6551 	.byte	19,50,19,50
00002040 13321332       6552 	.byte	19,50,19,50
00002044 13321332       6553 	.byte	19,50,19,50
00002048 13321332       6554 	.byte	19,50,19,50
0000204c 13321332       6555 	.byte	19,50,19,50
00002050 13321332       6556 	.byte	19,50,19,50
00002054 13321332       6557 	.byte	19,50,19,50
00002058 13321332       6558 	.byte	19,50,19,50
0000205c 13321332       6559 	.byte	19,50,19,50
00002060 13321332       6560 	.byte	19,50,19,50
00002064 13321332       6561 	.byte	19,50,19,50
00002068 13321332       6562 	.byte	19,50,19,50
0000206c 13321332       6563 	.byte	19,50,19,50
00002070 13321332       6564 	.byte	19,50,19,50
00002074 13321332       6565 	.byte	19,50,19,50

                                                                      Page 121
                                                              C:\Users\NIKHIL~1.PAT\AppData\Local\Temp\gh_000aeoo1.s
00002078 13321332       6566 	.byte	19,50,19,50
0000207c 13321332       6567 	.byte	19,50,19,50
00002080 13321332       6568 	.byte	19,50,19,50
00002084 13321332       6569 	.byte	19,50,19,50
00002088 13321332       6570 	.byte	19,50,19,50
0000208c 13321332       6571 	.byte	19,50,19,50
00002090 13321332       6572 	.byte	19,50,19,50
00002094 13321332       6573 	.byte	19,50,19,50
00002098 13321332       6574 	.byte	19,50,19,50
0000209c 13321332       6575 	.byte	19,50,19,50
000020a0 13321332       6576 	.byte	19,50,19,50
000020a4 13321332       6577 	.byte	19,50,19,50
000020a8 13321332       6578 	.byte	19,50,19,50
000020ac 13321332       6579 	.byte	19,50,19,50
000020b0 13321332       6580 	.byte	19,50,19,50
000020b4 13321332       6581 	.byte	19,50,19,50
000020b8 13321332       6582 	.byte	19,50,19,50
000020bc 13321332       6583 	.byte	19,50,19,50
000020c0 13321332       6584 	.byte	19,50,19,50
000020c4 13321332       6585 	.byte	19,50,19,50
000020c8 13321332       6586 	.byte	19,50,19,50
000020cc 13321332       6587 	.byte	19,50,19,50
000020d0 13321332       6588 	.byte	19,50,19,50
000020d4 13321332       6589 	.byte	19,50,19,50
000020d8 13321332       6590 	.byte	19,50,19,50
000020dc 13321332       6591 	.byte	19,50,19,50
000020e0 13321332       6592 	.byte	19,50,19,50
000020e4 13321332       6593 	.byte	19,50,19,50
000020e8 13321332       6594 	.byte	19,50,19,50
000020ec 13321332       6595 	.byte	19,50,19,50
000020f0 13321332       6596 	.byte	19,50,19,50
000020f4 13321332       6597 	.byte	19,50,19,50
000020f8 13321332       6598 	.byte	19,50,19,50
000020fc 13321232       6599 	.byte	19,50,18,50
00002100 cc391332       6600 	.byte	204,57,19,50
00002104 13321332       6601 	.byte	19,50,19,50
00002108 13321332       6602 	.byte	19,50,19,50
0000210c 13321332       6603 	.byte	19,50,19,50
00002110 13321332       6604 	.byte	19,50,19,50
00002114 13321332       6605 	.byte	19,50,19,50
00002118 13321332       6606 	.byte	19,50,19,50
0000211c 13321332       6607 	.byte	19,50,19,50
00002120 13321332       6608 	.byte	19,50,19,50
00002124 13321332       6609 	.byte	19,50,19,50
00002128 13321332       6610 	.byte	19,50,19,50
0000212c 13321332       6611 	.byte	19,50,19,50
00002130 13321332       6612 	.byte	19,50,19,50
00002134 13321332       6613 	.byte	19,50,19,50
00002138 13321332       6614 	.byte	19,50,19,50
0000213c 13321332       6615 	.byte	19,50,19,50
00002140 13321332       6616 	.byte	19,50,19,50
00002144 13321332       6617 	.byte	19,50,19,50
00002148 13321332       6618 	.byte	19,50,19,50
0000214c 13321332       6619 	.byte	19,50,19,50
00002150 13321332       6620 	.byte	19,50,19,50
00002154 13321332       6621 	.byte	19,50,19,50
00002158 13321332       6622 	.byte	19,50,19,50
0000215c 13321332       6623 	.byte	19,50,19,50
00002160 13321332       6624 	.byte	19,50,19,50
00002164 13321332       6625 	.byte	19,50,19,50
00002168 13321332       6626 	.byte	19,50,19,50

                                                                      Page 122
                                                              C:\Users\NIKHIL~1.PAT\AppData\Local\Temp\gh_000aeoo1.s
0000216c 13321332       6627 	.byte	19,50,19,50
00002170 13321332       6628 	.byte	19,50,19,50
00002174 13321332       6629 	.byte	19,50,19,50
00002178 13321332       6630 	.byte	19,50,19,50
0000217c 13321332       6631 	.byte	19,50,19,50
00002180 13321332       6632 	.byte	19,50,19,50
00002184 13321332       6633 	.byte	19,50,19,50
00002188 13321332       6634 	.byte	19,50,19,50
0000218c 13321332       6635 	.byte	19,50,19,50
00002190 13321332       6636 	.byte	19,50,19,50
00002194 13321332       6637 	.byte	19,50,19,50
00002198 13321332       6638 	.byte	19,50,19,50
0000219c 13321332       6639 	.byte	19,50,19,50
000021a0 13321332       6640 	.byte	19,50,19,50
000021a4 13321332       6641 	.byte	19,50,19,50
000021a8 13321332       6642 	.byte	19,50,19,50
000021ac 13321332       6643 	.byte	19,50,19,50
000021b0 13321332       6644 	.byte	19,50,19,50
000021b4 13321332       6645 	.byte	19,50,19,50
000021b8 13321332       6646 	.byte	19,50,19,50
000021bc 13321332       6647 	.byte	19,50,19,50
000021c0 13321332       6648 	.byte	19,50,19,50
000021c4 13321332       6649 	.byte	19,50,19,50
000021c8 13321332       6650 	.byte	19,50,19,50
000021cc 13321332       6651 	.byte	19,50,19,50
000021d0 13321332       6652 	.byte	19,50,19,50
000021d4 13321332       6653 	.byte	19,50,19,50
000021d8 13321332       6654 	.byte	19,50,19,50
000021dc 13321332       6655 	.byte	19,50,19,50
000021e0 13321332       6656 	.byte	19,50,19,50
000021e4 13321332       6657 	.byte	19,50,19,50
000021e8 13321332       6658 	.byte	19,50,19,50
000021ec 13321332       6659 	.byte	19,50,19,50
000021f0 13321332       6660 	.byte	19,50,19,50
000021f4 13321332       6661 	.byte	19,50,19,50
000021f8 13321332       6662 	.byte	19,50,19,50
000021fc 13321232       6663 	.byte	19,50,18,50
00002200 cc391332       6664 	.byte	204,57,19,50
00002204 13321332       6665 	.byte	19,50,19,50
00002208 13321332       6666 	.byte	19,50,19,50
0000220c 13321332       6667 	.byte	19,50,19,50
00002210 13321332       6668 	.byte	19,50,19,50
00002214 13321332       6669 	.byte	19,50,19,50
00002218 13321332       6670 	.byte	19,50,19,50
0000221c 13321332       6671 	.byte	19,50,19,50
00002220 13321332       6672 	.byte	19,50,19,50
00002224 13321332       6673 	.byte	19,50,19,50
00002228 13321332       6674 	.byte	19,50,19,50
0000222c 13321332       6675 	.byte	19,50,19,50
00002230 13321332       6676 	.byte	19,50,19,50
00002234 13321332       6677 	.byte	19,50,19,50
00002238 13321332       6678 	.byte	19,50,19,50
0000223c 13321332       6679 	.byte	19,50,19,50
00002240 13321332       6680 	.byte	19,50,19,50
00002244 13321332       6681 	.byte	19,50,19,50
00002248 13321332       6682 	.byte	19,50,19,50
0000224c 13321332       6683 	.byte	19,50,19,50
00002250 13321332       6684 	.byte	19,50,19,50
00002254 13321332       6685 	.byte	19,50,19,50
00002258 13321332       6686 	.byte	19,50,19,50
0000225c 13321332       6687 	.byte	19,50,19,50

                                                                      Page 123
                                                              C:\Users\NIKHIL~1.PAT\AppData\Local\Temp\gh_000aeoo1.s
00002260 13321332       6688 	.byte	19,50,19,50
00002264 13321332       6689 	.byte	19,50,19,50
00002268 13321332       6690 	.byte	19,50,19,50
0000226c 13321332       6691 	.byte	19,50,19,50
00002270 13321332       6692 	.byte	19,50,19,50
00002274 13321332       6693 	.byte	19,50,19,50
00002278 13321332       6694 	.byte	19,50,19,50
0000227c 13321332       6695 	.byte	19,50,19,50
00002280 13321332       6696 	.byte	19,50,19,50
00002284 13321332       6697 	.byte	19,50,19,50
00002288 13321332       6698 	.byte	19,50,19,50
0000228c 13321332       6699 	.byte	19,50,19,50
00002290 13321332       6700 	.byte	19,50,19,50
00002294 13321332       6701 	.byte	19,50,19,50
00002298 13321332       6702 	.byte	19,50,19,50
0000229c 13321332       6703 	.byte	19,50,19,50
000022a0 13321332       6704 	.byte	19,50,19,50
000022a4 13321332       6705 	.byte	19,50,19,50
000022a8 13321332       6706 	.byte	19,50,19,50
000022ac 13321332       6707 	.byte	19,50,19,50
000022b0 13321332       6708 	.byte	19,50,19,50
000022b4 13321332       6709 	.byte	19,50,19,50
000022b8 ffffffff       6710 	.byte	255,255,255,255
000022bc 13321332       6711 	.byte	19,50,19,50
000022c0 13321332       6712 	.byte	19,50,19,50
000022c4 13321332       6713 	.byte	19,50,19,50
000022c8 13321332       6714 	.byte	19,50,19,50
000022cc 13321332       6715 	.byte	19,50,19,50
000022d0 13321332       6716 	.byte	19,50,19,50
000022d4 13321332       6717 	.byte	19,50,19,50
000022d8 13321332       6718 	.byte	19,50,19,50
000022dc 13321332       6719 	.byte	19,50,19,50
000022e0 13321332       6720 	.byte	19,50,19,50
000022e4 13321332       6721 	.byte	19,50,19,50
000022e8 13321332       6722 	.byte	19,50,19,50
000022ec 13321332       6723 	.byte	19,50,19,50
000022f0 13321332       6724 	.byte	19,50,19,50
000022f4 13321332       6725 	.byte	19,50,19,50
000022f8 13321332       6726 	.byte	19,50,19,50
000022fc 13321232       6727 	.byte	19,50,18,50
00002300 cc391332       6728 	.byte	204,57,19,50
00002304 13321332       6729 	.byte	19,50,19,50
00002308 13321332       6730 	.byte	19,50,19,50
0000230c 13321332       6731 	.byte	19,50,19,50
00002310 13321332       6732 	.byte	19,50,19,50
00002314 13321332       6733 	.byte	19,50,19,50
00002318 13321332       6734 	.byte	19,50,19,50
0000231c 13321332       6735 	.byte	19,50,19,50
00002320 13321332       6736 	.byte	19,50,19,50
00002324 ffffffff       6737 	.byte	255,255,255,255
00002328 ffffffff       6738 	.byte	255,255,255,255
0000232c ffffffff       6739 	.byte	255,255,255,255
00002330 13321332       6740 	.byte	19,50,19,50
00002334 13329442       6741 	.byte	19,50,148,66
00002338 7eefffff       6742 	.byte	126,239,255,255
0000233c 13321332       6743 	.byte	19,50,19,50
00002340 13321332       6744 	.byte	19,50,19,50
00002344 13321332       6745 	.byte	19,50,19,50
00002348 13321332       6746 	.byte	19,50,19,50
0000234c 13321332       6747 	.byte	19,50,19,50
00002350 13321332       6748 	.byte	19,50,19,50

                                                                      Page 124
                                                              C:\Users\NIKHIL~1.PAT\AppData\Local\Temp\gh_000aeoo1.s
00002354 13321332       6749 	.byte	19,50,19,50
00002358 13321332       6750 	.byte	19,50,19,50
0000235c 73427aad       6751 	.byte	115,66,122,173
00002360 5ee7bef7       6752 	.byte	94,231,190,247
00002364 7cc6f994       6753 	.byte	124,198,249,148
00002368 13321332       6754 	.byte	19,50,19,50
0000236c ffffffff       6755 	.byte	255,255,255,255
00002370 13321332       6756 	.byte	19,50,19,50
00002374 13321332       6757 	.byte	19,50,19,50
00002378 13321332       6758 	.byte	19,50,19,50
0000237c 13321332       6759 	.byte	19,50,19,50
00002380 13321332       6760 	.byte	19,50,19,50
00002384 13321332       6761 	.byte	19,50,19,50
00002388 13321332       6762 	.byte	19,50,19,50
0000238c 13321332       6763 	.byte	19,50,19,50
00002390 1332ffff       6764 	.byte	19,50,255,255
00002394 ffff1332       6765 	.byte	255,255,19,50
00002398 13321332       6766 	.byte	19,50,19,50
0000239c 13321332       6767 	.byte	19,50,19,50
000023a0 13321332       6768 	.byte	19,50,19,50
000023a4 13321332       6769 	.byte	19,50,19,50
000023a8 13321332       6770 	.byte	19,50,19,50
000023ac 13321332       6771 	.byte	19,50,19,50
000023b0 13321332       6772 	.byte	19,50,19,50
000023b4 13321332       6773 	.byte	19,50,19,50
000023b8 ffffffff       6774 	.byte	255,255,255,255
000023bc 13321332       6775 	.byte	19,50,19,50
000023c0 13321332       6776 	.byte	19,50,19,50
000023c4 13321332       6777 	.byte	19,50,19,50
000023c8 ffffffff       6778 	.byte	255,255,255,255
000023cc 13321332       6779 	.byte	19,50,19,50
000023d0 ffffffff       6780 	.byte	255,255,255,255
000023d4 13321332       6781 	.byte	19,50,19,50
000023d8 13321332       6782 	.byte	19,50,19,50
000023dc 13321332       6783 	.byte	19,50,19,50
000023e0 13321332       6784 	.byte	19,50,19,50
000023e4 13321332       6785 	.byte	19,50,19,50
000023e8 13321332       6786 	.byte	19,50,19,50
000023ec 13321332       6787 	.byte	19,50,19,50
000023f0 13321332       6788 	.byte	19,50,19,50
000023f4 13321332       6789 	.byte	19,50,19,50
000023f8 13321332       6790 	.byte	19,50,19,50
000023fc 13321232       6791 	.byte	19,50,18,50
00002400 cc391332       6792 	.byte	204,57,19,50
00002404 13321332       6793 	.byte	19,50,19,50
00002408 13321332       6794 	.byte	19,50,19,50
0000240c 13321332       6795 	.byte	19,50,19,50
00002410 13321332       6796 	.byte	19,50,19,50
00002414 13321332       6797 	.byte	19,50,19,50
00002418 13321332       6798 	.byte	19,50,19,50
0000241c 13321332       6799 	.byte	19,50,19,50
00002420 13321332       6800 	.byte	19,50,19,50
00002424 ffffffff       6801 	.byte	255,255,255,255
00002428 13321332       6802 	.byte	19,50,19,50
0000242c 13321332       6803 	.byte	19,50,19,50
00002430 13321332       6804 	.byte	19,50,19,50
00002434 1332ffff       6805 	.byte	19,50,255,255
00002438 ffffffff       6806 	.byte	255,255,255,255
0000243c 13321332       6807 	.byte	19,50,19,50
00002440 13321332       6808 	.byte	19,50,19,50
00002444 13321332       6809 	.byte	19,50,19,50

                                                                      Page 125
                                                              C:\Users\NIKHIL~1.PAT\AppData\Local\Temp\gh_000aeoo1.s
00002448 13321332       6810 	.byte	19,50,19,50
0000244c 13321332       6811 	.byte	19,50,19,50
00002450 13321332       6812 	.byte	19,50,19,50
00002454 13321332       6813 	.byte	19,50,19,50
00002458 13321332       6814 	.byte	19,50,19,50
0000245c 3bc6ffff       6815 	.byte	59,198,255,255
00002460 177c333a       6816 	.byte	23,124,51,58
00002464 7563bcd6       6817 	.byte	117,99,188,214
00002468 13321332       6818 	.byte	19,50,19,50
0000246c ffffffff       6819 	.byte	255,255,255,255
00002470 13321332       6820 	.byte	19,50,19,50
00002474 13321332       6821 	.byte	19,50,19,50
00002478 13321332       6822 	.byte	19,50,19,50
0000247c 13321332       6823 	.byte	19,50,19,50
00002480 13321332       6824 	.byte	19,50,19,50
00002484 13321332       6825 	.byte	19,50,19,50
00002488 13321332       6826 	.byte	19,50,19,50
0000248c 13321332       6827 	.byte	19,50,19,50
00002490 1332ffff       6828 	.byte	19,50,255,255
00002494 ffff1332       6829 	.byte	255,255,19,50
00002498 13321332       6830 	.byte	19,50,19,50
0000249c 13321332       6831 	.byte	19,50,19,50
000024a0 13321332       6832 	.byte	19,50,19,50
000024a4 13321332       6833 	.byte	19,50,19,50
000024a8 13321332       6834 	.byte	19,50,19,50
000024ac 13321332       6835 	.byte	19,50,19,50
000024b0 13321332       6836 	.byte	19,50,19,50
000024b4 13321332       6837 	.byte	19,50,19,50
000024b8 ffffffff       6838 	.byte	255,255,255,255
000024bc 13321332       6839 	.byte	19,50,19,50
000024c0 13321332       6840 	.byte	19,50,19,50
000024c4 13321332       6841 	.byte	19,50,19,50
000024c8 13321332       6842 	.byte	19,50,19,50
000024cc 13321332       6843 	.byte	19,50,19,50
000024d0 ffffffff       6844 	.byte	255,255,255,255
000024d4 13321332       6845 	.byte	19,50,19,50
000024d8 13321332       6846 	.byte	19,50,19,50
000024dc 13321332       6847 	.byte	19,50,19,50
000024e0 13321332       6848 	.byte	19,50,19,50
000024e4 13321332       6849 	.byte	19,50,19,50
000024e8 13321332       6850 	.byte	19,50,19,50
000024ec 13321332       6851 	.byte	19,50,19,50
000024f0 13321332       6852 	.byte	19,50,19,50
000024f4 13321332       6853 	.byte	19,50,19,50
000024f8 13321332       6854 	.byte	19,50,19,50
000024fc 13321232       6855 	.byte	19,50,18,50
00002500 cc391332       6856 	.byte	204,57,19,50
00002504 13321332       6857 	.byte	19,50,19,50
00002508 13321332       6858 	.byte	19,50,19,50
0000250c 13321332       6859 	.byte	19,50,19,50
00002510 13321332       6860 	.byte	19,50,19,50
00002514 13321332       6861 	.byte	19,50,19,50
00002518 13321332       6862 	.byte	19,50,19,50
0000251c 13321332       6863 	.byte	19,50,19,50
00002520 13321332       6864 	.byte	19,50,19,50
00002524 ffffffff       6865 	.byte	255,255,255,255
00002528 13321332       6866 	.byte	19,50,19,50
0000252c 13321332       6867 	.byte	19,50,19,50
00002530 13321332       6868 	.byte	19,50,19,50
00002534 13321332       6869 	.byte	19,50,19,50
00002538 ffffffff       6870 	.byte	255,255,255,255

                                                                      Page 126
                                                              C:\Users\NIKHIL~1.PAT\AppData\Local\Temp\gh_000aeoo1.s
0000253c 13321332       6871 	.byte	19,50,19,50
00002540 1332355b       6872 	.byte	19,50,53,91
00002544 ffffffff       6873 	.byte	255,255,255,255
00002548 155b355b       6874 	.byte	21,91,53,91
0000254c ffffffff       6875 	.byte	255,255,255,255
00002550 355b1332       6876 	.byte	53,91,19,50
00002554 13321332       6877 	.byte	19,50,19,50
00002558 13321332       6878 	.byte	19,50,19,50
0000255c bef7ffff       6879 	.byte	190,247,255,255
00002560 966b1332       6880 	.byte	150,107,19,50
00002564 13321332       6881 	.byte	19,50,19,50
00002568 1332ffff       6882 	.byte	19,50,255,255
0000256c ffffffff       6883 	.byte	255,255,255,255
00002570 ffffffff       6884 	.byte	255,255,255,255
00002574 13321332       6885 	.byte	19,50,19,50
00002578 5ee7bff7       6886 	.byte	94,231,191,247
0000257c bff7ddde       6887 	.byte	191,247,221,222
00002580 b66b1332       6888 	.byte	182,107,19,50
00002584 1332ffff       6889 	.byte	19,50,255,255
00002588 ffff7884       6890 	.byte	255,255,120,132
0000258c fddedfff       6891 	.byte	253,222,223,255
00002590 ffffffff       6892 	.byte	255,255,255,255
00002594 ffffffff       6893 	.byte	255,255,255,255
00002598 ffff1332       6894 	.byte	255,255,19,50
0000259c 333a59a5       6895 	.byte	51,58,89,165
000025a0 5ee7bef7       6896 	.byte	94,231,190,247
000025a4 9cce155b       6897 	.byte	156,206,21,91
000025a8 13321332       6898 	.byte	19,50,19,50
000025ac ffffffff       6899 	.byte	255,255,255,255
000025b0 7884fdde       6900 	.byte	120,132,253,222
000025b4 dfff1332       6901 	.byte	223,255,19,50
000025b8 ffffffff       6902 	.byte	255,255,255,255
000025bc 13327663       6903 	.byte	19,50,118,99
000025c0 7eef9aad       6904 	.byte	126,239,154,173
000025c4 13321332       6905 	.byte	19,50,19,50
000025c8 ffffffff       6906 	.byte	255,255,255,255
000025cc 1332ffff       6907 	.byte	19,50,255,255
000025d0 ffffffff       6908 	.byte	255,255,255,255
000025d4 ffffffff       6909 	.byte	255,255,255,255
000025d8 13321332       6910 	.byte	19,50,19,50
000025dc 13321332       6911 	.byte	19,50,19,50
000025e0 13321332       6912 	.byte	19,50,19,50
000025e4 13321332       6913 	.byte	19,50,19,50
000025e8 13321332       6914 	.byte	19,50,19,50
000025ec 13321332       6915 	.byte	19,50,19,50
000025f0 13321332       6916 	.byte	19,50,19,50
000025f4 13321332       6917 	.byte	19,50,19,50
000025f8 13321332       6918 	.byte	19,50,19,50
000025fc 13321232       6919 	.byte	19,50,18,50
00002600 cc391332       6920 	.byte	204,57,19,50
00002604 13321332       6921 	.byte	19,50,19,50
00002608 13321332       6922 	.byte	19,50,19,50
0000260c 13321332       6923 	.byte	19,50,19,50
00002610 13321332       6924 	.byte	19,50,19,50
00002614 13321332       6925 	.byte	19,50,19,50
00002618 13321332       6926 	.byte	19,50,19,50
0000261c 13321332       6927 	.byte	19,50,19,50
00002620 13321332       6928 	.byte	19,50,19,50
00002624 ffffffff       6929 	.byte	255,255,255,255
00002628 ffffffff       6930 	.byte	255,255,255,255
0000262c ffffffff       6931 	.byte	255,255,255,255

                                                                      Page 127
                                                              C:\Users\NIKHIL~1.PAT\AppData\Local\Temp\gh_000aeoo1.s
00002630 13321332       6932 	.byte	19,50,19,50
00002634 13321332       6933 	.byte	19,50,19,50
00002638 ffffffff       6934 	.byte	255,255,255,255
0000263c 13321332       6935 	.byte	19,50,19,50
00002640 13321332       6936 	.byte	19,50,19,50
00002644 dbb5ffff       6937 	.byte	219,181,255,255
00002648 b894b894       6938 	.byte	184,148,184,148
0000264c ffffdbb5       6939 	.byte	255,255,219,181
00002650 13321332       6940 	.byte	19,50,19,50
00002654 13321332       6941 	.byte	19,50,19,50
00002658 13321332       6942 	.byte	19,50,19,50
0000265c 7cceffff       6943 	.byte	124,206,255,255
00002660 ffff7eef       6944 	.byte	255,255,126,239
00002664 baad944a       6945 	.byte	186,173,148,74
00002668 13321332       6946 	.byte	19,50,19,50
0000266c ffffffff       6947 	.byte	255,255,255,255
00002670 13321332       6948 	.byte	19,50,19,50
00002674 13321332       6949 	.byte	19,50,19,50
00002678 13321332       6950 	.byte	19,50,19,50
0000267c 355bffff       6951 	.byte	53,91,255,255
00002680 5ee71332       6952 	.byte	94,231,19,50
00002684 1332ffff       6953 	.byte	19,50,255,255
00002688 ffffffff       6954 	.byte	255,255,255,255
0000268c ffffffff       6955 	.byte	255,255,255,255
00002690 1332ffff       6956 	.byte	19,50,255,255
00002694 ffff1332       6957 	.byte	255,255,19,50
00002698 13321332       6958 	.byte	19,50,19,50
0000269c 7aadffff       6959 	.byte	122,173,255,255
000026a0 7663155b       6960 	.byte	118,99,21,91
000026a4 ffffdcd6       6961 	.byte	255,255,220,214
000026a8 13321332       6962 	.byte	19,50,19,50
000026ac ffffffff       6963 	.byte	255,255,255,255
000026b0 ffffffff       6964 	.byte	255,255,255,255
000026b4 ffff1332       6965 	.byte	255,255,19,50
000026b8 ffffffff       6966 	.byte	255,255,255,255
000026bc 788cdfff       6967 	.byte	120,140,223,255
000026c0 9cce333a       6968 	.byte	156,206,51,58
000026c4 13321332       6969 	.byte	19,50,19,50
000026c8 ffffffff       6970 	.byte	255,255,255,255
000026cc 13321332       6971 	.byte	19,50,19,50
000026d0 ffffffff       6972 	.byte	255,255,255,255
000026d4 13321332       6973 	.byte	19,50,19,50
000026d8 13321332       6974 	.byte	19,50,19,50
000026dc 13321332       6975 	.byte	19,50,19,50
000026e0 13321332       6976 	.byte	19,50,19,50
000026e4 13321332       6977 	.byte	19,50,19,50
000026e8 13321332       6978 	.byte	19,50,19,50
000026ec 13321332       6979 	.byte	19,50,19,50
000026f0 13321332       6980 	.byte	19,50,19,50
000026f4 13321332       6981 	.byte	19,50,19,50
000026f8 13321332       6982 	.byte	19,50,19,50
000026fc 13321232       6983 	.byte	19,50,18,50
00002700 cc391332       6984 	.byte	204,57,19,50
00002704 13321332       6985 	.byte	19,50,19,50
00002708 13321332       6986 	.byte	19,50,19,50
0000270c 13321332       6987 	.byte	19,50,19,50
00002710 13321332       6988 	.byte	19,50,19,50
00002714 13321332       6989 	.byte	19,50,19,50
00002718 13321332       6990 	.byte	19,50,19,50
0000271c 13321332       6991 	.byte	19,50,19,50
00002720 13321332       6992 	.byte	19,50,19,50

                                                                      Page 128
                                                              C:\Users\NIKHIL~1.PAT\AppData\Local\Temp\gh_000aeoo1.s
00002724 ffffffff       6993 	.byte	255,255,255,255
00002728 13321332       6994 	.byte	19,50,19,50
0000272c 13321332       6995 	.byte	19,50,19,50
00002730 13321332       6996 	.byte	19,50,19,50
00002734 13321332       6997 	.byte	19,50,19,50
00002738 ffffffff       6998 	.byte	255,255,255,255
0000273c 13321332       6999 	.byte	19,50,19,50
00002740 13321332       7000 	.byte	19,50,19,50
00002744 b44adff7       7001 	.byte	180,74,223,247
00002748 fbbdfbbd       7002 	.byte	251,189,251,189
0000274c bff7b44a       7003 	.byte	191,247,180,74
00002750 13321332       7004 	.byte	19,50,19,50
00002754 13321332       7005 	.byte	19,50,19,50
00002758 13321332       7006 	.byte	19,50,19,50
0000275c 73425aa5       7007 	.byte	115,66,90,165
00002760 5ee7ffff       7008 	.byte	94,231,255,255
00002764 ffff9cce       7009 	.byte	255,255,156,206
00002768 13321332       7010 	.byte	19,50,19,50
0000276c ffffffff       7011 	.byte	255,255,255,255
00002770 13321332       7012 	.byte	19,50,19,50
00002774 1332b44a       7013 	.byte	19,50,180,74
00002778 dbb51ddf       7014 	.byte	219,181,29,223
0000277c 9ef7ffff       7015 	.byte	158,247,255,255
00002780 ffff1332       7016 	.byte	255,255,19,50
00002784 1332ffff       7017 	.byte	19,50,255,255
00002788 ffffb44a       7018 	.byte	255,255,180,74
0000278c 13321332       7019 	.byte	19,50,19,50
00002790 1332ffff       7020 	.byte	19,50,255,255
00002794 ffff1332       7021 	.byte	255,255,19,50
00002798 13321332       7022 	.byte	19,50,19,50
0000279c 7eefffff       7023 	.byte	126,239,255,255
000027a0 ffffffff       7024 	.byte	255,255,255,255
000027a4 ffffdfff       7025 	.byte	255,255,223,255
000027a8 13321332       7026 	.byte	19,50,19,50
000027ac ffffffff       7027 	.byte	255,255,255,255
000027b0 b44a1332       7028 	.byte	180,74,19,50
000027b4 13321332       7029 	.byte	19,50,19,50
000027b8 ffffffff       7030 	.byte	255,255,255,255
000027bc ffffffff       7031 	.byte	255,255,255,255
000027c0 b44a1332       7032 	.byte	180,74,19,50
000027c4 13321332       7033 	.byte	19,50,19,50
000027c8 ffffffff       7034 	.byte	255,255,255,255
000027cc 13321332       7035 	.byte	19,50,19,50
000027d0 ffffffff       7036 	.byte	255,255,255,255
000027d4 13321332       7037 	.byte	19,50,19,50
000027d8 13321332       7038 	.byte	19,50,19,50
000027dc 13321332       7039 	.byte	19,50,19,50
000027e0 13321332       7040 	.byte	19,50,19,50
000027e4 13321332       7041 	.byte	19,50,19,50
000027e8 13321332       7042 	.byte	19,50,19,50
000027ec 13321332       7043 	.byte	19,50,19,50
000027f0 13321332       7044 	.byte	19,50,19,50
000027f4 13321332       7045 	.byte	19,50,19,50
000027f8 13321332       7046 	.byte	19,50,19,50
000027fc 13321232       7047 	.byte	19,50,18,50
00002800 cc391332       7048 	.byte	204,57,19,50
00002804 13321332       7049 	.byte	19,50,19,50
00002808 13321332       7050 	.byte	19,50,19,50
0000280c 13321332       7051 	.byte	19,50,19,50
00002810 13321332       7052 	.byte	19,50,19,50
00002814 13321332       7053 	.byte	19,50,19,50

                                                                      Page 129
                                                              C:\Users\NIKHIL~1.PAT\AppData\Local\Temp\gh_000aeoo1.s
00002818 13321332       7054 	.byte	19,50,19,50
0000281c 13321332       7055 	.byte	19,50,19,50
00002820 13321332       7056 	.byte	19,50,19,50
00002824 ffffffff       7057 	.byte	255,255,255,255
00002828 13321332       7058 	.byte	19,50,19,50
0000282c 13321332       7059 	.byte	19,50,19,50
00002830 13321332       7060 	.byte	19,50,19,50
00002834 13321332       7061 	.byte	19,50,19,50
00002838 ffffffff       7062 	.byte	255,255,255,255
0000283c 13321332       7063 	.byte	19,50,19,50
00002840 13321332       7064 	.byte	19,50,19,50
00002844 b44abff7       7065 	.byte	180,74,191,247
00002848 fbbdfbbd       7066 	.byte	251,189,251,189
0000284c dff7b44a       7067 	.byte	223,247,180,74
00002850 13321332       7068 	.byte	19,50,19,50
00002854 13321332       7069 	.byte	19,50,19,50
00002858 13321332       7070 	.byte	19,50,19,50
0000285c 13321332       7071 	.byte	19,50,19,50
00002860 13327663       7072 	.byte	19,50,118,99
00002864 ffffbef7       7073 	.byte	255,255,190,247
00002868 13321332       7074 	.byte	19,50,19,50
0000286c ffffffff       7075 	.byte	255,255,255,255
00002870 13321332       7076 	.byte	19,50,19,50
00002874 13321ddf       7077 	.byte	19,50,29,223
00002878 ffff5784       7078 	.byte	255,255,87,132
0000287c 7342ffff       7079 	.byte	115,66,255,255
00002880 ffff1332       7080 	.byte	255,255,19,50
00002884 1332ffff       7081 	.byte	19,50,255,255
00002888 ffff1332       7082 	.byte	255,255,19,50
0000288c 13321332       7083 	.byte	19,50,19,50
00002890 1332ffff       7084 	.byte	19,50,255,255
00002894 ffff1332       7085 	.byte	255,255,19,50
00002898 13321332       7086 	.byte	19,50,19,50
0000289c 7eefffff       7087 	.byte	126,239,255,255
000028a0 333a1332       7088 	.byte	51,58,19,50
000028a4 13321332       7089 	.byte	19,50,19,50
000028a8 13321332       7090 	.byte	19,50,19,50
000028ac ffffffff       7091 	.byte	255,255,255,255
000028b0 13321332       7092 	.byte	19,50,19,50
000028b4 13321332       7093 	.byte	19,50,19,50
000028b8 ffffffff       7094 	.byte	255,255,255,255
000028bc ffffffff       7095 	.byte	255,255,255,255
000028c0 d8941332       7096 	.byte	216,148,19,50
000028c4 13321332       7097 	.byte	19,50,19,50
000028c8 ffffffff       7098 	.byte	255,255,255,255
000028cc 13321332       7099 	.byte	19,50,19,50
000028d0 ffffffff       7100 	.byte	255,255,255,255
000028d4 13321332       7101 	.byte	19,50,19,50
000028d8 13321332       7102 	.byte	19,50,19,50
000028dc 13321332       7103 	.byte	19,50,19,50
000028e0 13321332       7104 	.byte	19,50,19,50
000028e4 13321332       7105 	.byte	19,50,19,50
000028e8 13321332       7106 	.byte	19,50,19,50
000028ec 13321332       7107 	.byte	19,50,19,50
000028f0 13321332       7108 	.byte	19,50,19,50
000028f4 13321332       7109 	.byte	19,50,19,50
000028f8 13321332       7110 	.byte	19,50,19,50
000028fc 13321232       7111 	.byte	19,50,18,50
00002900 cc391332       7112 	.byte	204,57,19,50
00002904 13321332       7113 	.byte	19,50,19,50
00002908 13321332       7114 	.byte	19,50,19,50

                                                                      Page 130
                                                              C:\Users\NIKHIL~1.PAT\AppData\Local\Temp\gh_000aeoo1.s
0000290c 13321332       7115 	.byte	19,50,19,50
00002910 13321332       7116 	.byte	19,50,19,50
00002914 13321332       7117 	.byte	19,50,19,50
00002918 13321332       7118 	.byte	19,50,19,50
0000291c 13321332       7119 	.byte	19,50,19,50
00002920 13321332       7120 	.byte	19,50,19,50
00002924 ffffffff       7121 	.byte	255,255,255,255
00002928 13321332       7122 	.byte	19,50,19,50
0000292c 13321332       7123 	.byte	19,50,19,50
00002930 13321332       7124 	.byte	19,50,19,50
00002934 13321332       7125 	.byte	19,50,19,50
00002938 ffffffff       7126 	.byte	255,255,255,255
0000293c 13321332       7127 	.byte	19,50,19,50
00002940 13321332       7128 	.byte	19,50,19,50
00002944 dbb5ffff       7129 	.byte	219,181,255,255
00002948 b88cb894       7130 	.byte	184,140,184,148
0000294c ffffdbb5       7131 	.byte	255,255,219,181
00002950 13321332       7132 	.byte	19,50,19,50
00002954 13321332       7133 	.byte	19,50,19,50
00002958 13321332       7134 	.byte	19,50,19,50
0000295c bcd67663       7135 	.byte	188,214,118,99
00002960 333ab66b       7136 	.byte	51,58,182,107
00002964 ffff1bbe       7137 	.byte	255,255,27,190
00002968 13321332       7138 	.byte	19,50,19,50
0000296c 7eefffff       7139 	.byte	126,239,255,255
00002970 155b1332       7140 	.byte	21,91,19,50
00002974 13329eef       7141 	.byte	19,50,158,239
00002978 ffffd452       7142 	.byte	255,255,212,82
0000297c 355bffff       7143 	.byte	53,91,255,255
00002980 ffff1332       7144 	.byte	255,255,19,50
00002984 1332ffff       7145 	.byte	19,50,255,255
00002988 ffff1332       7146 	.byte	255,255,19,50
0000298c 13321332       7147 	.byte	19,50,19,50
00002990 13327eef       7148 	.byte	19,50,126,239
00002994 ffff155b       7149 	.byte	255,255,21,91
00002998 13321332       7150 	.byte	19,50,19,50
0000299c 9aadffff       7151 	.byte	154,173,255,255
000029a0 7784333a       7152 	.byte	119,132,51,58
000029a4 d4527cc6       7153 	.byte	212,82,124,198
000029a8 13321332       7154 	.byte	19,50,19,50
000029ac ffffffff       7155 	.byte	255,255,255,255
000029b0 13321332       7156 	.byte	19,50,19,50
000029b4 13321332       7157 	.byte	19,50,19,50
000029b8 ffffffff       7158 	.byte	255,255,255,255
000029bc d6735ee7       7159 	.byte	214,115,94,231
000029c0 bef7b44a       7160 	.byte	190,247,180,74
000029c4 13321332       7161 	.byte	19,50,19,50
000029c8 ffffffff       7162 	.byte	255,255,255,255
000029cc 13321332       7163 	.byte	19,50,19,50
000029d0 7eefffff       7164 	.byte	126,239,255,255
000029d4 155b1332       7165 	.byte	21,91,19,50
000029d8 13321332       7166 	.byte	19,50,19,50
000029dc 13321332       7167 	.byte	19,50,19,50
000029e0 13321332       7168 	.byte	19,50,19,50
000029e4 13321332       7169 	.byte	19,50,19,50
000029e8 13321332       7170 	.byte	19,50,19,50
000029ec 13321332       7171 	.byte	19,50,19,50
000029f0 13321332       7172 	.byte	19,50,19,50
000029f4 13321332       7173 	.byte	19,50,19,50
000029f8 13321332       7174 	.byte	19,50,19,50
000029fc 13321232       7175 	.byte	19,50,18,50

                                                                      Page 131
                                                              C:\Users\NIKHIL~1.PAT\AppData\Local\Temp\gh_000aeoo1.s
00002a00 cc391332       7176 	.byte	204,57,19,50
00002a04 13321332       7177 	.byte	19,50,19,50
00002a08 13321332       7178 	.byte	19,50,19,50
00002a0c 13321332       7179 	.byte	19,50,19,50
00002a10 13321332       7180 	.byte	19,50,19,50
00002a14 13321332       7181 	.byte	19,50,19,50
00002a18 13321332       7182 	.byte	19,50,19,50
00002a1c 13321332       7183 	.byte	19,50,19,50
00002a20 13321332       7184 	.byte	19,50,19,50
00002a24 ffffffff       7185 	.byte	255,255,255,255
00002a28 13321332       7186 	.byte	19,50,19,50
00002a2c 13321332       7187 	.byte	19,50,19,50
00002a30 13321332       7188 	.byte	19,50,19,50
00002a34 1332ffff       7189 	.byte	19,50,255,255
00002a38 ffffffff       7190 	.byte	255,255,255,255
00002a3c ffff1332       7191 	.byte	255,255,19,50
00002a40 1332355b       7192 	.byte	19,50,53,91
00002a44 ffffffff       7193 	.byte	255,255,255,255
00002a48 155b355b       7194 	.byte	21,91,53,91
00002a4c ffffffff       7195 	.byte	255,255,255,255
00002a50 355b1332       7196 	.byte	53,91,19,50
00002a54 13321332       7197 	.byte	19,50,19,50
00002a58 13321332       7198 	.byte	19,50,19,50
00002a5c d8947cce       7199 	.byte	216,148,124,206
00002a60 bff75eef       7200 	.byte	191,247,94,239
00002a64 9aad7342       7201 	.byte	154,173,115,66
00002a68 13321332       7202 	.byte	19,50,19,50
00002a6c 377c3ee7       7203 	.byte	55,124,62,231
00002a70 dfff9ef7       7204 	.byte	223,255,158,247
00002a74 1332177c       7205 	.byte	19,50,23,124
00002a78 7eefffff       7206 	.byte	126,239,255,255
00002a7c 3bc6ffff       7207 	.byte	59,198,255,255
00002a80 ffff1332       7208 	.byte	255,255,19,50
00002a84 1332ffff       7209 	.byte	19,50,255,255
00002a88 ffff1332       7210 	.byte	255,255,19,50
00002a8c 13321332       7211 	.byte	19,50,19,50
00002a90 1332377c       7212 	.byte	19,50,55,124
00002a94 3ee7dfff       7213 	.byte	62,231,223,255
00002a98 9ef71332       7214 	.byte	158,247,19,50
00002a9c 333a399d       7215 	.byte	51,58,57,157
00002aa0 3de7bff7       7216 	.byte	61,231,191,247
00002aa4 9cced894       7217 	.byte	156,206,216,148
00002aa8 13321332       7218 	.byte	19,50,19,50
00002aac ffffffff       7219 	.byte	255,255,255,255
00002ab0 13321332       7220 	.byte	19,50,19,50
00002ab4 13321332       7221 	.byte	19,50,19,50
00002ab8 ffffffff       7222 	.byte	255,255,255,255
00002abc 1332f452       7223 	.byte	19,50,244,82
00002ac0 7eef1bbe       7224 	.byte	126,239,27,190
00002ac4 13321332       7225 	.byte	19,50,19,50
00002ac8 ffffffff       7226 	.byte	255,255,255,255
00002acc 13321332       7227 	.byte	19,50,19,50
00002ad0 377c3ee7       7228 	.byte	55,124,62,231
00002ad4 dfff9ef7       7229 	.byte	223,255,158,247
00002ad8 13321332       7230 	.byte	19,50,19,50
00002adc 13321332       7231 	.byte	19,50,19,50
00002ae0 13321332       7232 	.byte	19,50,19,50
00002ae4 13321332       7233 	.byte	19,50,19,50
00002ae8 13321332       7234 	.byte	19,50,19,50
00002aec 13321332       7235 	.byte	19,50,19,50
00002af0 13321332       7236 	.byte	19,50,19,50

                                                                      Page 132
                                                              C:\Users\NIKHIL~1.PAT\AppData\Local\Temp\gh_000aeoo1.s
00002af4 13321332       7237 	.byte	19,50,19,50
00002af8 13321332       7238 	.byte	19,50,19,50
00002afc 13321232       7239 	.byte	19,50,18,50
00002b00 cc391332       7240 	.byte	204,57,19,50
00002b04 13321332       7241 	.byte	19,50,19,50
00002b08 13321332       7242 	.byte	19,50,19,50
00002b0c 13321332       7243 	.byte	19,50,19,50
00002b10 13321332       7244 	.byte	19,50,19,50
00002b14 13321332       7245 	.byte	19,50,19,50
00002b18 13321332       7246 	.byte	19,50,19,50
00002b1c 13321332       7247 	.byte	19,50,19,50
00002b20 13321332       7248 	.byte	19,50,19,50
00002b24 13321332       7249 	.byte	19,50,19,50
00002b28 13321332       7250 	.byte	19,50,19,50
00002b2c 13321332       7251 	.byte	19,50,19,50
00002b30 13321332       7252 	.byte	19,50,19,50
00002b34 13321332       7253 	.byte	19,50,19,50
00002b38 13321332       7254 	.byte	19,50,19,50
00002b3c 13321332       7255 	.byte	19,50,19,50
00002b40 13321332       7256 	.byte	19,50,19,50
00002b44 13321332       7257 	.byte	19,50,19,50
00002b48 13321332       7258 	.byte	19,50,19,50
00002b4c 13321332       7259 	.byte	19,50,19,50
00002b50 13321332       7260 	.byte	19,50,19,50
00002b54 13321332       7261 	.byte	19,50,19,50
00002b58 13321332       7262 	.byte	19,50,19,50
00002b5c 13321332       7263 	.byte	19,50,19,50
00002b60 13321332       7264 	.byte	19,50,19,50
00002b64 13321332       7265 	.byte	19,50,19,50
00002b68 13321332       7266 	.byte	19,50,19,50
00002b6c 13321332       7267 	.byte	19,50,19,50
00002b70 13321332       7268 	.byte	19,50,19,50
00002b74 13321332       7269 	.byte	19,50,19,50
00002b78 13321332       7270 	.byte	19,50,19,50
00002b7c 13321332       7271 	.byte	19,50,19,50
00002b80 13321332       7272 	.byte	19,50,19,50
00002b84 13321332       7273 	.byte	19,50,19,50
00002b88 13321332       7274 	.byte	19,50,19,50
00002b8c 13321332       7275 	.byte	19,50,19,50
00002b90 13321332       7276 	.byte	19,50,19,50
00002b94 13321332       7277 	.byte	19,50,19,50
00002b98 13321332       7278 	.byte	19,50,19,50
00002b9c 13321332       7279 	.byte	19,50,19,50
00002ba0 13321332       7280 	.byte	19,50,19,50
00002ba4 13321332       7281 	.byte	19,50,19,50
00002ba8 13321332       7282 	.byte	19,50,19,50
00002bac 13321332       7283 	.byte	19,50,19,50
00002bb0 13321332       7284 	.byte	19,50,19,50
00002bb4 13321332       7285 	.byte	19,50,19,50
00002bb8 13321332       7286 	.byte	19,50,19,50
00002bbc 13321332       7287 	.byte	19,50,19,50
00002bc0 13321332       7288 	.byte	19,50,19,50
00002bc4 13321332       7289 	.byte	19,50,19,50
00002bc8 13321332       7290 	.byte	19,50,19,50
00002bcc 13321332       7291 	.byte	19,50,19,50
00002bd0 13321332       7292 	.byte	19,50,19,50
00002bd4 13321332       7293 	.byte	19,50,19,50
00002bd8 13321332       7294 	.byte	19,50,19,50
00002bdc 13321332       7295 	.byte	19,50,19,50
00002be0 13321332       7296 	.byte	19,50,19,50
00002be4 13321332       7297 	.byte	19,50,19,50

                                                                      Page 133
                                                              C:\Users\NIKHIL~1.PAT\AppData\Local\Temp\gh_000aeoo1.s
00002be8 13321332       7298 	.byte	19,50,19,50
00002bec 13321332       7299 	.byte	19,50,19,50
00002bf0 13321332       7300 	.byte	19,50,19,50
00002bf4 13321332       7301 	.byte	19,50,19,50
00002bf8 13321332       7302 	.byte	19,50,19,50
00002bfc 13321232       7303 	.byte	19,50,18,50
00002c00 cc391332       7304 	.byte	204,57,19,50
00002c04 13321332       7305 	.byte	19,50,19,50
00002c08 13321332       7306 	.byte	19,50,19,50
00002c0c 13321332       7307 	.byte	19,50,19,50
00002c10 13321332       7308 	.byte	19,50,19,50
00002c14 13321332       7309 	.byte	19,50,19,50
00002c18 13321332       7310 	.byte	19,50,19,50
00002c1c 13321332       7311 	.byte	19,50,19,50
00002c20 13321332       7312 	.byte	19,50,19,50
00002c24 13321332       7313 	.byte	19,50,19,50
00002c28 13321332       7314 	.byte	19,50,19,50
00002c2c 13321332       7315 	.byte	19,50,19,50
00002c30 13321332       7316 	.byte	19,50,19,50
00002c34 13321332       7317 	.byte	19,50,19,50
00002c38 13321332       7318 	.byte	19,50,19,50
00002c3c 13321332       7319 	.byte	19,50,19,50
00002c40 13321332       7320 	.byte	19,50,19,50
00002c44 13321332       7321 	.byte	19,50,19,50
00002c48 13321332       7322 	.byte	19,50,19,50
00002c4c 13321332       7323 	.byte	19,50,19,50
00002c50 13321332       7324 	.byte	19,50,19,50
00002c54 13321332       7325 	.byte	19,50,19,50
00002c58 13321332       7326 	.byte	19,50,19,50
00002c5c 13321332       7327 	.byte	19,50,19,50
00002c60 13321332       7328 	.byte	19,50,19,50
00002c64 13321332       7329 	.byte	19,50,19,50
00002c68 13321332       7330 	.byte	19,50,19,50
00002c6c 13321332       7331 	.byte	19,50,19,50
00002c70 13321332       7332 	.byte	19,50,19,50
00002c74 13321332       7333 	.byte	19,50,19,50
00002c78 13321332       7334 	.byte	19,50,19,50
00002c7c 13321332       7335 	.byte	19,50,19,50
00002c80 13321332       7336 	.byte	19,50,19,50
00002c84 13321332       7337 	.byte	19,50,19,50
00002c88 13321332       7338 	.byte	19,50,19,50
00002c8c 13321332       7339 	.byte	19,50,19,50
00002c90 13321332       7340 	.byte	19,50,19,50
00002c94 13321332       7341 	.byte	19,50,19,50
00002c98 13321332       7342 	.byte	19,50,19,50
00002c9c 13321332       7343 	.byte	19,50,19,50
00002ca0 13321332       7344 	.byte	19,50,19,50
00002ca4 13321332       7345 	.byte	19,50,19,50
00002ca8 13321332       7346 	.byte	19,50,19,50
00002cac 13321332       7347 	.byte	19,50,19,50
00002cb0 13321332       7348 	.byte	19,50,19,50
00002cb4 13321332       7349 	.byte	19,50,19,50
00002cb8 13321332       7350 	.byte	19,50,19,50
00002cbc 13321332       7351 	.byte	19,50,19,50
00002cc0 13321332       7352 	.byte	19,50,19,50
00002cc4 13321332       7353 	.byte	19,50,19,50
00002cc8 13321332       7354 	.byte	19,50,19,50
00002ccc 13321332       7355 	.byte	19,50,19,50
00002cd0 13321332       7356 	.byte	19,50,19,50
00002cd4 13321332       7357 	.byte	19,50,19,50
00002cd8 13321332       7358 	.byte	19,50,19,50

                                                                      Page 134
                                                              C:\Users\NIKHIL~1.PAT\AppData\Local\Temp\gh_000aeoo1.s
00002cdc 13321332       7359 	.byte	19,50,19,50
00002ce0 13321332       7360 	.byte	19,50,19,50
00002ce4 13321332       7361 	.byte	19,50,19,50
00002ce8 13321332       7362 	.byte	19,50,19,50
00002cec 13321332       7363 	.byte	19,50,19,50
00002cf0 13321332       7364 	.byte	19,50,19,50
00002cf4 13321332       7365 	.byte	19,50,19,50
00002cf8 13321332       7366 	.byte	19,50,19,50
00002cfc 13321232       7367 	.byte	19,50,18,50
00002d00 cc391332       7368 	.byte	204,57,19,50
00002d04 13321332       7369 	.byte	19,50,19,50
00002d08 13321332       7370 	.byte	19,50,19,50
00002d0c 13321332       7371 	.byte	19,50,19,50
00002d10 13321332       7372 	.byte	19,50,19,50
00002d14 13321332       7373 	.byte	19,50,19,50
00002d18 13321332       7374 	.byte	19,50,19,50
00002d1c 13321332       7375 	.byte	19,50,19,50
00002d20 13321332       7376 	.byte	19,50,19,50
00002d24 13321332       7377 	.byte	19,50,19,50
00002d28 13321332       7378 	.byte	19,50,19,50
00002d2c 13321332       7379 	.byte	19,50,19,50
00002d30 13321332       7380 	.byte	19,50,19,50
00002d34 13321332       7381 	.byte	19,50,19,50
00002d38 13321332       7382 	.byte	19,50,19,50
00002d3c 13321332       7383 	.byte	19,50,19,50
00002d40 13321332       7384 	.byte	19,50,19,50
00002d44 13321332       7385 	.byte	19,50,19,50
00002d48 13321332       7386 	.byte	19,50,19,50
00002d4c 13321332       7387 	.byte	19,50,19,50
00002d50 13321332       7388 	.byte	19,50,19,50
00002d54 13321332       7389 	.byte	19,50,19,50
00002d58 13321332       7390 	.byte	19,50,19,50
00002d5c 13321332       7391 	.byte	19,50,19,50
00002d60 13321332       7392 	.byte	19,50,19,50
00002d64 13321332       7393 	.byte	19,50,19,50
00002d68 13321332       7394 	.byte	19,50,19,50
00002d6c 13321332       7395 	.byte	19,50,19,50
00002d70 13321332       7396 	.byte	19,50,19,50
00002d74 13321332       7397 	.byte	19,50,19,50
00002d78 13321332       7398 	.byte	19,50,19,50
00002d7c 13321332       7399 	.byte	19,50,19,50
00002d80 13321332       7400 	.byte	19,50,19,50
00002d84 13321332       7401 	.byte	19,50,19,50
00002d88 13321332       7402 	.byte	19,50,19,50
00002d8c 13321332       7403 	.byte	19,50,19,50
00002d90 13321332       7404 	.byte	19,50,19,50
00002d94 13321332       7405 	.byte	19,50,19,50
00002d98 13321332       7406 	.byte	19,50,19,50
00002d9c 13321332       7407 	.byte	19,50,19,50
00002da0 13321332       7408 	.byte	19,50,19,50
00002da4 13321332       7409 	.byte	19,50,19,50
00002da8 13321332       7410 	.byte	19,50,19,50
00002dac 13321332       7411 	.byte	19,50,19,50
00002db0 13321332       7412 	.byte	19,50,19,50
00002db4 13321332       7413 	.byte	19,50,19,50
00002db8 13321332       7414 	.byte	19,50,19,50
00002dbc 13321332       7415 	.byte	19,50,19,50
00002dc0 13321332       7416 	.byte	19,50,19,50
00002dc4 13321332       7417 	.byte	19,50,19,50
00002dc8 13321332       7418 	.byte	19,50,19,50
00002dcc 13321332       7419 	.byte	19,50,19,50

                                                                      Page 135
                                                              C:\Users\NIKHIL~1.PAT\AppData\Local\Temp\gh_000aeoo1.s
00002dd0 13321332       7420 	.byte	19,50,19,50
00002dd4 13321332       7421 	.byte	19,50,19,50
00002dd8 13321332       7422 	.byte	19,50,19,50
00002ddc 13321332       7423 	.byte	19,50,19,50
00002de0 13321332       7424 	.byte	19,50,19,50
00002de4 13321332       7425 	.byte	19,50,19,50
00002de8 13321332       7426 	.byte	19,50,19,50
00002dec 13321332       7427 	.byte	19,50,19,50
00002df0 13321332       7428 	.byte	19,50,19,50
00002df4 13321332       7429 	.byte	19,50,19,50
00002df8 13321332       7430 	.byte	19,50,19,50
00002dfc 13321232       7431 	.byte	19,50,18,50
00002e00 cc391332       7432 	.byte	204,57,19,50
00002e04 13321332       7433 	.byte	19,50,19,50
00002e08 13321332       7434 	.byte	19,50,19,50
00002e0c 13321332       7435 	.byte	19,50,19,50
00002e10 13321332       7436 	.byte	19,50,19,50
00002e14 13321332       7437 	.byte	19,50,19,50
00002e18 13321332       7438 	.byte	19,50,19,50
00002e1c 13321332       7439 	.byte	19,50,19,50
00002e20 13321332       7440 	.byte	19,50,19,50
00002e24 13321332       7441 	.byte	19,50,19,50
00002e28 13321332       7442 	.byte	19,50,19,50
00002e2c 13321332       7443 	.byte	19,50,19,50
00002e30 13321332       7444 	.byte	19,50,19,50
00002e34 13321332       7445 	.byte	19,50,19,50
00002e38 13321332       7446 	.byte	19,50,19,50
00002e3c 13321332       7447 	.byte	19,50,19,50
00002e40 13321332       7448 	.byte	19,50,19,50
00002e44 13321332       7449 	.byte	19,50,19,50
00002e48 13321332       7450 	.byte	19,50,19,50
00002e4c 13321332       7451 	.byte	19,50,19,50
00002e50 13321332       7452 	.byte	19,50,19,50
00002e54 13321332       7453 	.byte	19,50,19,50
00002e58 13321332       7454 	.byte	19,50,19,50
00002e5c 13321332       7455 	.byte	19,50,19,50
00002e60 13321332       7456 	.byte	19,50,19,50
00002e64 13321332       7457 	.byte	19,50,19,50
00002e68 13321332       7458 	.byte	19,50,19,50
00002e6c 13321332       7459 	.byte	19,50,19,50
00002e70 13321332       7460 	.byte	19,50,19,50
00002e74 13321332       7461 	.byte	19,50,19,50
00002e78 13321332       7462 	.byte	19,50,19,50
00002e7c 13321332       7463 	.byte	19,50,19,50
00002e80 13321332       7464 	.byte	19,50,19,50
00002e84 13321332       7465 	.byte	19,50,19,50
00002e88 13321332       7466 	.byte	19,50,19,50
00002e8c 13321332       7467 	.byte	19,50,19,50
00002e90 13321332       7468 	.byte	19,50,19,50
00002e94 13321332       7469 	.byte	19,50,19,50
00002e98 13321332       7470 	.byte	19,50,19,50
00002e9c 13321332       7471 	.byte	19,50,19,50
00002ea0 13321332       7472 	.byte	19,50,19,50
00002ea4 13321332       7473 	.byte	19,50,19,50
00002ea8 13321332       7474 	.byte	19,50,19,50
00002eac 13321332       7475 	.byte	19,50,19,50
00002eb0 13321332       7476 	.byte	19,50,19,50
00002eb4 13321332       7477 	.byte	19,50,19,50
00002eb8 13321332       7478 	.byte	19,50,19,50
00002ebc 13321332       7479 	.byte	19,50,19,50
00002ec0 13321332       7480 	.byte	19,50,19,50

                                                                      Page 136
                                                              C:\Users\NIKHIL~1.PAT\AppData\Local\Temp\gh_000aeoo1.s
00002ec4 13321332       7481 	.byte	19,50,19,50
00002ec8 13321332       7482 	.byte	19,50,19,50
00002ecc 13321332       7483 	.byte	19,50,19,50
00002ed0 13321332       7484 	.byte	19,50,19,50
00002ed4 13321332       7485 	.byte	19,50,19,50
00002ed8 13321332       7486 	.byte	19,50,19,50
00002edc 13321332       7487 	.byte	19,50,19,50
00002ee0 13321332       7488 	.byte	19,50,19,50
00002ee4 13321332       7489 	.byte	19,50,19,50
00002ee8 13321332       7490 	.byte	19,50,19,50
00002eec 13321332       7491 	.byte	19,50,19,50
00002ef0 13321332       7492 	.byte	19,50,19,50
00002ef4 13321332       7493 	.byte	19,50,19,50
00002ef8 13321332       7494 	.byte	19,50,19,50
00002efc 13321232       7495 	.byte	19,50,18,50
00002f00 cc391332       7496 	.byte	204,57,19,50
00002f04 13321332       7497 	.byte	19,50,19,50
00002f08 13321332       7498 	.byte	19,50,19,50
00002f0c 13321332       7499 	.byte	19,50,19,50
00002f10 13321332       7500 	.byte	19,50,19,50
00002f14 13321332       7501 	.byte	19,50,19,50
00002f18 13321332       7502 	.byte	19,50,19,50
00002f1c 13321332       7503 	.byte	19,50,19,50
00002f20 13321332       7504 	.byte	19,50,19,50
00002f24 13321332       7505 	.byte	19,50,19,50
00002f28 13321332       7506 	.byte	19,50,19,50
00002f2c 13321332       7507 	.byte	19,50,19,50
00002f30 13321332       7508 	.byte	19,50,19,50
00002f34 13321332       7509 	.byte	19,50,19,50
00002f38 13321332       7510 	.byte	19,50,19,50
00002f3c 13321332       7511 	.byte	19,50,19,50
00002f40 13321332       7512 	.byte	19,50,19,50
00002f44 13321332       7513 	.byte	19,50,19,50
00002f48 13321332       7514 	.byte	19,50,19,50
00002f4c 13321332       7515 	.byte	19,50,19,50
00002f50 13321332       7516 	.byte	19,50,19,50
00002f54 13321332       7517 	.byte	19,50,19,50
00002f58 13321332       7518 	.byte	19,50,19,50
00002f5c 13321332       7519 	.byte	19,50,19,50
00002f60 13321332       7520 	.byte	19,50,19,50
00002f64 13321332       7521 	.byte	19,50,19,50
00002f68 13321332       7522 	.byte	19,50,19,50
00002f6c 13321332       7523 	.byte	19,50,19,50
00002f70 13321332       7524 	.byte	19,50,19,50
00002f74 13321332       7525 	.byte	19,50,19,50
00002f78 13321332       7526 	.byte	19,50,19,50
00002f7c 13321332       7527 	.byte	19,50,19,50
00002f80 13321332       7528 	.byte	19,50,19,50
00002f84 13321332       7529 	.byte	19,50,19,50
00002f88 13321332       7530 	.byte	19,50,19,50
00002f8c 13321332       7531 	.byte	19,50,19,50
00002f90 13321332       7532 	.byte	19,50,19,50
00002f94 13321332       7533 	.byte	19,50,19,50
00002f98 13321332       7534 	.byte	19,50,19,50
00002f9c 13321332       7535 	.byte	19,50,19,50
00002fa0 13321332       7536 	.byte	19,50,19,50
00002fa4 13321332       7537 	.byte	19,50,19,50
00002fa8 13321332       7538 	.byte	19,50,19,50
00002fac 13321332       7539 	.byte	19,50,19,50
00002fb0 13321332       7540 	.byte	19,50,19,50
00002fb4 13321332       7541 	.byte	19,50,19,50

                                                                      Page 137
                                                              C:\Users\NIKHIL~1.PAT\AppData\Local\Temp\gh_000aeoo1.s
00002fb8 13321332       7542 	.byte	19,50,19,50
00002fbc 13321332       7543 	.byte	19,50,19,50
00002fc0 13321332       7544 	.byte	19,50,19,50
00002fc4 13321332       7545 	.byte	19,50,19,50
00002fc8 13321332       7546 	.byte	19,50,19,50
00002fcc 13321332       7547 	.byte	19,50,19,50
00002fd0 13321332       7548 	.byte	19,50,19,50
00002fd4 13321332       7549 	.byte	19,50,19,50
00002fd8 13321332       7550 	.byte	19,50,19,50
00002fdc 13321332       7551 	.byte	19,50,19,50
00002fe0 13321332       7552 	.byte	19,50,19,50
00002fe4 13321332       7553 	.byte	19,50,19,50
00002fe8 13321332       7554 	.byte	19,50,19,50
00002fec 13321332       7555 	.byte	19,50,19,50
00002ff0 13321332       7556 	.byte	19,50,19,50
00002ff4 13321332       7557 	.byte	19,50,19,50
00002ff8 13321332       7558 	.byte	19,50,19,50
00002ffc 13321232       7559 	.byte	19,50,18,50
00003000 cc391332       7560 	.byte	204,57,19,50
00003004 13321332       7561 	.byte	19,50,19,50
00003008 13321332       7562 	.byte	19,50,19,50
0000300c 13321332       7563 	.byte	19,50,19,50
00003010 13321332       7564 	.byte	19,50,19,50
00003014 13321332       7565 	.byte	19,50,19,50
00003018 13321332       7566 	.byte	19,50,19,50
0000301c 13321332       7567 	.byte	19,50,19,50
00003020 13321332       7568 	.byte	19,50,19,50
00003024 13321332       7569 	.byte	19,50,19,50
00003028 13321332       7570 	.byte	19,50,19,50
0000302c 13321332       7571 	.byte	19,50,19,50
00003030 13321332       7572 	.byte	19,50,19,50
00003034 13321332       7573 	.byte	19,50,19,50
00003038 13321332       7574 	.byte	19,50,19,50
0000303c 13321332       7575 	.byte	19,50,19,50
00003040 13321332       7576 	.byte	19,50,19,50
00003044 13321332       7577 	.byte	19,50,19,50
00003048 13321332       7578 	.byte	19,50,19,50
0000304c 13321332       7579 	.byte	19,50,19,50
00003050 13321332       7580 	.byte	19,50,19,50
00003054 13321332       7581 	.byte	19,50,19,50
00003058 13321332       7582 	.byte	19,50,19,50
0000305c 13321332       7583 	.byte	19,50,19,50
00003060 13321332       7584 	.byte	19,50,19,50
00003064 13321332       7585 	.byte	19,50,19,50
00003068 13321332       7586 	.byte	19,50,19,50
0000306c 13321332       7587 	.byte	19,50,19,50
00003070 13321332       7588 	.byte	19,50,19,50
00003074 13321332       7589 	.byte	19,50,19,50
00003078 13321332       7590 	.byte	19,50,19,50
0000307c 13321332       7591 	.byte	19,50,19,50
00003080 13321332       7592 	.byte	19,50,19,50
00003084 13321332       7593 	.byte	19,50,19,50
00003088 13321332       7594 	.byte	19,50,19,50
0000308c 13321332       7595 	.byte	19,50,19,50
00003090 13321332       7596 	.byte	19,50,19,50
00003094 13321332       7597 	.byte	19,50,19,50
00003098 13321332       7598 	.byte	19,50,19,50
0000309c 13321332       7599 	.byte	19,50,19,50
000030a0 13321332       7600 	.byte	19,50,19,50
000030a4 13321332       7601 	.byte	19,50,19,50
000030a8 13321332       7602 	.byte	19,50,19,50

                                                                      Page 138
                                                              C:\Users\NIKHIL~1.PAT\AppData\Local\Temp\gh_000aeoo1.s
000030ac 13321332       7603 	.byte	19,50,19,50
000030b0 13321332       7604 	.byte	19,50,19,50
000030b4 13321332       7605 	.byte	19,50,19,50
000030b8 13321332       7606 	.byte	19,50,19,50
000030bc 13321332       7607 	.byte	19,50,19,50
000030c0 13321332       7608 	.byte	19,50,19,50
000030c4 13321332       7609 	.byte	19,50,19,50
000030c8 13321332       7610 	.byte	19,50,19,50
000030cc 13321332       7611 	.byte	19,50,19,50
000030d0 13321332       7612 	.byte	19,50,19,50
000030d4 13321332       7613 	.byte	19,50,19,50
000030d8 13321332       7614 	.byte	19,50,19,50
000030dc 13321332       7615 	.byte	19,50,19,50
000030e0 13321332       7616 	.byte	19,50,19,50
000030e4 13321332       7617 	.byte	19,50,19,50
000030e8 13321332       7618 	.byte	19,50,19,50
000030ec 13321332       7619 	.byte	19,50,19,50
000030f0 13321332       7620 	.byte	19,50,19,50
000030f4 13321332       7621 	.byte	19,50,19,50
000030f8 13321332       7622 	.byte	19,50,19,50
000030fc 13321232       7623 	.byte	19,50,18,50
00003100 cc391332       7624 	.byte	204,57,19,50
00003104 13321332       7625 	.byte	19,50,19,50
00003108 13321332       7626 	.byte	19,50,19,50
0000310c 13321332       7627 	.byte	19,50,19,50
00003110 13321332       7628 	.byte	19,50,19,50
00003114 13321332       7629 	.byte	19,50,19,50
00003118 13321332       7630 	.byte	19,50,19,50
0000311c 13321332       7631 	.byte	19,50,19,50
00003120 13321332       7632 	.byte	19,50,19,50
00003124 13321332       7633 	.byte	19,50,19,50
00003128 13321332       7634 	.byte	19,50,19,50
0000312c 13321332       7635 	.byte	19,50,19,50
00003130 13321332       7636 	.byte	19,50,19,50
00003134 13321332       7637 	.byte	19,50,19,50
00003138 13321332       7638 	.byte	19,50,19,50
0000313c 13321332       7639 	.byte	19,50,19,50
00003140 13321332       7640 	.byte	19,50,19,50
00003144 13321332       7641 	.byte	19,50,19,50
00003148 13321332       7642 	.byte	19,50,19,50
0000314c 13321332       7643 	.byte	19,50,19,50
00003150 13321332       7644 	.byte	19,50,19,50
00003154 13321332       7645 	.byte	19,50,19,50
00003158 13321332       7646 	.byte	19,50,19,50
0000315c 13321332       7647 	.byte	19,50,19,50
00003160 13321332       7648 	.byte	19,50,19,50
00003164 13321332       7649 	.byte	19,50,19,50
00003168 13321332       7650 	.byte	19,50,19,50
0000316c 13321332       7651 	.byte	19,50,19,50
00003170 13321332       7652 	.byte	19,50,19,50
00003174 13321332       7653 	.byte	19,50,19,50
00003178 13321332       7654 	.byte	19,50,19,50
0000317c 13321332       7655 	.byte	19,50,19,50
00003180 13321332       7656 	.byte	19,50,19,50
00003184 13321332       7657 	.byte	19,50,19,50
00003188 13321332       7658 	.byte	19,50,19,50
0000318c 13321332       7659 	.byte	19,50,19,50
00003190 13321332       7660 	.byte	19,50,19,50
00003194 13321332       7661 	.byte	19,50,19,50
00003198 13321332       7662 	.byte	19,50,19,50
0000319c 13321332       7663 	.byte	19,50,19,50

                                                                      Page 139
                                                              C:\Users\NIKHIL~1.PAT\AppData\Local\Temp\gh_000aeoo1.s
000031a0 13321332       7664 	.byte	19,50,19,50
000031a4 13321332       7665 	.byte	19,50,19,50
000031a8 13321332       7666 	.byte	19,50,19,50
000031ac 13321332       7667 	.byte	19,50,19,50
000031b0 13321332       7668 	.byte	19,50,19,50
000031b4 13321332       7669 	.byte	19,50,19,50
000031b8 13321332       7670 	.byte	19,50,19,50
000031bc 13321332       7671 	.byte	19,50,19,50
000031c0 13321332       7672 	.byte	19,50,19,50
000031c4 13321332       7673 	.byte	19,50,19,50
000031c8 13321332       7674 	.byte	19,50,19,50
000031cc 13321332       7675 	.byte	19,50,19,50
000031d0 13321332       7676 	.byte	19,50,19,50
000031d4 13321332       7677 	.byte	19,50,19,50
000031d8 13321332       7678 	.byte	19,50,19,50
000031dc 13321332       7679 	.byte	19,50,19,50
000031e0 13321332       7680 	.byte	19,50,19,50
000031e4 13321332       7681 	.byte	19,50,19,50
000031e8 13321332       7682 	.byte	19,50,19,50
000031ec 13321332       7683 	.byte	19,50,19,50
000031f0 13321332       7684 	.byte	19,50,19,50
000031f4 13321332       7685 	.byte	19,50,19,50
000031f8 13321332       7686 	.byte	19,50,19,50
000031fc 13321232       7687 	.byte	19,50,18,50
00003200 cc391332       7688 	.byte	204,57,19,50
00003204 13321332       7689 	.byte	19,50,19,50
00003208 13321332       7690 	.byte	19,50,19,50
0000320c 13321332       7691 	.byte	19,50,19,50
00003210 13321332       7692 	.byte	19,50,19,50
00003214 13321332       7693 	.byte	19,50,19,50
00003218 13321332       7694 	.byte	19,50,19,50
0000321c 13321332       7695 	.byte	19,50,19,50
00003220 13321332       7696 	.byte	19,50,19,50
00003224 13321332       7697 	.byte	19,50,19,50
00003228 13321332       7698 	.byte	19,50,19,50
0000322c 13321332       7699 	.byte	19,50,19,50
00003230 13321332       7700 	.byte	19,50,19,50
00003234 13321332       7701 	.byte	19,50,19,50
00003238 13321332       7702 	.byte	19,50,19,50
0000323c 13321332       7703 	.byte	19,50,19,50
00003240 13321332       7704 	.byte	19,50,19,50
00003244 13321332       7705 	.byte	19,50,19,50
00003248 13321332       7706 	.byte	19,50,19,50
0000324c 13321332       7707 	.byte	19,50,19,50
00003250 13321332       7708 	.byte	19,50,19,50
00003254 13321332       7709 	.byte	19,50,19,50
00003258 13321332       7710 	.byte	19,50,19,50
0000325c 13321332       7711 	.byte	19,50,19,50
00003260 13321332       7712 	.byte	19,50,19,50
00003264 13321332       7713 	.byte	19,50,19,50
00003268 13321332       7714 	.byte	19,50,19,50
0000326c 13321332       7715 	.byte	19,50,19,50
00003270 13321332       7716 	.byte	19,50,19,50
00003274 13321332       7717 	.byte	19,50,19,50
00003278 13321332       7718 	.byte	19,50,19,50
0000327c 13321332       7719 	.byte	19,50,19,50
00003280 13321332       7720 	.byte	19,50,19,50
00003284 13321332       7721 	.byte	19,50,19,50
00003288 13321332       7722 	.byte	19,50,19,50
0000328c 13321332       7723 	.byte	19,50,19,50
00003290 13321332       7724 	.byte	19,50,19,50

                                                                      Page 140
                                                              C:\Users\NIKHIL~1.PAT\AppData\Local\Temp\gh_000aeoo1.s
00003294 13321332       7725 	.byte	19,50,19,50
00003298 13321332       7726 	.byte	19,50,19,50
0000329c 13321332       7727 	.byte	19,50,19,50
000032a0 13321332       7728 	.byte	19,50,19,50
000032a4 13321332       7729 	.byte	19,50,19,50
000032a8 13321332       7730 	.byte	19,50,19,50
000032ac 13321332       7731 	.byte	19,50,19,50
000032b0 13321332       7732 	.byte	19,50,19,50
000032b4 13321332       7733 	.byte	19,50,19,50
000032b8 13321332       7734 	.byte	19,50,19,50
000032bc 13321332       7735 	.byte	19,50,19,50
000032c0 13321332       7736 	.byte	19,50,19,50
000032c4 13321332       7737 	.byte	19,50,19,50
000032c8 13321332       7738 	.byte	19,50,19,50
000032cc 13321332       7739 	.byte	19,50,19,50
000032d0 13321332       7740 	.byte	19,50,19,50
000032d4 13321332       7741 	.byte	19,50,19,50
000032d8 13321332       7742 	.byte	19,50,19,50
000032dc 13321332       7743 	.byte	19,50,19,50
000032e0 13321332       7744 	.byte	19,50,19,50
000032e4 13321332       7745 	.byte	19,50,19,50
000032e8 13321332       7746 	.byte	19,50,19,50
000032ec 13321332       7747 	.byte	19,50,19,50
000032f0 13321332       7748 	.byte	19,50,19,50
000032f4 13321332       7749 	.byte	19,50,19,50
000032f8 13321332       7750 	.byte	19,50,19,50
000032fc 13321232       7751 	.byte	19,50,18,50
00003300 18c618c6       7752 	.byte	24,198,24,198
00003304 18c618c6       7753 	.byte	24,198,24,198
00003308 18c618c6       7754 	.byte	24,198,24,198
0000330c 18c618c6       7755 	.byte	24,198,24,198
00003310 18c618c6       7756 	.byte	24,198,24,198
00003314 18c618c6       7757 	.byte	24,198,24,198
00003318 18c618c6       7758 	.byte	24,198,24,198
0000331c 18c618c6       7759 	.byte	24,198,24,198
00003320 18c618c6       7760 	.byte	24,198,24,198
00003324 18c618c6       7761 	.byte	24,198,24,198
00003328 18c618c6       7762 	.byte	24,198,24,198
0000332c 18c618c6       7763 	.byte	24,198,24,198
00003330 18c618c6       7764 	.byte	24,198,24,198
00003334 18c618c6       7765 	.byte	24,198,24,198
00003338 18c618c6       7766 	.byte	24,198,24,198
0000333c 18c618c6       7767 	.byte	24,198,24,198
00003340 18c618c6       7768 	.byte	24,198,24,198
00003344 18c618c6       7769 	.byte	24,198,24,198
00003348 18c618c6       7770 	.byte	24,198,24,198
0000334c 18c618c6       7771 	.byte	24,198,24,198
00003350 18c618c6       7772 	.byte	24,198,24,198
00003354 18c618c6       7773 	.byte	24,198,24,198
00003358 18c618c6       7774 	.byte	24,198,24,198
0000335c 18c618c6       7775 	.byte	24,198,24,198
00003360 18c618c6       7776 	.byte	24,198,24,198
00003364 18c618c6       7777 	.byte	24,198,24,198
00003368 18c618c6       7778 	.byte	24,198,24,198
0000336c 18c618c6       7779 	.byte	24,198,24,198
00003370 18c618c6       7780 	.byte	24,198,24,198
00003374 18c618c6       7781 	.byte	24,198,24,198
00003378 18c618c6       7782 	.byte	24,198,24,198
0000337c 18c618c6       7783 	.byte	24,198,24,198
00003380 18c618c6       7784 	.byte	24,198,24,198
00003384 18c618c6       7785 	.byte	24,198,24,198

                                                                      Page 141
                                                              C:\Users\NIKHIL~1.PAT\AppData\Local\Temp\gh_000aeoo1.s
00003388 18c618c6       7786 	.byte	24,198,24,198
0000338c 18c618c6       7787 	.byte	24,198,24,198
00003390 18c618c6       7788 	.byte	24,198,24,198
00003394 18c618c6       7789 	.byte	24,198,24,198
00003398 18c618c6       7790 	.byte	24,198,24,198
0000339c 18c618c6       7791 	.byte	24,198,24,198
000033a0 18c618c6       7792 	.byte	24,198,24,198
000033a4 18c618c6       7793 	.byte	24,198,24,198
000033a8 18c618c6       7794 	.byte	24,198,24,198
000033ac 18c618c6       7795 	.byte	24,198,24,198
000033b0 18c618c6       7796 	.byte	24,198,24,198
000033b4 18c618c6       7797 	.byte	24,198,24,198
000033b8 18c618c6       7798 	.byte	24,198,24,198
000033bc 18c618c6       7799 	.byte	24,198,24,198
000033c0 18c618c6       7800 	.byte	24,198,24,198
000033c4 18c618c6       7801 	.byte	24,198,24,198
000033c8 18c618c6       7802 	.byte	24,198,24,198
000033cc 18c618c6       7803 	.byte	24,198,24,198
000033d0 18c618c6       7804 	.byte	24,198,24,198
000033d4 18c618c6       7805 	.byte	24,198,24,198
000033d8 18c618c6       7806 	.byte	24,198,24,198
000033dc 18c618c6       7807 	.byte	24,198,24,198
000033e0 18c618c6       7808 	.byte	24,198,24,198
000033e4 18c618c6       7809 	.byte	24,198,24,198
000033e8 18c618c6       7810 	.byte	24,198,24,198
000033ec 18c618c6       7811 	.byte	24,198,24,198
000033f0 18c618c6       7812 	.byte	24,198,24,198
000033f4 18c618c6       7813 	.byte	24,198,24,198
000033f8 18c618c6       7814 	.byte	24,198,24,198
000033fc 18c618c6       7815 	.byte	24,198,24,198
00003400 18c618c6       7816 	.byte	24,198,24,198
00003404 18c618c6       7817 	.byte	24,198,24,198
00003408 18c618c6       7818 	.byte	24,198,24,198
0000340c 18c618c6       7819 	.byte	24,198,24,198
00003410 18c618c6       7820 	.byte	24,198,24,198
00003414 18c618c6       7821 	.byte	24,198,24,198
00003418 18c618c6       7822 	.byte	24,198,24,198
0000341c 18c618c6       7823 	.byte	24,198,24,198
00003420 18c618c6       7824 	.byte	24,198,24,198
00003424 18c618c6       7825 	.byte	24,198,24,198
00003428 18c618c6       7826 	.byte	24,198,24,198
0000342c 18c618c6       7827 	.byte	24,198,24,198
00003430 18c618c6       7828 	.byte	24,198,24,198
00003434 18c618c6       7829 	.byte	24,198,24,198
00003438 18c618c6       7830 	.byte	24,198,24,198
0000343c 18c618c6       7831 	.byte	24,198,24,198
00003440 18c618c6       7832 	.byte	24,198,24,198
00003444 18c618c6       7833 	.byte	24,198,24,198
00003448 18c618c6       7834 	.byte	24,198,24,198
0000344c 18c618c6       7835 	.byte	24,198,24,198
00003450 18c618c6       7836 	.byte	24,198,24,198
00003454 18c618c6       7837 	.byte	24,198,24,198
00003458 18c618c6       7838 	.byte	24,198,24,198
0000345c 18c618c6       7839 	.byte	24,198,24,198
00003460 18c618c6       7840 	.byte	24,198,24,198
00003464 18c618c6       7841 	.byte	24,198,24,198
00003468 18c618c6       7842 	.byte	24,198,24,198
0000346c 18c618c6       7843 	.byte	24,198,24,198
00003470 18c618c6       7844 	.byte	24,198,24,198
00003474 18c618c6       7845 	.byte	24,198,24,198
00003478 18c618c6       7846 	.byte	24,198,24,198

                                                                      Page 142
                                                              C:\Users\NIKHIL~1.PAT\AppData\Local\Temp\gh_000aeoo1.s
0000347c 18c618c6       7847 	.byte	24,198,24,198
00003480 18c618c6       7848 	.byte	24,198,24,198
00003484 18c618c6       7849 	.byte	24,198,24,198
00003488 18c618c6       7850 	.byte	24,198,24,198
0000348c 18c618c6       7851 	.byte	24,198,24,198
00003490 18c618c6       7852 	.byte	24,198,24,198
00003494 18c618c6       7853 	.byte	24,198,24,198
00003498 18c618c6       7854 	.byte	24,198,24,198
0000349c 18c618c6       7855 	.byte	24,198,24,198
000034a0 18c618c6       7856 	.byte	24,198,24,198
000034a4 18c618c6       7857 	.byte	24,198,24,198
000034a8 18c618c6       7858 	.byte	24,198,24,198
000034ac 18c618c6       7859 	.byte	24,198,24,198
000034b0 18c618c6       7860 	.byte	24,198,24,198
000034b4 18c618c6       7861 	.byte	24,198,24,198
000034b8 18c618c6       7862 	.byte	24,198,24,198
000034bc 18c618c6       7863 	.byte	24,198,24,198
000034c0 18c618c6       7864 	.byte	24,198,24,198
000034c4 18c618c6       7865 	.byte	24,198,24,198
000034c8 18c618c6       7866 	.byte	24,198,24,198
000034cc 18c618c6       7867 	.byte	24,198,24,198
000034d0 18c618c6       7868 	.byte	24,198,24,198
000034d4 18c618c6       7869 	.byte	24,198,24,198
000034d8 18c618c6       7870 	.byte	24,198,24,198
000034dc 18c618c6       7871 	.byte	24,198,24,198
000034e0 18c618c6       7872 	.byte	24,198,24,198
000034e4 18c618c6       7873 	.byte	24,198,24,198
000034e8 18c618c6       7874 	.byte	24,198,24,198
000034ec 18c618c6       7875 	.byte	24,198,24,198
000034f0 18c618c6       7876 	.byte	24,198,24,198
000034f4 18c618c6       7877 	.byte	24,198,24,198
000034f8 18c618c6       7878 	.byte	24,198,24,198
000034fc 18c618c6       7879 	.byte	24,198,24,198
00003500 18c618c6       7880 	.byte	24,198,24,198
00003504 18c618c6       7881 	.byte	24,198,24,198
00003508 18c618c6       7882 	.byte	24,198,24,198
0000350c 18c618c6       7883 	.byte	24,198,24,198
00003510 18c618c6       7884 	.byte	24,198,24,198
00003514 18c618c6       7885 	.byte	24,198,24,198
00003518 18c618c6       7886 	.byte	24,198,24,198
0000351c 18c618c6       7887 	.byte	24,198,24,198
00003520 18c618c6       7888 	.byte	24,198,24,198
00003524 18c618c6       7889 	.byte	24,198,24,198
00003528 18c618c6       7890 	.byte	24,198,24,198
0000352c 18c618c6       7891 	.byte	24,198,24,198
00003530 18c618c6       7892 	.byte	24,198,24,198
00003534 18c618c6       7893 	.byte	24,198,24,198
00003538 18c618c6       7894 	.byte	24,198,24,198
0000353c 18c618c6       7895 	.byte	24,198,24,198
00003540 18c618c6       7896 	.byte	24,198,24,198
00003544 18c618c6       7897 	.byte	24,198,24,198
00003548 18c618c6       7898 	.byte	24,198,24,198
0000354c 18c618c6       7899 	.byte	24,198,24,198
00003550 18c618c6       7900 	.byte	24,198,24,198
00003554 18c618c6       7901 	.byte	24,198,24,198
00003558 18c618c6       7902 	.byte	24,198,24,198
0000355c 18c618c6       7903 	.byte	24,198,24,198
00003560 18c618c6       7904 	.byte	24,198,24,198
00003564 18c618c6       7905 	.byte	24,198,24,198
00003568 18c618c6       7906 	.byte	24,198,24,198
0000356c 18c618c6       7907 	.byte	24,198,24,198

                                                                      Page 143
                                                              C:\Users\NIKHIL~1.PAT\AppData\Local\Temp\gh_000aeoo1.s
00003570 18c618c6       7908 	.byte	24,198,24,198
00003574 18c618c6       7909 	.byte	24,198,24,198
00003578 18c618c6       7910 	.byte	24,198,24,198
0000357c 18c618c6       7911 	.byte	24,198,24,198
00003580 18c618c6       7912 	.byte	24,198,24,198
00003584 18c618c6       7913 	.byte	24,198,24,198
00003588 18c618c6       7914 	.byte	24,198,24,198
0000358c 18c618c6       7915 	.byte	24,198,24,198
00003590 18c618c6       7916 	.byte	24,198,24,198
00003594 18c618c6       7917 	.byte	24,198,24,198
00003598 18c618c6       7918 	.byte	24,198,24,198
0000359c 18c618c6       7919 	.byte	24,198,24,198
000035a0 18c618c6       7920 	.byte	24,198,24,198
000035a4 18c618c6       7921 	.byte	24,198,24,198
000035a8 18c618c6       7922 	.byte	24,198,24,198
000035ac 18c618c6       7923 	.byte	24,198,24,198
000035b0 18c618c6       7924 	.byte	24,198,24,198
000035b4 18c618c6       7925 	.byte	24,198,24,198
000035b8 18c618c6       7926 	.byte	24,198,24,198
000035bc 18c618c6       7927 	.byte	24,198,24,198
000035c0 18c618c6       7928 	.byte	24,198,24,198
000035c4 18c618c6       7929 	.byte	24,198,24,198
000035c8 18c618c6       7930 	.byte	24,198,24,198
000035cc 18c618c6       7931 	.byte	24,198,24,198
000035d0 18c618c6       7932 	.byte	24,198,24,198
000035d4 18c618c6       7933 	.byte	24,198,24,198
000035d8 18c618c6       7934 	.byte	24,198,24,198
000035dc 18c618c6       7935 	.byte	24,198,24,198
000035e0 18c618c6       7936 	.byte	24,198,24,198
000035e4 18c618c6       7937 	.byte	24,198,24,198
000035e8 18c618c6       7938 	.byte	24,198,24,198
000035ec 18c618c6       7939 	.byte	24,198,24,198
000035f0 18c618c6       7940 	.byte	24,198,24,198
000035f4 18c618c6       7941 	.byte	24,198,24,198
000035f8 18c618c6       7942 	.byte	24,198,24,198
000035fc 18c618c6       7943 	.byte	24,198,24,198
00003600 18c618c6       7944 	.byte	24,198,24,198
00003604 18c618c6       7945 	.byte	24,198,24,198
00003608 18c618c6       7946 	.byte	24,198,24,198
0000360c 18c618c6       7947 	.byte	24,198,24,198
00003610 18c618c6       7948 	.byte	24,198,24,198
00003614 18c618c6       7949 	.byte	24,198,24,198
00003618 18c618c6       7950 	.byte	24,198,24,198
0000361c 18c618c6       7951 	.byte	24,198,24,198
00003620 18c618c6       7952 	.byte	24,198,24,198
00003624 18c618c6       7953 	.byte	24,198,24,198
00003628 18c618c6       7954 	.byte	24,198,24,198
0000362c 18c618c6       7955 	.byte	24,198,24,198
00003630 18c618c6       7956 	.byte	24,198,24,198
00003634 18c618c6       7957 	.byte	24,198,24,198
00003638 18c618c6       7958 	.byte	24,198,24,198
0000363c 18c618c6       7959 	.byte	24,198,24,198
00003640 18c618c6       7960 	.byte	24,198,24,198
00003644 18c618c6       7961 	.byte	24,198,24,198
00003648 18c618c6       7962 	.byte	24,198,24,198
0000364c 18c618c6       7963 	.byte	24,198,24,198
00003650 18c618c6       7964 	.byte	24,198,24,198
00003654 18c618c6       7965 	.byte	24,198,24,198
00003658 18c618c6       7966 	.byte	24,198,24,198
0000365c 18c618c6       7967 	.byte	24,198,24,198
00003660 18c618c6       7968 	.byte	24,198,24,198

                                                                      Page 144
                                                              C:\Users\NIKHIL~1.PAT\AppData\Local\Temp\gh_000aeoo1.s
00003664 18c618c6       7969 	.byte	24,198,24,198
00003668 18c618c6       7970 	.byte	24,198,24,198
0000366c 18c618c6       7971 	.byte	24,198,24,198
00003670 18c618c6       7972 	.byte	24,198,24,198
00003674 18c618c6       7973 	.byte	24,198,24,198
00003678 18c618c6       7974 	.byte	24,198,24,198
0000367c 18c618c6       7975 	.byte	24,198,24,198
00003680 18c618c6       7976 	.byte	24,198,24,198
00003684 18c618c6       7977 	.byte	24,198,24,198
00003688 18c618c6       7978 	.byte	24,198,24,198
0000368c 18c618c6       7979 	.byte	24,198,24,198
00003690 18c618c6       7980 	.byte	24,198,24,198
00003694 18c618c6       7981 	.byte	24,198,24,198
00003698 18c618c6       7982 	.byte	24,198,24,198
0000369c 18c618c6       7983 	.byte	24,198,24,198
000036a0 18c618c6       7984 	.byte	24,198,24,198
000036a4 18c618c6       7985 	.byte	24,198,24,198
000036a8 18c618c6       7986 	.byte	24,198,24,198
000036ac 18c618c6       7987 	.byte	24,198,24,198
000036b0 18c618c6       7988 	.byte	24,198,24,198
000036b4 18c618c6       7989 	.byte	24,198,24,198
000036b8 18c618c6       7990 	.byte	24,198,24,198
000036bc 18c618c6       7991 	.byte	24,198,24,198
000036c0 18c618c6       7992 	.byte	24,198,24,198
000036c4 18c618c6       7993 	.byte	24,198,24,198
000036c8 18c618c6       7994 	.byte	24,198,24,198
000036cc 18c618c6       7995 	.byte	24,198,24,198
000036d0 18c618c6       7996 	.byte	24,198,24,198
000036d4 18c618c6       7997 	.byte	24,198,24,198
000036d8 18c618c6       7998 	.byte	24,198,24,198
000036dc 18c618c6       7999 	.byte	24,198,24,198
000036e0 18c618c6       8000 	.byte	24,198,24,198
000036e4 18c618c6       8001 	.byte	24,198,24,198
000036e8 18c618c6       8002 	.byte	24,198,24,198
000036ec 18c618c6       8003 	.byte	24,198,24,198
000036f0 18c618c6       8004 	.byte	24,198,24,198
000036f4 18c618c6       8005 	.byte	24,198,24,198
000036f8 18c618c6       8006 	.byte	24,198,24,198
000036fc 18c618c6       8007 	.byte	24,198,24,198
00003700 18c618c6       8008 	.byte	24,198,24,198
00003704 18c618c6       8009 	.byte	24,198,24,198
00003708 18c618c6       8010 	.byte	24,198,24,198
0000370c 18c618c6       8011 	.byte	24,198,24,198
00003710 18c618c6       8012 	.byte	24,198,24,198
00003714 18c618c6       8013 	.byte	24,198,24,198
00003718 18c618c6       8014 	.byte	24,198,24,198
0000371c 18c618c6       8015 	.byte	24,198,24,198
00003720 18c618c6       8016 	.byte	24,198,24,198
00003724 18c618c6       8017 	.byte	24,198,24,198
00003728 18c618c6       8018 	.byte	24,198,24,198
0000372c 18c618c6       8019 	.byte	24,198,24,198
00003730 18c618c6       8020 	.byte	24,198,24,198
00003734 18c618c6       8021 	.byte	24,198,24,198
00003738 18c618c6       8022 	.byte	24,198,24,198
0000373c 18c618c6       8023 	.byte	24,198,24,198
00003740 18c618c6       8024 	.byte	24,198,24,198
00003744 18c618c6       8025 	.byte	24,198,24,198
00003748 18c618c6       8026 	.byte	24,198,24,198
0000374c 18c618c6       8027 	.byte	24,198,24,198
00003750 18c618c6       8028 	.byte	24,198,24,198
00003754 18c618c6       8029 	.byte	24,198,24,198

                                                                      Page 145
                                                              C:\Users\NIKHIL~1.PAT\AppData\Local\Temp\gh_000aeoo1.s
00003758 18c618c6       8030 	.byte	24,198,24,198
0000375c 18c618c6       8031 	.byte	24,198,24,198
00003760 18c618c6       8032 	.byte	24,198,24,198
00003764 18c618c6       8033 	.byte	24,198,24,198
00003768 18c618c6       8034 	.byte	24,198,24,198
0000376c 18c618c6       8035 	.byte	24,198,24,198
00003770 18c618c6       8036 	.byte	24,198,24,198
00003774 18c618c6       8037 	.byte	24,198,24,198
00003778 18c618c6       8038 	.byte	24,198,24,198
0000377c 18c618c6       8039 	.byte	24,198,24,198
00003780 18c618c6       8040 	.byte	24,198,24,198
00003784 18c618c6       8041 	.byte	24,198,24,198
00003788 18c618c6       8042 	.byte	24,198,24,198
0000378c 18c618c6       8043 	.byte	24,198,24,198
00003790 18c618c6       8044 	.byte	24,198,24,198
00003794 18c618c6       8045 	.byte	24,198,24,198
00003798 18c618c6       8046 	.byte	24,198,24,198
0000379c 18c618c6       8047 	.byte	24,198,24,198
000037a0 18c618c6       8048 	.byte	24,198,24,198
000037a4 18c618c6       8049 	.byte	24,198,24,198
000037a8 18c618c6       8050 	.byte	24,198,24,198
000037ac 18c618c6       8051 	.byte	24,198,24,198
000037b0 18c618c6       8052 	.byte	24,198,24,198
000037b4 18c618c6       8053 	.byte	24,198,24,198
000037b8 18c618c6       8054 	.byte	24,198,24,198
000037bc 18c618c6       8055 	.byte	24,198,24,198
000037c0 18c618c6       8056 	.byte	24,198,24,198
000037c4 18c618c6       8057 	.byte	24,198,24,198
000037c8 18c618c6       8058 	.byte	24,198,24,198
000037cc 18c618c6       8059 	.byte	24,198,24,198
000037d0 18c618c6       8060 	.byte	24,198,24,198
000037d4 18c618c6       8061 	.byte	24,198,24,198
000037d8 18c618c6       8062 	.byte	24,198,24,198
000037dc 18c618c6       8063 	.byte	24,198,24,198
000037e0 18c618c6       8064 	.byte	24,198,24,198
000037e4 18c618c6       8065 	.byte	24,198,24,198
000037e8 18c618c6       8066 	.byte	24,198,24,198
000037ec 18c618c6       8067 	.byte	24,198,24,198
000037f0 18c618c6       8068 	.byte	24,198,24,198
000037f4 18c618c6       8069 	.byte	24,198,24,198
000037f8 18c618c6       8070 	.byte	24,198,24,198
000037fc 18c618c6       8071 	.byte	24,198,24,198
00003800 18c618c6       8072 	.byte	24,198,24,198
00003804 18c618c6       8073 	.byte	24,198,24,198
00003808 18c618c6       8074 	.byte	24,198,24,198
0000380c 18c618c6       8075 	.byte	24,198,24,198
00003810 18c618c6       8076 	.byte	24,198,24,198
00003814 18c618c6       8077 	.byte	24,198,24,198
00003818 18c618c6       8078 	.byte	24,198,24,198
0000381c 18c618c6       8079 	.byte	24,198,24,198
00003820 18c618c6       8080 	.byte	24,198,24,198
00003824 18c618c6       8081 	.byte	24,198,24,198
00003828 18c618c6       8082 	.byte	24,198,24,198
0000382c 18c618c6       8083 	.byte	24,198,24,198
00003830 18c618c6       8084 	.byte	24,198,24,198
00003834 18c618c6       8085 	.byte	24,198,24,198
00003838 18c618c6       8086 	.byte	24,198,24,198
0000383c 18c618c6       8087 	.byte	24,198,24,198
00003840 18c618c6       8088 	.byte	24,198,24,198
00003844 18c618c6       8089 	.byte	24,198,24,198
00003848 18c618c6       8090 	.byte	24,198,24,198

                                                                      Page 146
                                                              C:\Users\NIKHIL~1.PAT\AppData\Local\Temp\gh_000aeoo1.s
0000384c 18c618c6       8091 	.byte	24,198,24,198
00003850 18c618c6       8092 	.byte	24,198,24,198
00003854 18c618c6       8093 	.byte	24,198,24,198
00003858 18c618c6       8094 	.byte	24,198,24,198
0000385c 18c618c6       8095 	.byte	24,198,24,198
00003860 18c618c6       8096 	.byte	24,198,24,198
00003864 18c618c6       8097 	.byte	24,198,24,198
00003868 18c618c6       8098 	.byte	24,198,24,198
0000386c 18c618c6       8099 	.byte	24,198,24,198
00003870 18c618c6       8100 	.byte	24,198,24,198
00003874 18c618c6       8101 	.byte	24,198,24,198
00003878 18c618c6       8102 	.byte	24,198,24,198
0000387c 18c618c6       8103 	.byte	24,198,24,198
00003880 18c618c6       8104 	.byte	24,198,24,198
00003884 18c618c6       8105 	.byte	24,198,24,198
00003888 18c618c6       8106 	.byte	24,198,24,198
0000388c 18c618c6       8107 	.byte	24,198,24,198
00003890 18c618c6       8108 	.byte	24,198,24,198
00003894 18c618c6       8109 	.byte	24,198,24,198
00003898 18c618c6       8110 	.byte	24,198,24,198
0000389c 18c618c6       8111 	.byte	24,198,24,198
000038a0 18c618c6       8112 	.byte	24,198,24,198
000038a4 18c618c6       8113 	.byte	24,198,24,198
000038a8 18c618c6       8114 	.byte	24,198,24,198
000038ac 18c618c6       8115 	.byte	24,198,24,198
000038b0 18c618c6       8116 	.byte	24,198,24,198
000038b4 18c618c6       8117 	.byte	24,198,24,198
000038b8 18c618c6       8118 	.byte	24,198,24,198
000038bc 18c618c6       8119 	.byte	24,198,24,198
000038c0 18c618c6       8120 	.byte	24,198,24,198
000038c4 18c618c6       8121 	.byte	24,198,24,198
000038c8 18c618c6       8122 	.byte	24,198,24,198
000038cc 18c618c6       8123 	.byte	24,198,24,198
000038d0 18c618c6       8124 	.byte	24,198,24,198
000038d4 18c618c6       8125 	.byte	24,198,24,198
000038d8 18c618c6       8126 	.byte	24,198,24,198
000038dc 18c618c6       8127 	.byte	24,198,24,198
000038e0 18c618c6       8128 	.byte	24,198,24,198
000038e4 18c618c6       8129 	.byte	24,198,24,198
000038e8 18c618c6       8130 	.byte	24,198,24,198
000038ec 18c618c6       8131 	.byte	24,198,24,198
000038f0 18c618c6       8132 	.byte	24,198,24,198
000038f4 18c618c6       8133 	.byte	24,198,24,198
000038f8 18c618c6       8134 	.byte	24,198,24,198
000038fc 18c618c6       8135 	.byte	24,198,24,198
00003900 18c618c6       8136 	.byte	24,198,24,198
00003904 18c618c6       8137 	.byte	24,198,24,198
00003908 18c618c6       8138 	.byte	24,198,24,198
0000390c 18c618c6       8139 	.byte	24,198,24,198
00003910 18c618c6       8140 	.byte	24,198,24,198
00003914 18c618c6       8141 	.byte	24,198,24,198
00003918 18c618c6       8142 	.byte	24,198,24,198
0000391c 18c618c6       8143 	.byte	24,198,24,198
00003920 18c618c6       8144 	.byte	24,198,24,198
00003924 18c618c6       8145 	.byte	24,198,24,198
00003928 18c618c6       8146 	.byte	24,198,24,198
0000392c 18c618c6       8147 	.byte	24,198,24,198
00003930 18c618c6       8148 	.byte	24,198,24,198
00003934 18c618c6       8149 	.byte	24,198,24,198
00003938 18c618c6       8150 	.byte	24,198,24,198
0000393c 18c618c6       8151 	.byte	24,198,24,198

                                                                      Page 147
                                                              C:\Users\NIKHIL~1.PAT\AppData\Local\Temp\gh_000aeoo1.s
00003940 18c618c6       8152 	.byte	24,198,24,198
00003944 18c618c6       8153 	.byte	24,198,24,198
00003948 18c618c6       8154 	.byte	24,198,24,198
0000394c 18c618c6       8155 	.byte	24,198,24,198
00003950 18c618c6       8156 	.byte	24,198,24,198
00003954 18c618c6       8157 	.byte	24,198,24,198
00003958 18c618c6       8158 	.byte	24,198,24,198
0000395c 18c618c6       8159 	.byte	24,198,24,198
00003960 18c618c6       8160 	.byte	24,198,24,198
00003964 18c618c6       8161 	.byte	24,198,24,198
00003968 18c618c6       8162 	.byte	24,198,24,198
0000396c 18c618c6       8163 	.byte	24,198,24,198
00003970 18c618c6       8164 	.byte	24,198,24,198
00003974 18c618c6       8165 	.byte	24,198,24,198
00003978 18c618c6       8166 	.byte	24,198,24,198
0000397c 18c618c6       8167 	.byte	24,198,24,198
00003980 18c618c6       8168 	.byte	24,198,24,198
00003984 18c618c6       8169 	.byte	24,198,24,198
00003988 18c618c6       8170 	.byte	24,198,24,198
0000398c 18c618c6       8171 	.byte	24,198,24,198
00003990 18c618c6       8172 	.byte	24,198,24,198
00003994 18c618c6       8173 	.byte	24,198,24,198
00003998 18c618c6       8174 	.byte	24,198,24,198
0000399c 18c618c6       8175 	.byte	24,198,24,198
000039a0 18c618c6       8176 	.byte	24,198,24,198
000039a4 18c618c6       8177 	.byte	24,198,24,198
000039a8 18c618c6       8178 	.byte	24,198,24,198
000039ac 18c618c6       8179 	.byte	24,198,24,198
000039b0 18c618c6       8180 	.byte	24,198,24,198
000039b4 18c618c6       8181 	.byte	24,198,24,198
000039b8 18c618c6       8182 	.byte	24,198,24,198
000039bc 18c618c6       8183 	.byte	24,198,24,198
000039c0 18c618c6       8184 	.byte	24,198,24,198
000039c4 18c618c6       8185 	.byte	24,198,24,198
000039c8 18c618c6       8186 	.byte	24,198,24,198
000039cc 18c618c6       8187 	.byte	24,198,24,198
000039d0 18c618c6       8188 	.byte	24,198,24,198
000039d4 18c618c6       8189 	.byte	24,198,24,198
000039d8 18c618c6       8190 	.byte	24,198,24,198
000039dc 18c618c6       8191 	.byte	24,198,24,198
000039e0 18c618c6       8192 	.byte	24,198,24,198
000039e4 18c618c6       8193 	.byte	24,198,24,198
000039e8 18c618c6       8194 	.byte	24,198,24,198
000039ec 18c618c6       8195 	.byte	24,198,24,198
000039f0 18c618c6       8196 	.byte	24,198,24,198
000039f4 18c618c6       8197 	.byte	24,198,24,198
000039f8 18c618c6       8198 	.byte	24,198,24,198
000039fc 18c618c6       8199 	.byte	24,198,24,198
00003a00 18c618c6       8200 	.byte	24,198,24,198
00003a04 18c618c6       8201 	.byte	24,198,24,198
00003a08 18c618c6       8202 	.byte	24,198,24,198
00003a0c 18c618c6       8203 	.byte	24,198,24,198
00003a10 18c618c6       8204 	.byte	24,198,24,198
00003a14 18c618c6       8205 	.byte	24,198,24,198
00003a18 18c618c6       8206 	.byte	24,198,24,198
00003a1c 18c618c6       8207 	.byte	24,198,24,198
00003a20 18c618c6       8208 	.byte	24,198,24,198
00003a24 18c618c6       8209 	.byte	24,198,24,198
00003a28 18c618c6       8210 	.byte	24,198,24,198
00003a2c 18c618c6       8211 	.byte	24,198,24,198
00003a30 18c618c6       8212 	.byte	24,198,24,198

                                                                      Page 148
                                                              C:\Users\NIKHIL~1.PAT\AppData\Local\Temp\gh_000aeoo1.s
00003a34 18c618c6       8213 	.byte	24,198,24,198
00003a38 18c618c6       8214 	.byte	24,198,24,198
00003a3c 18c618c6       8215 	.byte	24,198,24,198
00003a40 18c618c6       8216 	.byte	24,198,24,198
00003a44 18c618c6       8217 	.byte	24,198,24,198
00003a48 18c618c6       8218 	.byte	24,198,24,198
00003a4c 18c618c6       8219 	.byte	24,198,24,198
00003a50 18c618c6       8220 	.byte	24,198,24,198
00003a54 18c618c6       8221 	.byte	24,198,24,198
00003a58 18c618c6       8222 	.byte	24,198,24,198
00003a5c 18c618c6       8223 	.byte	24,198,24,198
00003a60 18c618c6       8224 	.byte	24,198,24,198
00003a64 18c618c6       8225 	.byte	24,198,24,198
00003a68 18c618c6       8226 	.byte	24,198,24,198
00003a6c 18c618c6       8227 	.byte	24,198,24,198
00003a70 18c618c6       8228 	.byte	24,198,24,198
00003a74 18c618c6       8229 	.byte	24,198,24,198
00003a78 18c618c6       8230 	.byte	24,198,24,198
00003a7c 18c618c6       8231 	.byte	24,198,24,198
00003a80 18c618c6       8232 	.byte	24,198,24,198
00003a84 18c618c6       8233 	.byte	24,198,24,198
00003a88 18c618c6       8234 	.byte	24,198,24,198
00003a8c 18c618c6       8235 	.byte	24,198,24,198
00003a90 18c618c6       8236 	.byte	24,198,24,198
00003a94 18c618c6       8237 	.byte	24,198,24,198
00003a98 18c618c6       8238 	.byte	24,198,24,198
00003a9c 18c618c6       8239 	.byte	24,198,24,198
00003aa0 18c618c6       8240 	.byte	24,198,24,198
00003aa4 18c618c6       8241 	.byte	24,198,24,198
00003aa8 18c618c6       8242 	.byte	24,198,24,198
00003aac 18c618c6       8243 	.byte	24,198,24,198
00003ab0 18c618c6       8244 	.byte	24,198,24,198
00003ab4 18c618c6       8245 	.byte	24,198,24,198
00003ab8 18c618c6       8246 	.byte	24,198,24,198
00003abc 18c618c6       8247 	.byte	24,198,24,198
00003ac0 18c618c6       8248 	.byte	24,198,24,198
00003ac4 18c618c6       8249 	.byte	24,198,24,198
00003ac8 18c618c6       8250 	.byte	24,198,24,198
00003acc 18c618c6       8251 	.byte	24,198,24,198
00003ad0 18c618c6       8252 	.byte	24,198,24,198
00003ad4 18c618c6       8253 	.byte	24,198,24,198
00003ad8 18c618c6       8254 	.byte	24,198,24,198
00003adc 18c618c6       8255 	.byte	24,198,24,198
00003ae0 18c618c6       8256 	.byte	24,198,24,198
00003ae4 18c618c6       8257 	.byte	24,198,24,198
00003ae8 18c618c6       8258 	.byte	24,198,24,198
00003aec 18c618c6       8259 	.byte	24,198,24,198
00003af0 18c618c6       8260 	.byte	24,198,24,198
00003af4 18c618c6       8261 	.byte	24,198,24,198
00003af8 18c618c6       8262 	.byte	24,198,24,198
00003afc 18c618c6       8263 	.byte	24,198,24,198
00003b00 18c618c6       8264 	.byte	24,198,24,198
00003b04 18c618c6       8265 	.byte	24,198,24,198
00003b08 18c618c6       8266 	.byte	24,198,24,198
00003b0c 18c618c6       8267 	.byte	24,198,24,198
00003b10 18c618c6       8268 	.byte	24,198,24,198
00003b14 18c618c6       8269 	.byte	24,198,24,198
00003b18 18c618c6       8270 	.byte	24,198,24,198
00003b1c 18c618c6       8271 	.byte	24,198,24,198
00003b20 18c618c6       8272 	.byte	24,198,24,198
00003b24 18c618c6       8273 	.byte	24,198,24,198

                                                                      Page 149
                                                              C:\Users\NIKHIL~1.PAT\AppData\Local\Temp\gh_000aeoo1.s
00003b28 18c618c6       8274 	.byte	24,198,24,198
00003b2c 18c618c6       8275 	.byte	24,198,24,198
00003b30 18c618c6       8276 	.byte	24,198,24,198
00003b34 18c618c6       8277 	.byte	24,198,24,198
00003b38 18c618c6       8278 	.byte	24,198,24,198
00003b3c 18c618c6       8279 	.byte	24,198,24,198
00003b40 18c618c6       8280 	.byte	24,198,24,198
00003b44 18c618c6       8281 	.byte	24,198,24,198
00003b48 18c618c6       8282 	.byte	24,198,24,198
00003b4c 18c618c6       8283 	.byte	24,198,24,198
00003b50 18c618c6       8284 	.byte	24,198,24,198
00003b54 18c618c6       8285 	.byte	24,198,24,198
00003b58 18c618c6       8286 	.byte	24,198,24,198
00003b5c 18c618c6       8287 	.byte	24,198,24,198
00003b60 18c618c6       8288 	.byte	24,198,24,198
00003b64 18c618c6       8289 	.byte	24,198,24,198
00003b68 18c618c6       8290 	.byte	24,198,24,198
00003b6c 18c618c6       8291 	.byte	24,198,24,198
00003b70 18c618c6       8292 	.byte	24,198,24,198
00003b74 18c618c6       8293 	.byte	24,198,24,198
00003b78 18c618c6       8294 	.byte	24,198,24,198
00003b7c 18c618c6       8295 	.byte	24,198,24,198
00003b80 18c618c6       8296 	.byte	24,198,24,198
00003b84 18c618c6       8297 	.byte	24,198,24,198
00003b88 18c618c6       8298 	.byte	24,198,24,198
00003b8c 18c618c6       8299 	.byte	24,198,24,198
00003b90 18c618c6       8300 	.byte	24,198,24,198
00003b94 18c618c6       8301 	.byte	24,198,24,198
00003b98 18c618c6       8302 	.byte	24,198,24,198
00003b9c 18c618c6       8303 	.byte	24,198,24,198
00003ba0 18c618c6       8304 	.byte	24,198,24,198
00003ba4 18c618c6       8305 	.byte	24,198,24,198
00003ba8 18c618c6       8306 	.byte	24,198,24,198
00003bac 18c618c6       8307 	.byte	24,198,24,198
00003bb0 18c618c6       8308 	.byte	24,198,24,198
00003bb4 18c618c6       8309 	.byte	24,198,24,198
00003bb8 18c618c6       8310 	.byte	24,198,24,198
00003bbc 18c618c6       8311 	.byte	24,198,24,198
00003bc0 18c618c6       8312 	.byte	24,198,24,198
00003bc4 18c618c6       8313 	.byte	24,198,24,198
00003bc8 18c618c6       8314 	.byte	24,198,24,198
00003bcc 18c618c6       8315 	.byte	24,198,24,198
00003bd0 18c618c6       8316 	.byte	24,198,24,198
00003bd4 18c618c6       8317 	.byte	24,198,24,198
00003bd8 18c618c6       8318 	.byte	24,198,24,198
00003bdc 18c618c6       8319 	.byte	24,198,24,198
00003be0 18c618c6       8320 	.byte	24,198,24,198
00003be4 18c618c6       8321 	.byte	24,198,24,198
00003be8 18c618c6       8322 	.byte	24,198,24,198
00003bec 18c618c6       8323 	.byte	24,198,24,198
00003bf0 18c618c6       8324 	.byte	24,198,24,198
00003bf4 18c618c6       8325 	.byte	24,198,24,198
00003bf8 18c618c6       8326 	.byte	24,198,24,198
00003bfc 18c618c6       8327 	.byte	24,198,24,198
00003c00 18c618c6       8328 	.byte	24,198,24,198
00003c04 18c618c6       8329 	.byte	24,198,24,198
00003c08 18c618c6       8330 	.byte	24,198,24,198
00003c0c 18c618c6       8331 	.byte	24,198,24,198
00003c10 18c6ae73       8332 	.byte	24,198,174,115
00003c14 04214108       8333 	.byte	4,33,65,8
00003c18 04212c63       8334 	.byte	4,33,44,99

                                                                      Page 150
                                                              C:\Users\NIKHIL~1.PAT\AppData\Local\Temp\gh_000aeoo1.s
00003c1c 18c618c6       8335 	.byte	24,198,24,198
00003c20 18c617be       8336 	.byte	24,198,23,190
00003c24 a318a318       8337 	.byte	163,24,163,24
00003c28 17be18c6       8338 	.byte	23,190,24,198
00003c2c 18c618c6       8339 	.byte	24,198,24,198
00003c30 00             8340 	.space	1
00003c31 00             8341 	.space	1
00003c32 718c18c6       8342 	.byte	113,140,24,198
00003c36 18c618c6       8343 	.byte	24,198,24,198
00003c3a 00             8344 	.space	1
00003c3b 00             8345 	.space	1
00003c3c 18c618c6       8346 	.byte	24,198,24,198
00003c40 18c618c6       8347 	.byte	24,198,24,198
00003c44 18c618c6       8348 	.byte	24,198,24,198
00003c48 18c6           8349 	.byte	24,198
00003c4a 00             8350 	.space	1
00003c4b 00             8351 	.space	1
00003c4c 00             8352 	.space	1
00003c4d 00             8353 	.space	1
00003c4e 00             8354 	.space	1
00003c4f 00             8355 	.space	1
00003c50 00             8356 	.space	1
00003c51 00             8357 	.space	1
00003c52 00             8358 	.space	1
00003c53 00             8359 	.space	1
00003c54 18c6           8360 	.byte	24,198
00003c56 00             8361 	.space	1
00003c57 00             8362 	.space	1
00003c58 00             8363 	.space	1
00003c59 00             8364 	.space	1
00003c5a 41084529       8365 	.byte	65,8,69,41
00003c5e ef7b18c6       8366 	.byte	239,123,24,198
00003c62 18c618c6       8367 	.byte	24,198,24,198
00003c66 18c618c6       8368 	.byte	24,198,24,198
00003c6a 18c618c6       8369 	.byte	24,198,24,198
00003c6e 18c618c6       8370 	.byte	24,198,24,198
00003c72 18c618c6       8371 	.byte	24,198,24,198
00003c76 18c618c6       8372 	.byte	24,198,24,198
00003c7a 18c618c6       8373 	.byte	24,198,24,198
00003c7e 18c618c6       8374 	.byte	24,198,24,198
00003c82 18c618c6       8375 	.byte	24,198,24,198
00003c86 18c618c6       8376 	.byte	24,198,24,198
00003c8a 18c618c6       8377 	.byte	24,198,24,198
00003c8e 18c618c6       8378 	.byte	24,198,24,198
00003c92 18c618c6       8379 	.byte	24,198,24,198
00003c96 18c618c6       8380 	.byte	24,198,24,198
00003c9a 18c618c6       8381 	.byte	24,198,24,198
00003c9e 18c618c6       8382 	.byte	24,198,24,198
00003ca2 18c6           8383 	.byte	24,198
00003ca4 00             8384 	.space	1
00003ca5 00             8385 	.space	1
00003ca6 18c618c6       8386 	.byte	24,198,24,198
00003caa 18c618c6       8387 	.byte	24,198,24,198
00003cae 18c618c6       8388 	.byte	24,198,24,198
00003cb2 18c618c6       8389 	.byte	24,198,24,198
00003cb6 18c618c6       8390 	.byte	24,198,24,198
00003cba 18c618c6       8391 	.byte	24,198,24,198
00003cbe 18c618c6       8392 	.byte	24,198,24,198
00003cc2 18c618c6       8393 	.byte	24,198,24,198
00003cc6 18c618c6       8394 	.byte	24,198,24,198
00003cca 18c618c6       8395 	.byte	24,198,24,198

                                                                      Page 151
                                                              C:\Users\NIKHIL~1.PAT\AppData\Local\Temp\gh_000aeoo1.s
00003cce 18c618c6       8396 	.byte	24,198,24,198
00003cd2 18c618c6       8397 	.byte	24,198,24,198
00003cd6 18c618c6       8398 	.byte	24,198,24,198
00003cda 18c618c6       8399 	.byte	24,198,24,198
00003cde 18c618c6       8400 	.byte	24,198,24,198
00003ce2 18c618c6       8401 	.byte	24,198,24,198
00003ce6 18c618c6       8402 	.byte	24,198,24,198
00003cea 18c618c6       8403 	.byte	24,198,24,198
00003cee 18c618c6       8404 	.byte	24,198,24,198
00003cf2 18c618c6       8405 	.byte	24,198,24,198
00003cf6 18c618c6       8406 	.byte	24,198,24,198
00003cfa 18c618c6       8407 	.byte	24,198,24,198
00003cfe 18c618c6       8408 	.byte	24,198,24,198
00003d02 18c618c6       8409 	.byte	24,198,24,198
00003d06 18c618c6       8410 	.byte	24,198,24,198
00003d0a 18c618c6       8411 	.byte	24,198,24,198
00003d0e 18c68e73       8412 	.byte	24,198,142,115
00003d12 2421d39c       8413 	.byte	36,33,211,156
00003d16 f7bd139d       8414 	.byte	247,189,19,157
00003d1a e73918c6       8415 	.byte	231,57,24,198
00003d1e 18c618c6       8416 	.byte	24,198,24,198
00003d22 1084c739       8417 	.byte	16,132,199,57
00003d26 c7393084       8418 	.byte	199,57,48,132
00003d2a 18c618c6       8419 	.byte	24,198,24,198
00003d2e 18c6           8420 	.byte	24,198
00003d30 00             8421 	.space	1
00003d31 00             8422 	.space	1
00003d32 cf7b34a5       8423 	.byte	207,123,52,165
00003d36 18c618c6       8424 	.byte	24,198,24,198
00003d3a 00             8425 	.space	1
00003d3b 00             8426 	.space	1
00003d3c 18c618c6       8427 	.byte	24,198,24,198
00003d40 18c618c6       8428 	.byte	24,198,24,198
00003d44 18c618c6       8429 	.byte	24,198,24,198
00003d48 18c6           8430 	.byte	24,198
00003d4a 00             8431 	.space	1
00003d4b 00             8432 	.space	1
00003d4c 18c618c6       8433 	.byte	24,198,24,198
00003d50 18c618c6       8434 	.byte	24,198,24,198
00003d54 18c6           8435 	.byte	24,198
00003d56 00             8436 	.space	1
00003d57 00             8437 	.space	1
00003d58 18c6d7bd       8438 	.byte	24,198,215,189
00003d5c 718c0421       8439 	.byte	113,140,4,33
00003d60 ae7318c6       8440 	.byte	174,115,24,198
00003d64 18c618c6       8441 	.byte	24,198,24,198
00003d68 18c618c6       8442 	.byte	24,198,24,198
00003d6c 18c618c6       8443 	.byte	24,198,24,198
00003d70 18c618c6       8444 	.byte	24,198,24,198
00003d74 18c618c6       8445 	.byte	24,198,24,198
00003d78 18c618c6       8446 	.byte	24,198,24,198
00003d7c 18c618c6       8447 	.byte	24,198,24,198
00003d80 18c618c6       8448 	.byte	24,198,24,198
00003d84 18c618c6       8449 	.byte	24,198,24,198
00003d88 18c618c6       8450 	.byte	24,198,24,198
00003d8c 18c6           8451 	.byte	24,198
00003d8e 00             8452 	.space	1
00003d8f 00             8453 	.space	1
00003d90 00             8454 	.space	1
00003d91 00             8455 	.space	1
00003d92 00             8456 	.space	1

                                                                      Page 152
                                                              C:\Users\NIKHIL~1.PAT\AppData\Local\Temp\gh_000aeoo1.s
00003d93 00             8457 	.space	1
00003d94 00             8458 	.space	1
00003d95 00             8459 	.space	1
00003d96 00             8460 	.space	1
00003d97 00             8461 	.space	1
00003d98 18c618c6       8462 	.byte	24,198,24,198
00003d9c 18c618c6       8463 	.byte	24,198,24,198
00003da0 18c618c6       8464 	.byte	24,198,24,198
00003da4 00             8465 	.space	1
00003da5 00             8466 	.space	1
00003da6 18c618c6       8467 	.byte	24,198,24,198
00003daa 18c618c6       8468 	.byte	24,198,24,198
00003dae 18c618c6       8469 	.byte	24,198,24,198
00003db2 18c618c6       8470 	.byte	24,198,24,198
00003db6 18c618c6       8471 	.byte	24,198,24,198
00003dba 18c618c6       8472 	.byte	24,198,24,198
00003dbe 18c618c6       8473 	.byte	24,198,24,198
00003dc2 18c618c6       8474 	.byte	24,198,24,198
00003dc6 18c618c6       8475 	.byte	24,198,24,198
00003dca 18c618c6       8476 	.byte	24,198,24,198
00003dce 18c618c6       8477 	.byte	24,198,24,198
00003dd2 18c618c6       8478 	.byte	24,198,24,198
00003dd6 18c618c6       8479 	.byte	24,198,24,198
00003dda 18c618c6       8480 	.byte	24,198,24,198
00003dde 18c618c6       8481 	.byte	24,198,24,198
00003de2 18c618c6       8482 	.byte	24,198,24,198
00003de6 18c618c6       8483 	.byte	24,198,24,198
00003dea 18c618c6       8484 	.byte	24,198,24,198
00003dee 18c618c6       8485 	.byte	24,198,24,198
00003df2 18c618c6       8486 	.byte	24,198,24,198
00003df6 18c618c6       8487 	.byte	24,198,24,198
00003dfa 18c618c6       8488 	.byte	24,198,24,198
00003dfe 18c618c6       8489 	.byte	24,198,24,198
00003e02 18c618c6       8490 	.byte	24,198,24,198
00003e06 18c618c6       8491 	.byte	24,198,24,198
00003e0a 18c618c6       8492 	.byte	24,198,24,198
00003e0e 18c6c318       8493 	.byte	24,198,195,24
00003e12 d39c18c6       8494 	.byte	211,156,24,198
00003e16 18c618c6       8495 	.byte	24,198,24,198
00003e1a 18c618c6       8496 	.byte	24,198,24,198
00003e1e 18c618c6       8497 	.byte	24,198,24,198
00003e22 8631518c       8498 	.byte	134,49,81,140
00003e26 30848631       8499 	.byte	48,132,134,49
00003e2a 18c618c6       8500 	.byte	24,198,24,198
00003e2e 18c6           8501 	.byte	24,198
00003e30 00             8502 	.space	1
00003e31 00             8503 	.space	1
00003e32 18c6eb5a       8504 	.byte	24,198,235,90
00003e36 b6b518c6       8505 	.byte	182,181,24,198
00003e3a 00             8506 	.space	1
00003e3b 00             8507 	.space	1
00003e3c 18c618c6       8508 	.byte	24,198,24,198
00003e40 18c618c6       8509 	.byte	24,198,24,198
00003e44 18c618c6       8510 	.byte	24,198,24,198
00003e48 18c6           8511 	.byte	24,198
00003e4a 00             8512 	.space	1
00003e4b 00             8513 	.space	1
00003e4c 18c618c6       8514 	.byte	24,198,24,198
00003e50 18c618c6       8515 	.byte	24,198,24,198
00003e54 18c6           8516 	.byte	24,198
00003e56 00             8517 	.space	1

                                                                      Page 153
                                                              C:\Users\NIKHIL~1.PAT\AppData\Local\Temp\gh_000aeoo1.s
00003e57 00             8518 	.space	1
00003e58 18c618c6       8519 	.byte	24,198,24,198
00003e5c 18c6f39c       8520 	.byte	24,198,243,156
00003e60 e42018c6       8521 	.byte	228,32,24,198
00003e64 18c618c6       8522 	.byte	24,198,24,198
00003e68 18c618c6       8523 	.byte	24,198,24,198
00003e6c 18c618c6       8524 	.byte	24,198,24,198
00003e70 18c618c6       8525 	.byte	24,198,24,198
00003e74 18c618c6       8526 	.byte	24,198,24,198
00003e78 18c618c6       8527 	.byte	24,198,24,198
00003e7c 18c618c6       8528 	.byte	24,198,24,198
00003e80 18c618c6       8529 	.byte	24,198,24,198
00003e84 18c618c6       8530 	.byte	24,198,24,198
00003e88 18c618c6       8531 	.byte	24,198,24,198
00003e8c 18c6           8532 	.byte	24,198
00003e8e 00             8533 	.space	1
00003e8f 00             8534 	.space	1
00003e90 18c618c6       8535 	.byte	24,198,24,198
00003e94 18c618c6       8536 	.byte	24,198,24,198
00003e98 18c618c6       8537 	.byte	24,198,24,198
00003e9c 00             8538 	.space	1
00003e9d 00             8539 	.space	1
00003e9e 18c618c6       8540 	.byte	24,198,24,198
00003ea2 18c6           8541 	.byte	24,198
00003ea4 00             8542 	.space	1
00003ea5 00             8543 	.space	1
00003ea6 18c618c6       8544 	.byte	24,198,24,198
00003eaa 18c618c6       8545 	.byte	24,198,24,198
00003eae 18c618c6       8546 	.byte	24,198,24,198
00003eb2 18c618c6       8547 	.byte	24,198,24,198
00003eb6 18c618c6       8548 	.byte	24,198,24,198
00003eba 18c618c6       8549 	.byte	24,198,24,198
00003ebe 18c618c6       8550 	.byte	24,198,24,198
00003ec2 18c618c6       8551 	.byte	24,198,24,198
00003ec6 18c618c6       8552 	.byte	24,198,24,198
00003eca 18c618c6       8553 	.byte	24,198,24,198
00003ece 18c618c6       8554 	.byte	24,198,24,198
00003ed2 18c618c6       8555 	.byte	24,198,24,198
00003ed6 18c618c6       8556 	.byte	24,198,24,198
00003eda 18c6           8557 	.byte	24,198
00003edc 00             8558 	.space	1
00003edd 00             8559 	.space	1
00003ede 18c618c6       8560 	.byte	24,198,24,198
00003ee2 18c618c6       8561 	.byte	24,198,24,198
00003ee6 18c618c6       8562 	.byte	24,198,24,198
00003eea 18c618c6       8563 	.byte	24,198,24,198
00003eee 18c618c6       8564 	.byte	24,198,24,198
00003ef2 18c618c6       8565 	.byte	24,198,24,198
00003ef6 18c618c6       8566 	.byte	24,198,24,198
00003efa 18c618c6       8567 	.byte	24,198,24,198
00003efe 18c618c6       8568 	.byte	24,198,24,198
00003f02 18c618c6       8569 	.byte	24,198,24,198
00003f06 18c618c6       8570 	.byte	24,198,24,198
00003f0a 18c618c6       8571 	.byte	24,198,24,198
00003f0e 18c6           8572 	.byte	24,198
00003f10 20             8573 	.byte	32
00003f11 00             8574 	.space	1
00003f12 d7bd18c6       8575 	.byte	215,189,24,198
00003f16 18c618c6       8576 	.byte	24,198,24,198
00003f1a 18c618c6       8577 	.byte	24,198,24,198
00003f1e 18c634a5       8578 	.byte	24,198,52,165

                                                                      Page 154
                                                              C:\Users\NIKHIL~1.PAT\AppData\Local\Temp\gh_000aeoo1.s
00003f22 c31818c6       8579 	.byte	195,24,24,198
00003f26 18c6a318       8580 	.byte	24,198,163,24
00003f2a 34a518c6       8581 	.byte	52,165,24,198
00003f2e 18c6           8582 	.byte	24,198
00003f30 00             8583 	.space	1
00003f31 00             8584 	.space	1
00003f32 18c6b6b5       8585 	.byte	24,198,182,181
00003f36 aa5218c6       8586 	.byte	170,82,24,198
00003f3a 00             8587 	.space	1
00003f3b 00             8588 	.space	1
00003f3c 18c618c6       8589 	.byte	24,198,24,198
00003f40 00             8590 	.space	1
00003f41 00             8591 	.space	1
00003f42 00             8592 	.space	1
00003f43 00             8593 	.space	1
00003f44 00             8594 	.space	1
00003f45 00             8595 	.space	1
00003f46 18c618c6       8596 	.byte	24,198,24,198
00003f4a 00             8597 	.space	1
00003f4b 00             8598 	.space	1
00003f4c 00             8599 	.space	1
00003f4d 00             8600 	.space	1
00003f4e 00             8601 	.space	1
00003f4f 00             8602 	.space	1
00003f50 00             8603 	.space	1
00003f51 00             8604 	.space	1
00003f52 18c618c6       8605 	.byte	24,198,24,198
00003f56 00             8606 	.space	1
00003f57 00             8607 	.space	1
00003f58 18c618c6       8608 	.byte	24,198,24,198
00003f5c 18c6f7bd       8609 	.byte	24,198,247,189
00003f60 210818c6       8610 	.byte	33,8,24,198
00003f64 18c618c6       8611 	.byte	24,198,24,198
00003f68 18c618c6       8612 	.byte	24,198,24,198
00003f6c 18c618c6       8613 	.byte	24,198,24,198
00003f70 18c618c6       8614 	.byte	24,198,24,198
00003f74 18c618c6       8615 	.byte	24,198,24,198
00003f78 18c618c6       8616 	.byte	24,198,24,198
00003f7c 18c618c6       8617 	.byte	24,198,24,198
00003f80 18c618c6       8618 	.byte	24,198,24,198
00003f84 18c618c6       8619 	.byte	24,198,24,198
00003f88 18c618c6       8620 	.byte	24,198,24,198
00003f8c 18c6           8621 	.byte	24,198
00003f8e 00             8622 	.space	1
00003f8f 00             8623 	.space	1
00003f90 18c618c6       8624 	.byte	24,198,24,198
00003f94 18c618c6       8625 	.byte	24,198,24,198
00003f98 18c6           8626 	.byte	24,198
00003f9a 00             8627 	.space	1
00003f9b 00             8628 	.space	1
00003f9c 00             8629 	.space	1
00003f9d 00             8630 	.space	1
00003f9e 00             8631 	.space	1
00003f9f 00             8632 	.space	1
00003fa0 00             8633 	.space	1
00003fa1 00             8634 	.space	1
00003fa2 18c6           8635 	.byte	24,198
00003fa4 00             8636 	.space	1
00003fa5 00             8637 	.space	1
00003fa6 294a6210       8638 	.byte	41,74,98,16
00003faa ef7b18c6       8639 	.byte	239,123,24,198

                                                                      Page 155
                                                              C:\Users\NIKHIL~1.PAT\AppData\Local\Temp\gh_000aeoo1.s
00003fae 18c6d294       8640 	.byte	24,198,210,148
00003fb2 e3188210       8641 	.byte	227,24,130,16
00003fb6 308418c6       8642 	.byte	48,132,24,198
00003fba 18c6           8643 	.byte	24,198
00003fbc 00             8644 	.space	1
00003fbd 00             8645 	.space	1
00003fbe f39c6210       8646 	.byte	243,156,98,16
00003fc2 18c6           8647 	.byte	24,198
00003fc4 00             8648 	.space	1
00003fc5 00             8649 	.space	1
00003fc6 294a6210       8650 	.byte	41,74,98,16
00003fca ef7b18c6       8651 	.byte	239,123,24,198
00003fce 18c6d294       8652 	.byte	24,198,210,148
00003fd2 e3188210       8653 	.byte	227,24,130,16
00003fd6 308418c6       8654 	.byte	48,132,24,198
00003fda 00             8655 	.space	1
00003fdb 00             8656 	.space	1
00003fdc 00             8657 	.space	1
00003fdd 00             8658 	.space	1
00003fde 00             8659 	.space	1
00003fdf 00             8660 	.space	1
00003fe0 00             8661 	.space	1
00003fe1 00             8662 	.space	1
00003fe2 18c618c6       8663 	.byte	24,198,24,198
00003fe6 18c618c6       8664 	.byte	24,198,24,198
00003fea 18c618c6       8665 	.byte	24,198,24,198
00003fee 18c618c6       8666 	.byte	24,198,24,198
00003ff2 18c618c6       8667 	.byte	24,198,24,198
00003ff6 18c618c6       8668 	.byte	24,198,24,198
00003ffa 18c618c6       8669 	.byte	24,198,24,198
00003ffe 18c618c6       8670 	.byte	24,198,24,198
00004002 18c618c6       8671 	.byte	24,198,24,198
00004006 18c618c6       8672 	.byte	24,198,24,198
0000400a 18c618c6       8673 	.byte	24,198,24,198
0000400e 18c6c318       8674 	.byte	24,198,195,24
00004012 d39c18c6       8675 	.byte	211,156,24,198
00004016 18c618c6       8676 	.byte	24,198,24,198
0000401a 18c618c6       8677 	.byte	24,198,24,198
0000401e 18c68a52       8678 	.byte	24,198,138,82
00004022 00             8679 	.space	1
00004023 00             8680 	.space	1
00004024 00             8681 	.space	1
00004025 00             8682 	.space	1
00004026 00             8683 	.space	1
00004027 00             8684 	.space	1
00004028 00             8685 	.space	1
00004029 00             8686 	.space	1
0000402a 8a5218c6       8687 	.byte	138,82,24,198
0000402e 18c6           8688 	.byte	24,198
00004030 00             8689 	.space	1
00004031 00             8690 	.space	1
00004032 18c618c6       8691 	.byte	24,198,24,198
00004036 d39c0c63       8692 	.byte	211,156,12,99
0000403a 00             8693 	.space	1
0000403b 00             8694 	.space	1
0000403c 18c618c6       8695 	.byte	24,198,24,198
00004040 18c618c6       8696 	.byte	24,198,24,198
00004044 18c618c6       8697 	.byte	24,198,24,198
00004048 18c6           8698 	.byte	24,198
0000404a 00             8699 	.space	1
0000404b 00             8700 	.space	1

                                                                      Page 156
                                                              C:\Users\NIKHIL~1.PAT\AppData\Local\Temp\gh_000aeoo1.s
0000404c 18c618c6       8701 	.byte	24,198,24,198
00004050 18c618c6       8702 	.byte	24,198,24,198
00004054 18c6           8703 	.byte	24,198
00004056 00             8704 	.space	1
00004057 00             8705 	.space	1
00004058 18c618c6       8706 	.byte	24,198,24,198
0000405c 18c6f39c       8707 	.byte	24,198,243,156
00004060 042118c6       8708 	.byte	4,33,24,198
00004064 18c618c6       8709 	.byte	24,198,24,198
00004068 18c618c6       8710 	.byte	24,198,24,198
0000406c 18c618c6       8711 	.byte	24,198,24,198
00004070 18c618c6       8712 	.byte	24,198,24,198
00004074 18c618c6       8713 	.byte	24,198,24,198
00004078 18c618c6       8714 	.byte	24,198,24,198
0000407c 18c618c6       8715 	.byte	24,198,24,198
00004080 18c618c6       8716 	.byte	24,198,24,198
00004084 18c618c6       8717 	.byte	24,198,24,198
00004088 18c618c6       8718 	.byte	24,198,24,198
0000408c 18c6           8719 	.byte	24,198
0000408e 00             8720 	.space	1
0000408f 00             8721 	.space	1
00004090 00             8722 	.space	1
00004091 00             8723 	.space	1
00004092 00             8724 	.space	1
00004093 00             8725 	.space	1
00004094 00             8726 	.space	1
00004095 00             8727 	.space	1
00004096 18c618c6       8728 	.byte	24,198,24,198
0000409a 18c6           8729 	.byte	24,198
0000409c 00             8730 	.space	1
0000409d 00             8731 	.space	1
0000409e 18c618c6       8732 	.byte	24,198,24,198
000040a2 18c6           8733 	.byte	24,198
000040a4 00             8734 	.space	1
000040a5 00             8735 	.space	1
000040a6 b29414a5       8736 	.byte	178,148,20,165
000040aa a31818c6       8737 	.byte	163,24,24,198
000040ae 18c62421       8738 	.byte	24,198,36,33
000040b2 9294d39c       8739 	.byte	146,148,211,156
000040b6 e42018c6       8740 	.byte	228,32,24,198
000040ba 18c6           8741 	.byte	24,198
000040bc 00             8742 	.space	1
000040bd 00             8743 	.space	1
000040be 718c18c6       8744 	.byte	113,140,24,198
000040c2 18c6           8745 	.byte	24,198
000040c4 00             8746 	.space	1
000040c5 00             8747 	.space	1
000040c6 b29414a5       8748 	.byte	178,148,20,165
000040ca a31818c6       8749 	.byte	163,24,24,198
000040ce 18c62421       8750 	.byte	24,198,36,33
000040d2 9294d39c       8751 	.byte	146,148,211,156
000040d6 e42018c6       8752 	.byte	228,32,24,198
000040da 18c6           8753 	.byte	24,198
000040dc 00             8754 	.space	1
000040dd 00             8755 	.space	1
000040de 18c618c6       8756 	.byte	24,198,24,198
000040e2 18c618c6       8757 	.byte	24,198,24,198
000040e6 18c618c6       8758 	.byte	24,198,24,198
000040ea 18c618c6       8759 	.byte	24,198,24,198
000040ee 18c618c6       8760 	.byte	24,198,24,198
000040f2 18c618c6       8761 	.byte	24,198,24,198

                                                                      Page 157
                                                              C:\Users\NIKHIL~1.PAT\AppData\Local\Temp\gh_000aeoo1.s
000040f6 18c618c6       8762 	.byte	24,198,24,198
000040fa 18c618c6       8763 	.byte	24,198,24,198
000040fe 18c618c6       8764 	.byte	24,198,24,198
00004102 18c618c6       8765 	.byte	24,198,24,198
00004106 18c618c6       8766 	.byte	24,198,24,198
0000410a 18c618c6       8767 	.byte	24,198,24,198
0000410e 18c61084       8768 	.byte	24,198,16,132
00004112 6529d39c       8769 	.byte	101,41,211,156
00004116 f7bd14a5       8770 	.byte	247,189,20,165
0000411a 084218c6       8771 	.byte	8,66,24,198
0000411e d7bd8210       8772 	.byte	215,189,130,16
00004122 96b518c6       8773 	.byte	150,181,24,198
00004126 18c696b5       8774 	.byte	24,198,150,181
0000412a 6210d7bd       8775 	.byte	98,16,215,189
0000412e 18c6           8776 	.byte	24,198
00004130 00             8777 	.space	1
00004131 00             8778 	.space	1
00004132 18c618c6       8779 	.byte	24,198,24,198
00004136 18c66d6b       8780 	.byte	24,198,109,107
0000413a 00             8781 	.space	1
0000413b 00             8782 	.space	1
0000413c 18c618c6       8783 	.byte	24,198,24,198
00004140 18c618c6       8784 	.byte	24,198,24,198
00004144 18c618c6       8785 	.byte	24,198,24,198
00004148 18c6           8786 	.byte	24,198
0000414a 00             8787 	.space	1
0000414b 00             8788 	.space	1
0000414c 18c618c6       8789 	.byte	24,198,24,198
00004150 18c618c6       8790 	.byte	24,198,24,198
00004154 18c6           8791 	.byte	24,198
00004156 00             8792 	.space	1
00004157 00             8793 	.space	1
00004158 18c6d7bd       8794 	.byte	24,198,215,189
0000415c 92940421       8795 	.byte	146,148,4,33
00004160 cf7b18c6       8796 	.byte	207,123,24,198
00004164 18c618c6       8797 	.byte	24,198,24,198
00004168 18c618c6       8798 	.byte	24,198,24,198
0000416c 18c618c6       8799 	.byte	24,198,24,198
00004170 18c618c6       8800 	.byte	24,198,24,198
00004174 18c618c6       8801 	.byte	24,198,24,198
00004178 18c618c6       8802 	.byte	24,198,24,198
0000417c 18c618c6       8803 	.byte	24,198,24,198
00004180 18c618c6       8804 	.byte	24,198,24,198
00004184 18c618c6       8805 	.byte	24,198,24,198
00004188 18c618c6       8806 	.byte	24,198,24,198
0000418c 18c6           8807 	.byte	24,198
0000418e 00             8808 	.space	1
0000418f 00             8809 	.space	1
00004190 18c618c6       8810 	.byte	24,198,24,198
00004194 18c618c6       8811 	.byte	24,198,24,198
00004198 18c618c6       8812 	.byte	24,198,24,198
0000419c 00             8813 	.space	1
0000419d 00             8814 	.space	1
0000419e 18c618c6       8815 	.byte	24,198,24,198
000041a2 18c6           8816 	.byte	24,198
000041a4 00             8817 	.space	1
000041a5 00             8818 	.space	1
000041a6 18c618c6       8819 	.byte	24,198,24,198
000041aa 00             8820 	.space	1
000041ab 00             8821 	.space	1
000041ac 18c618c6       8822 	.byte	24,198,24,198

                                                                      Page 158
                                                              C:\Users\NIKHIL~1.PAT\AppData\Local\Temp\gh_000aeoo1.s
000041b0 2108           8823 	.byte	33,8
000041b2 00             8824 	.space	1
000041b3 00             8825 	.space	1
000041b4 00             8826 	.space	1
000041b5 00             8827 	.space	1
000041b6 00             8828 	.space	1
000041b7 00             8829 	.space	1
000041b8 18c618c6       8830 	.byte	24,198,24,198
000041bc 00             8831 	.space	1
000041bd 00             8832 	.space	1
000041be 18c618c6       8833 	.byte	24,198,24,198
000041c2 18c6           8834 	.byte	24,198
000041c4 00             8835 	.space	1
000041c5 00             8836 	.space	1
000041c6 18c618c6       8837 	.byte	24,198,24,198
000041ca 00             8838 	.space	1
000041cb 00             8839 	.space	1
000041cc 18c618c6       8840 	.byte	24,198,24,198
000041d0 2108           8841 	.byte	33,8
000041d2 00             8842 	.space	1
000041d3 00             8843 	.space	1
000041d4 00             8844 	.space	1
000041d5 00             8845 	.space	1
000041d6 00             8846 	.space	1
000041d7 00             8847 	.space	1
000041d8 18c618c6       8848 	.byte	24,198,24,198
000041dc 00             8849 	.space	1
000041dd 00             8850 	.space	1
000041de 18c618c6       8851 	.byte	24,198,24,198
000041e2 18c618c6       8852 	.byte	24,198,24,198
000041e6 18c618c6       8853 	.byte	24,198,24,198
000041ea 18c618c6       8854 	.byte	24,198,24,198
000041ee 18c618c6       8855 	.byte	24,198,24,198
000041f2 18c618c6       8856 	.byte	24,198,24,198
000041f6 18c618c6       8857 	.byte	24,198,24,198
000041fa 18c618c6       8858 	.byte	24,198,24,198
000041fe 18c618c6       8859 	.byte	24,198,24,198
00004202 18c618c6       8860 	.byte	24,198,24,198
00004206 18c618c6       8861 	.byte	24,198,24,198
0000420a 18c618c6       8862 	.byte	24,198,24,198
0000420e 18c618c6       8863 	.byte	24,198,24,198
00004212 f39ce420       8864 	.byte	243,156,228,32
00004216 2108c318       8865 	.byte	33,8,195,24
0000421a 4d6b18c6       8866 	.byte	77,107,24,198
0000421e 8e732842       8867 	.byte	142,115,40,66
00004222 18c618c6       8868 	.byte	24,198,24,198
00004226 18c618c6       8869 	.byte	24,198,24,198
0000422a 08428e73       8870 	.byte	8,66,142,115
0000422e 18c6           8871 	.byte	24,198
00004230 00             8872 	.space	1
00004231 00             8873 	.space	1
00004232 18c618c6       8874 	.byte	24,198,24,198
00004236 18c618c6       8875 	.byte	24,198,24,198
0000423a e73918c6       8876 	.byte	231,57,24,198
0000423e 18c618c6       8877 	.byte	24,198,24,198
00004242 18c618c6       8878 	.byte	24,198,24,198
00004246 18c618c6       8879 	.byte	24,198,24,198
0000424a 00             8880 	.space	1
0000424b 00             8881 	.space	1
0000424c 18c618c6       8882 	.byte	24,198,24,198
00004250 18c618c6       8883 	.byte	24,198,24,198

                                                                      Page 159
                                                              C:\Users\NIKHIL~1.PAT\AppData\Local\Temp\gh_000aeoo1.s
00004254 18c6           8884 	.byte	24,198
00004256 00             8885 	.space	1
00004257 00             8886 	.space	1
00004258 00             8887 	.space	1
00004259 00             8888 	.space	1
0000425a 21082529       8889 	.byte	33,8,37,41
0000425e ef7b18c6       8890 	.byte	239,123,24,198
00004262 18c618c6       8891 	.byte	24,198,24,198
00004266 18c618c6       8892 	.byte	24,198,24,198
0000426a 18c618c6       8893 	.byte	24,198,24,198
0000426e 18c618c6       8894 	.byte	24,198,24,198
00004272 18c618c6       8895 	.byte	24,198,24,198
00004276 18c618c6       8896 	.byte	24,198,24,198
0000427a 18c618c6       8897 	.byte	24,198,24,198
0000427e 18c618c6       8898 	.byte	24,198,24,198
00004282 18c618c6       8899 	.byte	24,198,24,198
00004286 18c618c6       8900 	.byte	24,198,24,198
0000428a 18c618c6       8901 	.byte	24,198,24,198
0000428e 00             8902 	.space	1
0000428f 00             8903 	.space	1
00004290 18c618c6       8904 	.byte	24,198,24,198
00004294 18c618c6       8905 	.byte	24,198,24,198
00004298 18c618c6       8906 	.byte	24,198,24,198
0000429c 621034a5       8907 	.byte	98,16,52,165
000042a0 18c618c6       8908 	.byte	24,198,24,198
000042a4 00             8909 	.space	1
000042a5 00             8910 	.space	1
000042a6 18c618c6       8911 	.byte	24,198,24,198
000042aa 00             8912 	.space	1
000042ab 00             8913 	.space	1
000042ac 18c618c6       8914 	.byte	24,198,24,198
000042b0 2421718c       8915 	.byte	36,33,113,140
000042b4 18c618c6       8916 	.byte	24,198,24,198
000042b8 18c618c6       8917 	.byte	24,198,24,198
000042bc 00             8918 	.space	1
000042bd 00             8919 	.space	1
000042be 18c618c6       8920 	.byte	24,198,24,198
000042c2 18c6           8921 	.byte	24,198
000042c4 00             8922 	.space	1
000042c5 00             8923 	.space	1
000042c6 18c618c6       8924 	.byte	24,198,24,198
000042ca 00             8925 	.space	1
000042cb 00             8926 	.space	1
000042cc 18c618c6       8927 	.byte	24,198,24,198
000042d0 2421718c       8928 	.byte	36,33,113,140
000042d4 18c618c6       8929 	.byte	24,198,24,198
000042d8 18c618c6       8930 	.byte	24,198,24,198
000042dc 621034a5       8931 	.byte	98,16,52,165
000042e0 18c618c6       8932 	.byte	24,198,24,198
000042e4 18c618c6       8933 	.byte	24,198,24,198
000042e8 18c618c6       8934 	.byte	24,198,24,198
000042ec 18c618c6       8935 	.byte	24,198,24,198
000042f0 18c618c6       8936 	.byte	24,198,24,198
000042f4 18c618c6       8937 	.byte	24,198,24,198
000042f8 18c618c6       8938 	.byte	24,198,24,198
000042fc 18c618c6       8939 	.byte	24,198,24,198
00004300 18c618c6       8940 	.byte	24,198,24,198
00004304 18c618c6       8941 	.byte	24,198,24,198
00004308 18c618c6       8942 	.byte	24,198,24,198
0000430c 18c618c6       8943 	.byte	24,198,24,198
00004310 18c618c6       8944 	.byte	24,198,24,198

                                                                      Page 160
                                                              C:\Users\NIKHIL~1.PAT\AppData\Local\Temp\gh_000aeoo1.s
00004314 18c618c6       8945 	.byte	24,198,24,198
00004318 18c618c6       8946 	.byte	24,198,24,198
0000431c 18c618c6       8947 	.byte	24,198,24,198
00004320 18c618c6       8948 	.byte	24,198,24,198
00004324 18c618c6       8949 	.byte	24,198,24,198
00004328 18c618c6       8950 	.byte	24,198,24,198
0000432c 18c618c6       8951 	.byte	24,198,24,198
00004330 18c618c6       8952 	.byte	24,198,24,198
00004334 18c618c6       8953 	.byte	24,198,24,198
00004338 18c618c6       8954 	.byte	24,198,24,198
0000433c 18c618c6       8955 	.byte	24,198,24,198
00004340 18c618c6       8956 	.byte	24,198,24,198
00004344 18c618c6       8957 	.byte	24,198,24,198
00004348 18c618c6       8958 	.byte	24,198,24,198
0000434c 18c618c6       8959 	.byte	24,198,24,198
00004350 18c618c6       8960 	.byte	24,198,24,198
00004354 18c618c6       8961 	.byte	24,198,24,198
00004358 18c618c6       8962 	.byte	24,198,24,198
0000435c 18c618c6       8963 	.byte	24,198,24,198
00004360 18c618c6       8964 	.byte	24,198,24,198
00004364 18c618c6       8965 	.byte	24,198,24,198
00004368 18c618c6       8966 	.byte	24,198,24,198
0000436c 18c618c6       8967 	.byte	24,198,24,198
00004370 18c618c6       8968 	.byte	24,198,24,198
00004374 18c618c6       8969 	.byte	24,198,24,198
00004378 18c618c6       8970 	.byte	24,198,24,198
0000437c 18c618c6       8971 	.byte	24,198,24,198
00004380 18c618c6       8972 	.byte	24,198,24,198
00004384 18c618c6       8973 	.byte	24,198,24,198
00004388 18c618c6       8974 	.byte	24,198,24,198
0000438c 18c6           8975 	.byte	24,198
0000438e 00             8976 	.space	1
0000438f 00             8977 	.space	1
00004390 00             8978 	.space	1
00004391 00             8979 	.space	1
00004392 00             8980 	.space	1
00004393 00             8981 	.space	1
00004394 00             8982 	.space	1
00004395 00             8983 	.space	1
00004396 00             8984 	.space	1
00004397 00             8985 	.space	1
00004398 18c618c6       8986 	.byte	24,198,24,198
0000439c 10846210       8987 	.byte	16,132,98,16
000043a0 621018c6       8988 	.byte	98,16,24,198
000043a4 00             8989 	.space	1
000043a5 00             8990 	.space	1
000043a6 18c618c6       8991 	.byte	24,198,24,198
000043aa 00             8992 	.space	1
000043ab 00             8993 	.space	1
000043ac 18c618c6       8994 	.byte	24,198,24,198
000043b0 d39c0421       8995 	.byte	211,156,4,33
000043b4 21082421       8996 	.byte	33,8,36,33
000043b8 18c618c6       8997 	.byte	24,198,24,198
000043bc 00             8998 	.space	1
000043bd 00             8999 	.space	1
000043be 18c618c6       9000 	.byte	24,198,24,198
000043c2 18c6           9001 	.byte	24,198
000043c4 00             9002 	.space	1
000043c5 00             9003 	.space	1
000043c6 18c618c6       9004 	.byte	24,198,24,198
000043ca 00             9005 	.space	1

                                                                      Page 161
                                                              C:\Users\NIKHIL~1.PAT\AppData\Local\Temp\gh_000aeoo1.s
000043cb 00             9006 	.space	1
000043cc 18c618c6       9007 	.byte	24,198,24,198
000043d0 d39c0421       9008 	.byte	211,156,4,33
000043d4 21082421       9009 	.byte	33,8,36,33
000043d8 18c618c6       9010 	.byte	24,198,24,198
000043dc 10846210       9011 	.byte	16,132,98,16
000043e0 621018c6       9012 	.byte	98,16,24,198
000043e4 18c618c6       9013 	.byte	24,198,24,198
000043e8 18c618c6       9014 	.byte	24,198,24,198
000043ec 18c618c6       9015 	.byte	24,198,24,198
000043f0 18c618c6       9016 	.byte	24,198,24,198
000043f4 18c618c6       9017 	.byte	24,198,24,198
000043f8 18c618c6       9018 	.byte	24,198,24,198
000043fc 18c618c6       9019 	.byte	24,198,24,198
00004400 18c618c6       9020 	.byte	24,198,24,198
00004404 18c618c6       9021 	.byte	24,198,24,198
00004408 18c618c6       9022 	.byte	24,198,24,198
0000440c 18c618c6       9023 	.byte	24,198,24,198
00004410 18c618c6       9024 	.byte	24,198,24,198
00004414 18c618c6       9025 	.byte	24,198,24,198
00004418 18c618c6       9026 	.byte	24,198,24,198
0000441c 18c618c6       9027 	.byte	24,198,24,198
00004420 18c618c6       9028 	.byte	24,198,24,198
00004424 18c618c6       9029 	.byte	24,198,24,198
00004428 18c618c6       9030 	.byte	24,198,24,198
0000442c 18c618c6       9031 	.byte	24,198,24,198
00004430 18c618c6       9032 	.byte	24,198,24,198
00004434 18c618c6       9033 	.byte	24,198,24,198
00004438 18c618c6       9034 	.byte	24,198,24,198
0000443c 18c618c6       9035 	.byte	24,198,24,198
00004440 18c618c6       9036 	.byte	24,198,24,198
00004444 18c618c6       9037 	.byte	24,198,24,198
00004448 18c618c6       9038 	.byte	24,198,24,198
0000444c 18c618c6       9039 	.byte	24,198,24,198
00004450 18c618c6       9040 	.byte	24,198,24,198
00004454 18c618c6       9041 	.byte	24,198,24,198
00004458 18c618c6       9042 	.byte	24,198,24,198
0000445c 18c618c6       9043 	.byte	24,198,24,198
00004460 18c618c6       9044 	.byte	24,198,24,198
00004464 18c618c6       9045 	.byte	24,198,24,198
00004468 18c618c6       9046 	.byte	24,198,24,198
0000446c 18c618c6       9047 	.byte	24,198,24,198
00004470 18c618c6       9048 	.byte	24,198,24,198
00004474 18c618c6       9049 	.byte	24,198,24,198
00004478 18c618c6       9050 	.byte	24,198,24,198
0000447c 18c618c6       9051 	.byte	24,198,24,198
00004480 18c618c6       9052 	.byte	24,198,24,198
00004484 18c618c6       9053 	.byte	24,198,24,198
00004488 18c618c6       9054 	.byte	24,198,24,198
0000448c 18c618c6       9055 	.byte	24,198,24,198
00004490 18c618c6       9056 	.byte	24,198,24,198
00004494 18c618c6       9057 	.byte	24,198,24,198
00004498 18c618c6       9058 	.byte	24,198,24,198
0000449c 18c618c6       9059 	.byte	24,198,24,198
000044a0 18c618c6       9060 	.byte	24,198,24,198
000044a4 18c618c6       9061 	.byte	24,198,24,198
000044a8 18c618c6       9062 	.byte	24,198,24,198
000044ac 18c618c6       9063 	.byte	24,198,24,198
000044b0 18c618c6       9064 	.byte	24,198,24,198
000044b4 18c618c6       9065 	.byte	24,198,24,198
000044b8 18c618c6       9066 	.byte	24,198,24,198

                                                                      Page 162
                                                              C:\Users\NIKHIL~1.PAT\AppData\Local\Temp\gh_000aeoo1.s
000044bc 18c618c6       9067 	.byte	24,198,24,198
000044c0 18c618c6       9068 	.byte	24,198,24,198
000044c4 18c618c6       9069 	.byte	24,198,24,198
000044c8 18c618c6       9070 	.byte	24,198,24,198
000044cc 18c618c6       9071 	.byte	24,198,24,198
000044d0 18c618c6       9072 	.byte	24,198,24,198
000044d4 18c618c6       9073 	.byte	24,198,24,198
000044d8 18c618c6       9074 	.byte	24,198,24,198
000044dc 18c618c6       9075 	.byte	24,198,24,198
000044e0 18c618c6       9076 	.byte	24,198,24,198
000044e4 18c618c6       9077 	.byte	24,198,24,198
000044e8 18c618c6       9078 	.byte	24,198,24,198
000044ec 18c618c6       9079 	.byte	24,198,24,198
000044f0 18c618c6       9080 	.byte	24,198,24,198
000044f4 18c618c6       9081 	.byte	24,198,24,198
000044f8 18c618c6       9082 	.byte	24,198,24,198
000044fc 18c618c6       9083 	.byte	24,198,24,198
00004500 18c618c6       9084 	.byte	24,198,24,198
00004504 18c618c6       9085 	.byte	24,198,24,198
00004508 18c618c6       9086 	.byte	24,198,24,198
0000450c 18c618c6       9087 	.byte	24,198,24,198
00004510 18c618c6       9088 	.byte	24,198,24,198
00004514 18c618c6       9089 	.byte	24,198,24,198
00004518 18c618c6       9090 	.byte	24,198,24,198
0000451c 18c618c6       9091 	.byte	24,198,24,198
00004520 18c618c6       9092 	.byte	24,198,24,198
00004524 18c618c6       9093 	.byte	24,198,24,198
00004528 18c618c6       9094 	.byte	24,198,24,198
0000452c 18c618c6       9095 	.byte	24,198,24,198
00004530 18c618c6       9096 	.byte	24,198,24,198
00004534 18c618c6       9097 	.byte	24,198,24,198
00004538 18c618c6       9098 	.byte	24,198,24,198
0000453c 18c618c6       9099 	.byte	24,198,24,198
00004540 18c618c6       9100 	.byte	24,198,24,198
00004544 18c618c6       9101 	.byte	24,198,24,198
00004548 18c618c6       9102 	.byte	24,198,24,198
0000454c 18c618c6       9103 	.byte	24,198,24,198
00004550 18c618c6       9104 	.byte	24,198,24,198
00004554 18c618c6       9105 	.byte	24,198,24,198
00004558 18c618c6       9106 	.byte	24,198,24,198
0000455c 18c618c6       9107 	.byte	24,198,24,198
00004560 18c618c6       9108 	.byte	24,198,24,198
00004564 18c618c6       9109 	.byte	24,198,24,198
00004568 18c618c6       9110 	.byte	24,198,24,198
0000456c 18c618c6       9111 	.byte	24,198,24,198
00004570 18c618c6       9112 	.byte	24,198,24,198
00004574 18c618c6       9113 	.byte	24,198,24,198
00004578 18c618c6       9114 	.byte	24,198,24,198
0000457c 18c618c6       9115 	.byte	24,198,24,198
00004580 18c618c6       9116 	.byte	24,198,24,198
00004584 18c618c6       9117 	.byte	24,198,24,198
00004588 18c618c6       9118 	.byte	24,198,24,198
0000458c 18c618c6       9119 	.byte	24,198,24,198
00004590 18c618c6       9120 	.byte	24,198,24,198
00004594 18c618c6       9121 	.byte	24,198,24,198
00004598 18c618c6       9122 	.byte	24,198,24,198
0000459c 18c618c6       9123 	.byte	24,198,24,198
000045a0 18c618c6       9124 	.byte	24,198,24,198
000045a4 18c618c6       9125 	.byte	24,198,24,198
000045a8 18c618c6       9126 	.byte	24,198,24,198
000045ac 18c618c6       9127 	.byte	24,198,24,198

                                                                      Page 163
                                                              C:\Users\NIKHIL~1.PAT\AppData\Local\Temp\gh_000aeoo1.s
000045b0 18c618c6       9128 	.byte	24,198,24,198
000045b4 18c618c6       9129 	.byte	24,198,24,198
000045b8 18c618c6       9130 	.byte	24,198,24,198
000045bc 18c618c6       9131 	.byte	24,198,24,198
000045c0 18c618c6       9132 	.byte	24,198,24,198
000045c4 18c618c6       9133 	.byte	24,198,24,198
000045c8 18c618c6       9134 	.byte	24,198,24,198
000045cc 18c618c6       9135 	.byte	24,198,24,198
000045d0 18c618c6       9136 	.byte	24,198,24,198
000045d4 18c618c6       9137 	.byte	24,198,24,198
000045d8 18c618c6       9138 	.byte	24,198,24,198
000045dc 18c618c6       9139 	.byte	24,198,24,198
000045e0 18c618c6       9140 	.byte	24,198,24,198
000045e4 18c618c6       9141 	.byte	24,198,24,198
000045e8 18c618c6       9142 	.byte	24,198,24,198
000045ec 18c618c6       9143 	.byte	24,198,24,198
000045f0 18c618c6       9144 	.byte	24,198,24,198
000045f4 18c618c6       9145 	.byte	24,198,24,198
000045f8 18c618c6       9146 	.byte	24,198,24,198
000045fc 18c618c6       9147 	.byte	24,198,24,198
00004600 18c618c6       9148 	.byte	24,198,24,198
00004604 18c618c6       9149 	.byte	24,198,24,198
00004608 18c618c6       9150 	.byte	24,198,24,198
0000460c 18c618c6       9151 	.byte	24,198,24,198
00004610 18c618c6       9152 	.byte	24,198,24,198
00004614 18c618c6       9153 	.byte	24,198,24,198
00004618 18c618c6       9154 	.byte	24,198,24,198
0000461c 00             9155 	.space	1
0000461d 00             9156 	.space	1
0000461e 18c618c6       9157 	.byte	24,198,24,198
00004622 18c618c6       9158 	.byte	24,198,24,198
00004626 18c618c6       9159 	.byte	24,198,24,198
0000462a 18c618c6       9160 	.byte	24,198,24,198
0000462e 18c618c6       9161 	.byte	24,198,24,198
00004632 18c618c6       9162 	.byte	24,198,24,198
00004636 18c618c6       9163 	.byte	24,198,24,198
0000463a 18c618c6       9164 	.byte	24,198,24,198
0000463e 18c618c6       9165 	.byte	24,198,24,198
00004642 18c618c6       9166 	.byte	24,198,24,198
00004646 18c618c6       9167 	.byte	24,198,24,198
0000464a 18c618c6       9168 	.byte	24,198,24,198
0000464e 18c618c6       9169 	.byte	24,198,24,198
00004652 18c618c6       9170 	.byte	24,198,24,198
00004656 18c618c6       9171 	.byte	24,198,24,198
0000465a 18c618c6       9172 	.byte	24,198,24,198
0000465e 18c618c6       9173 	.byte	24,198,24,198
00004662 18c618c6       9174 	.byte	24,198,24,198
00004666 18c618c6       9175 	.byte	24,198,24,198
0000466a 18c618c6       9176 	.byte	24,198,24,198
0000466e 18c618c6       9177 	.byte	24,198,24,198
00004672 18c618c6       9178 	.byte	24,198,24,198
00004676 18c618c6       9179 	.byte	24,198,24,198
0000467a 18c618c6       9180 	.byte	24,198,24,198
0000467e 18c618c6       9181 	.byte	24,198,24,198
00004682 18c618c6       9182 	.byte	24,198,24,198
00004686 18c618c6       9183 	.byte	24,198,24,198
0000468a 18c618c6       9184 	.byte	24,198,24,198
0000468e 18c618c6       9185 	.byte	24,198,24,198
00004692 18c618c6       9186 	.byte	24,198,24,198
00004696 18c618c6       9187 	.byte	24,198,24,198
0000469a 18c618c6       9188 	.byte	24,198,24,198

                                                                      Page 164
                                                              C:\Users\NIKHIL~1.PAT\AppData\Local\Temp\gh_000aeoo1.s
0000469e 18c618c6       9189 	.byte	24,198,24,198
000046a2 18c618c6       9190 	.byte	24,198,24,198
000046a6 18c618c6       9191 	.byte	24,198,24,198
000046aa 18c618c6       9192 	.byte	24,198,24,198
000046ae 18c618c6       9193 	.byte	24,198,24,198
000046b2 18c618c6       9194 	.byte	24,198,24,198
000046b6 18c618c6       9195 	.byte	24,198,24,198
000046ba 18c618c6       9196 	.byte	24,198,24,198
000046be 18c618c6       9197 	.byte	24,198,24,198
000046c2 18c618c6       9198 	.byte	24,198,24,198
000046c6 18c618c6       9199 	.byte	24,198,24,198
000046ca 18c618c6       9200 	.byte	24,198,24,198
000046ce 18c618c6       9201 	.byte	24,198,24,198
000046d2 18c618c6       9202 	.byte	24,198,24,198
000046d6 18c618c6       9203 	.byte	24,198,24,198
000046da 18c618c6       9204 	.byte	24,198,24,198
000046de 18c618c6       9205 	.byte	24,198,24,198
000046e2 18c618c6       9206 	.byte	24,198,24,198
000046e6 18c618c6       9207 	.byte	24,198,24,198
000046ea 18c618c6       9208 	.byte	24,198,24,198
000046ee 18c618c6       9209 	.byte	24,198,24,198
000046f2 18c618c6       9210 	.byte	24,198,24,198
000046f6 18c618c6       9211 	.byte	24,198,24,198
000046fa 18c618c6       9212 	.byte	24,198,24,198
000046fe 18c618c6       9213 	.byte	24,198,24,198
00004702 18c618c6       9214 	.byte	24,198,24,198
00004706 18c618c6       9215 	.byte	24,198,24,198
0000470a 18c618c6       9216 	.byte	24,198,24,198
0000470e 18c6           9217 	.byte	24,198
00004710 00             9218 	.space	1
00004711 00             9219 	.space	1
00004712 00             9220 	.space	1
00004713 00             9221 	.space	1
00004714 00             9222 	.space	1
00004715 00             9223 	.space	1
00004716 00             9224 	.space	1
00004717 00             9225 	.space	1
00004718 00             9226 	.space	1
00004719 00             9227 	.space	1
0000471a 18c6           9228 	.byte	24,198
0000471c 00             9229 	.space	1
0000471d 00             9230 	.space	1
0000471e 18c618c6       9231 	.byte	24,198,24,198
00004722 18c618c6       9232 	.byte	24,198,24,198
00004726 18c618c6       9233 	.byte	24,198,24,198
0000472a 18c618c6       9234 	.byte	24,198,24,198
0000472e 18c618c6       9235 	.byte	24,198,24,198
00004732 18c618c6       9236 	.byte	24,198,24,198
00004736 18c618c6       9237 	.byte	24,198,24,198
0000473a 18c618c6       9238 	.byte	24,198,24,198
0000473e 18c618c6       9239 	.byte	24,198,24,198
00004742 18c618c6       9240 	.byte	24,198,24,198
00004746 18c618c6       9241 	.byte	24,198,24,198
0000474a 18c618c6       9242 	.byte	24,198,24,198
0000474e 18c618c6       9243 	.byte	24,198,24,198
00004752 18c618c6       9244 	.byte	24,198,24,198
00004756 18c618c6       9245 	.byte	24,198,24,198
0000475a 18c618c6       9246 	.byte	24,198,24,198
0000475e 18c618c6       9247 	.byte	24,198,24,198
00004762 18c618c6       9248 	.byte	24,198,24,198
00004766 18c618c6       9249 	.byte	24,198,24,198

                                                                      Page 165
                                                              C:\Users\NIKHIL~1.PAT\AppData\Local\Temp\gh_000aeoo1.s
0000476a 18c618c6       9250 	.byte	24,198,24,198
0000476e 18c618c6       9251 	.byte	24,198,24,198
00004772 18c618c6       9252 	.byte	24,198,24,198
00004776 18c618c6       9253 	.byte	24,198,24,198
0000477a 18c618c6       9254 	.byte	24,198,24,198
0000477e 18c618c6       9255 	.byte	24,198,24,198
00004782 18c618c6       9256 	.byte	24,198,24,198
00004786 18c618c6       9257 	.byte	24,198,24,198
0000478a 18c618c6       9258 	.byte	24,198,24,198
0000478e 18c618c6       9259 	.byte	24,198,24,198
00004792 18c618c6       9260 	.byte	24,198,24,198
00004796 18c618c6       9261 	.byte	24,198,24,198
0000479a 18c618c6       9262 	.byte	24,198,24,198
0000479e 18c618c6       9263 	.byte	24,198,24,198
000047a2 18c618c6       9264 	.byte	24,198,24,198
000047a6 18c618c6       9265 	.byte	24,198,24,198
000047aa 18c618c6       9266 	.byte	24,198,24,198
000047ae 18c618c6       9267 	.byte	24,198,24,198
000047b2 18c618c6       9268 	.byte	24,198,24,198
000047b6 18c618c6       9269 	.byte	24,198,24,198
000047ba 18c618c6       9270 	.byte	24,198,24,198
000047be 18c618c6       9271 	.byte	24,198,24,198
000047c2 18c618c6       9272 	.byte	24,198,24,198
000047c6 18c618c6       9273 	.byte	24,198,24,198
000047ca 18c618c6       9274 	.byte	24,198,24,198
000047ce 18c618c6       9275 	.byte	24,198,24,198
000047d2 18c618c6       9276 	.byte	24,198,24,198
000047d6 18c618c6       9277 	.byte	24,198,24,198
000047da 18c618c6       9278 	.byte	24,198,24,198
000047de 18c618c6       9279 	.byte	24,198,24,198
000047e2 18c618c6       9280 	.byte	24,198,24,198
000047e6 18c618c6       9281 	.byte	24,198,24,198
000047ea 18c618c6       9282 	.byte	24,198,24,198
000047ee 18c618c6       9283 	.byte	24,198,24,198
000047f2 18c618c6       9284 	.byte	24,198,24,198
000047f6 18c618c6       9285 	.byte	24,198,24,198
000047fa 18c618c6       9286 	.byte	24,198,24,198
000047fe 18c618c6       9287 	.byte	24,198,24,198
00004802 18c618c6       9288 	.byte	24,198,24,198
00004806 18c618c6       9289 	.byte	24,198,24,198
0000480a 18c618c6       9290 	.byte	24,198,24,198
0000480e 18c6           9291 	.byte	24,198
00004810 00             9292 	.space	1
00004811 00             9293 	.space	1
00004812 18c618c6       9294 	.byte	24,198,24,198
00004816 18c618c6       9295 	.byte	24,198,24,198
0000481a 18c6           9296 	.byte	24,198
0000481c 00             9297 	.space	1
0000481d 00             9298 	.space	1
0000481e 18c618c6       9299 	.byte	24,198,24,198
00004822 18c618c6       9300 	.byte	24,198,24,198
00004826 18c618c6       9301 	.byte	24,198,24,198
0000482a 18c618c6       9302 	.byte	24,198,24,198
0000482e 18c618c6       9303 	.byte	24,198,24,198
00004832 18c618c6       9304 	.byte	24,198,24,198
00004836 18c618c6       9305 	.byte	24,198,24,198
0000483a 18c618c6       9306 	.byte	24,198,24,198
0000483e 18c618c6       9307 	.byte	24,198,24,198
00004842 18c618c6       9308 	.byte	24,198,24,198
00004846 18c618c6       9309 	.byte	24,198,24,198
0000484a 18c618c6       9310 	.byte	24,198,24,198

                                                                      Page 166
                                                              C:\Users\NIKHIL~1.PAT\AppData\Local\Temp\gh_000aeoo1.s
0000484e 18c618c6       9311 	.byte	24,198,24,198
00004852 18c618c6       9312 	.byte	24,198,24,198
00004856 18c618c6       9313 	.byte	24,198,24,198
0000485a 18c618c6       9314 	.byte	24,198,24,198
0000485e 18c618c6       9315 	.byte	24,198,24,198
00004862 18c618c6       9316 	.byte	24,198,24,198
00004866 18c618c6       9317 	.byte	24,198,24,198
0000486a 18c618c6       9318 	.byte	24,198,24,198
0000486e 18c618c6       9319 	.byte	24,198,24,198
00004872 18c618c6       9320 	.byte	24,198,24,198
00004876 18c618c6       9321 	.byte	24,198,24,198
0000487a 18c618c6       9322 	.byte	24,198,24,198
0000487e 18c618c6       9323 	.byte	24,198,24,198
00004882 18c618c6       9324 	.byte	24,198,24,198
00004886 18c618c6       9325 	.byte	24,198,24,198
0000488a 18c618c6       9326 	.byte	24,198,24,198
0000488e 00             9327 	.space	1
0000488f 00             9328 	.space	1
00004890 18c618c6       9329 	.byte	24,198,24,198
00004894 18c618c6       9330 	.byte	24,198,24,198
00004898 00             9331 	.space	1
00004899 00             9332 	.space	1
0000489a 18c618c6       9333 	.byte	24,198,24,198
0000489e 18c617be       9334 	.byte	24,198,23,190
000048a2 a318a318       9335 	.byte	163,24,163,24
000048a6 17be18c6       9336 	.byte	23,190,24,198
000048aa 18c618c6       9337 	.byte	24,198,24,198
000048ae 00             9338 	.space	1
000048af 00             9339 	.space	1
000048b0 00             9340 	.space	1
000048b1 00             9341 	.space	1
000048b2 21080421       9342 	.byte	33,8,4,33
000048b6 518c18c6       9343 	.byte	81,140,24,198
000048ba 00             9344 	.space	1
000048bb 00             9345 	.space	1
000048bc 00             9346 	.space	1
000048bd 00             9347 	.space	1
000048be 00             9348 	.space	1
000048bf 00             9349 	.space	1
000048c0 00             9350 	.space	1
000048c1 00             9351 	.space	1
000048c2 00             9352 	.space	1
000048c3 00             9353 	.space	1
000048c4 00             9354 	.space	1
000048c5 00             9355 	.space	1
000048c6 00             9356 	.space	1
000048c7 00             9357 	.space	1
000048c8 18c618c6       9358 	.byte	24,198,24,198
000048cc 18c618c6       9359 	.byte	24,198,24,198
000048d0 18c618c6       9360 	.byte	24,198,24,198
000048d4 18c618c6       9361 	.byte	24,198,24,198
000048d8 18c618c6       9362 	.byte	24,198,24,198
000048dc 18c618c6       9363 	.byte	24,198,24,198
000048e0 18c618c6       9364 	.byte	24,198,24,198
000048e4 18c618c6       9365 	.byte	24,198,24,198
000048e8 18c618c6       9366 	.byte	24,198,24,198
000048ec 18c618c6       9367 	.byte	24,198,24,198
000048f0 18c618c6       9368 	.byte	24,198,24,198
000048f4 18c618c6       9369 	.byte	24,198,24,198
000048f8 18c618c6       9370 	.byte	24,198,24,198
000048fc 18c618c6       9371 	.byte	24,198,24,198

                                                                      Page 167
                                                              C:\Users\NIKHIL~1.PAT\AppData\Local\Temp\gh_000aeoo1.s
00004900 18c618c6       9372 	.byte	24,198,24,198
00004904 18c618c6       9373 	.byte	24,198,24,198
00004908 18c618c6       9374 	.byte	24,198,24,198
0000490c 18c618c6       9375 	.byte	24,198,24,198
00004910 00             9376 	.space	1
00004911 00             9377 	.space	1
00004912 18c618c6       9378 	.byte	24,198,24,198
00004916 18c618c6       9379 	.byte	24,198,24,198
0000491a 18c6           9380 	.byte	24,198
0000491c 00             9381 	.space	1
0000491d 00             9382 	.space	1
0000491e 18c618c6       9383 	.byte	24,198,24,198
00004922 d294e318       9384 	.byte	210,148,227,24
00004926 82103084       9385 	.byte	130,16,48,132
0000492a 18c63084       9386 	.byte	24,198,48,132
0000492e 242118c6       9387 	.byte	36,33,24,198
00004932 18c62421       9388 	.byte	24,198,36,33
00004936 ef7b18c6       9389 	.byte	239,123,24,198
0000493a 00             9390 	.space	1
0000493b 00             9391 	.space	1
0000493c f39c6210       9392 	.byte	243,156,98,16
00004940 18c618c6       9393 	.byte	24,198,24,198
00004944 a2104108       9394 	.byte	162,16,65,8
00004948 ae7318c6       9395 	.byte	174,115,24,198
0000494c cf7bcb5a       9396 	.byte	207,123,203,90
00004950 18c618c6       9397 	.byte	24,198,24,198
00004954 2842ae73       9398 	.byte	40,66,174,115
00004958 18c618c6       9399 	.byte	24,198,24,198
0000495c 18c618c6       9400 	.byte	24,198,24,198
00004960 18c618c6       9401 	.byte	24,198,24,198
00004964 18c618c6       9402 	.byte	24,198,24,198
00004968 18c618c6       9403 	.byte	24,198,24,198
0000496c 18c618c6       9404 	.byte	24,198,24,198
00004970 18c618c6       9405 	.byte	24,198,24,198
00004974 18c618c6       9406 	.byte	24,198,24,198
00004978 18c618c6       9407 	.byte	24,198,24,198
0000497c 18c618c6       9408 	.byte	24,198,24,198
00004980 18c618c6       9409 	.byte	24,198,24,198
00004984 18c618c6       9410 	.byte	24,198,24,198
00004988 18c618c6       9411 	.byte	24,198,24,198
0000498c 18c6           9412 	.byte	24,198
0000498e 00             9413 	.space	1
0000498f 00             9414 	.space	1
00004990 18c618c6       9415 	.byte	24,198,24,198
00004994 18c618c6       9416 	.byte	24,198,24,198
00004998 00             9417 	.space	1
00004999 00             9418 	.space	1
0000499a 18c618c6       9419 	.byte	24,198,24,198
0000499e 18c61084       9420 	.byte	24,198,16,132
000049a2 c739c739       9421 	.byte	199,57,199,57
000049a6 308418c6       9422 	.byte	48,132,24,198
000049aa 18c618c6       9423 	.byte	24,198,24,198
000049ae 00             9424 	.space	1
000049af 00             9425 	.space	1
000049b0 18c6f7bd       9426 	.byte	24,198,247,189
000049b4 718c8210       9427 	.byte	113,140,130,16
000049b8 18c618c6       9428 	.byte	24,198,24,198
000049bc 18c618c6       9429 	.byte	24,198,24,198
000049c0 00             9430 	.space	1
000049c1 00             9431 	.space	1
000049c2 18c618c6       9432 	.byte	24,198,24,198

                                                                      Page 168
                                                              C:\Users\NIKHIL~1.PAT\AppData\Local\Temp\gh_000aeoo1.s
000049c6 18c618c6       9433 	.byte	24,198,24,198
000049ca 18c618c6       9434 	.byte	24,198,24,198
000049ce 18c618c6       9435 	.byte	24,198,24,198
000049d2 18c618c6       9436 	.byte	24,198,24,198
000049d6 18c618c6       9437 	.byte	24,198,24,198
000049da 18c618c6       9438 	.byte	24,198,24,198
000049de 18c618c6       9439 	.byte	24,198,24,198
000049e2 18c618c6       9440 	.byte	24,198,24,198
000049e6 18c618c6       9441 	.byte	24,198,24,198
000049ea 18c618c6       9442 	.byte	24,198,24,198
000049ee 18c618c6       9443 	.byte	24,198,24,198
000049f2 18c618c6       9444 	.byte	24,198,24,198
000049f6 18c618c6       9445 	.byte	24,198,24,198
000049fa 18c618c6       9446 	.byte	24,198,24,198
000049fe 18c618c6       9447 	.byte	24,198,24,198
00004a02 18c618c6       9448 	.byte	24,198,24,198
00004a06 18c618c6       9449 	.byte	24,198,24,198
00004a0a 18c618c6       9450 	.byte	24,198,24,198
00004a0e 18c6           9451 	.byte	24,198
00004a10 00             9452 	.space	1
00004a11 00             9453 	.space	1
00004a12 00             9454 	.space	1
00004a13 00             9455 	.space	1
00004a14 00             9456 	.space	1
00004a15 00             9457 	.space	1
00004a16 00             9458 	.space	1
00004a17 00             9459 	.space	1
00004a18 18c618c6       9460 	.byte	24,198,24,198
00004a1c 00             9461 	.space	1
00004a1d 00             9462 	.space	1
00004a1e 18c618c6       9463 	.byte	24,198,24,198
00004a22 24219294       9464 	.byte	36,33,146,148
00004a26 d39ce420       9465 	.byte	211,156,228,32
00004a2a 18c618c6       9466 	.byte	24,198,24,198
00004a2e 6d6b1084       9467 	.byte	109,107,16,132
00004a32 518ccb5a       9468 	.byte	81,140,203,90
00004a36 18c618c6       9469 	.byte	24,198,24,198
00004a3a 00             9470 	.space	1
00004a3b 00             9471 	.space	1
00004a3c 718c18c6       9472 	.byte	113,140,24,198
00004a40 18c618c6       9473 	.byte	24,198,24,198
00004a44 18c655ad       9474 	.byte	24,198,85,173
00004a48 410818c6       9475 	.byte	65,8,24,198
00004a4c 17be4529       9476 	.byte	23,190,69,41
00004a50 f7bdd6b5       9477 	.byte	247,189,214,181
00004a54 c318f7bd       9478 	.byte	195,24,247,189
00004a58 18c618c6       9479 	.byte	24,198,24,198
00004a5c 18c618c6       9480 	.byte	24,198,24,198
00004a60 18c618c6       9481 	.byte	24,198,24,198
00004a64 18c618c6       9482 	.byte	24,198,24,198
00004a68 18c618c6       9483 	.byte	24,198,24,198
00004a6c 18c618c6       9484 	.byte	24,198,24,198
00004a70 18c618c6       9485 	.byte	24,198,24,198
00004a74 18c618c6       9486 	.byte	24,198,24,198
00004a78 18c618c6       9487 	.byte	24,198,24,198
00004a7c 18c618c6       9488 	.byte	24,198,24,198
00004a80 18c618c6       9489 	.byte	24,198,24,198
00004a84 18c618c6       9490 	.byte	24,198,24,198
00004a88 18c618c6       9491 	.byte	24,198,24,198
00004a8c 18c6           9492 	.byte	24,198
00004a8e 00             9493 	.space	1

                                                                      Page 169
                                                              C:\Users\NIKHIL~1.PAT\AppData\Local\Temp\gh_000aeoo1.s
00004a8f 00             9494 	.space	1
00004a90 18c618c6       9495 	.byte	24,198,24,198
00004a94 18c618c6       9496 	.byte	24,198,24,198
00004a98 00             9497 	.space	1
00004a99 00             9498 	.space	1
00004a9a 18c618c6       9499 	.byte	24,198,24,198
00004a9e 18c68631       9500 	.byte	24,198,134,49
00004aa2 518c3084       9501 	.byte	81,140,48,132
00004aa6 863118c6       9502 	.byte	134,49,24,198
00004aaa 18c618c6       9503 	.byte	24,198,24,198
00004aae 00             9504 	.space	1
00004aaf 00             9505 	.space	1
00004ab0 18c6f7bd       9506 	.byte	24,198,247,189
00004ab4 ef7b6631       9507 	.byte	239,123,102,49
00004ab8 18c618c6       9508 	.byte	24,198,24,198
00004abc 18c618c6       9509 	.byte	24,198,24,198
00004ac0 00             9510 	.space	1
00004ac1 00             9511 	.space	1
00004ac2 18c618c6       9512 	.byte	24,198,24,198
00004ac6 18c618c6       9513 	.byte	24,198,24,198
00004aca 18c618c6       9514 	.byte	24,198,24,198
00004ace 18c618c6       9515 	.byte	24,198,24,198
00004ad2 18c618c6       9516 	.byte	24,198,24,198
00004ad6 18c618c6       9517 	.byte	24,198,24,198
00004ada 18c618c6       9518 	.byte	24,198,24,198
00004ade 18c618c6       9519 	.byte	24,198,24,198
00004ae2 18c618c6       9520 	.byte	24,198,24,198
00004ae6 18c618c6       9521 	.byte	24,198,24,198
00004aea 18c618c6       9522 	.byte	24,198,24,198
00004aee 18c618c6       9523 	.byte	24,198,24,198
00004af2 18c618c6       9524 	.byte	24,198,24,198
00004af6 18c618c6       9525 	.byte	24,198,24,198
00004afa 18c618c6       9526 	.byte	24,198,24,198
00004afe 18c618c6       9527 	.byte	24,198,24,198
00004b02 18c618c6       9528 	.byte	24,198,24,198
00004b06 18c618c6       9529 	.byte	24,198,24,198
00004b0a 18c618c6       9530 	.byte	24,198,24,198
00004b0e 18c6           9531 	.byte	24,198
00004b10 00             9532 	.space	1
00004b11 00             9533 	.space	1
00004b12 18c618c6       9534 	.byte	24,198,24,198
00004b16 18c618c6       9535 	.byte	24,198,24,198
00004b1a 18c6           9536 	.byte	24,198
00004b1c 00             9537 	.space	1
00004b1d 00             9538 	.space	1
00004b1e 18c618c6       9539 	.byte	24,198,24,198
00004b22 2108           9540 	.byte	33,8
00004b24 00             9541 	.space	1
00004b25 00             9542 	.space	1
00004b26 00             9543 	.space	1
00004b27 00             9544 	.space	1
00004b28 00             9545 	.space	1
00004b29 00             9546 	.space	1
00004b2a 18c618c6       9547 	.byte	24,198,24,198
00004b2e 18c6ef7b       9548 	.byte	24,198,239,123
00004b32 cb5af7bd       9549 	.byte	203,90,247,189
00004b36 18c618c6       9550 	.byte	24,198,24,198
00004b3a 00             9551 	.space	1
00004b3b 00             9552 	.space	1
00004b3c 18c618c6       9553 	.byte	24,198,24,198
00004b40 18c6ae73       9554 	.byte	24,198,174,115

                                                                      Page 170
                                                              C:\Users\NIKHIL~1.PAT\AppData\Local\Temp\gh_000aeoo1.s
00004b44 04214108       9555 	.byte	4,33,65,8
00004b48 00             9556 	.space	1
00004b49 00             9557 	.space	1
00004b4a 18c618c6       9558 	.byte	24,198,24,198
00004b4e ae73ef7b       9559 	.byte	174,115,239,123
00004b52 cf7b0c63       9560 	.byte	207,123,12,99
00004b56 18c618c6       9561 	.byte	24,198,24,198
00004b5a 18c618c6       9562 	.byte	24,198,24,198
00004b5e 18c618c6       9563 	.byte	24,198,24,198
00004b62 18c618c6       9564 	.byte	24,198,24,198
00004b66 18c618c6       9565 	.byte	24,198,24,198
00004b6a 18c618c6       9566 	.byte	24,198,24,198
00004b6e 18c618c6       9567 	.byte	24,198,24,198
00004b72 18c618c6       9568 	.byte	24,198,24,198
00004b76 18c618c6       9569 	.byte	24,198,24,198
00004b7a 18c618c6       9570 	.byte	24,198,24,198
00004b7e 18c618c6       9571 	.byte	24,198,24,198
00004b82 18c618c6       9572 	.byte	24,198,24,198
00004b86 18c618c6       9573 	.byte	24,198,24,198
00004b8a 18c618c6       9574 	.byte	24,198,24,198
00004b8e 00             9575 	.space	1
00004b8f 00             9576 	.space	1
00004b90 18c618c6       9577 	.byte	24,198,24,198
00004b94 18c618c6       9578 	.byte	24,198,24,198
00004b98 00             9579 	.space	1
00004b99 00             9580 	.space	1
00004b9a 18c618c6       9581 	.byte	24,198,24,198
00004b9e 34a5c318       9582 	.byte	52,165,195,24
00004ba2 18c618c6       9583 	.byte	24,198,24,198
00004ba6 a31834a5       9584 	.byte	163,24,52,165
00004baa 18c618c6       9585 	.byte	24,198,24,198
00004bae 00             9586 	.space	1
00004baf 00             9587 	.space	1
00004bb0 00             9588 	.space	1
00004bb1 00             9589 	.space	1
00004bb2 21080c63       9590 	.byte	33,8,12,99
00004bb6 d6b518c6       9591 	.byte	214,181,24,198
00004bba 18c618c6       9592 	.byte	24,198,24,198
00004bbe 18c6           9593 	.byte	24,198
00004bc0 00             9594 	.space	1
00004bc1 00             9595 	.space	1
00004bc2 18c618c6       9596 	.byte	24,198,24,198
00004bc6 18c618c6       9597 	.byte	24,198,24,198
00004bca 18c618c6       9598 	.byte	24,198,24,198
00004bce 18c618c6       9599 	.byte	24,198,24,198
00004bd2 18c618c6       9600 	.byte	24,198,24,198
00004bd6 18c618c6       9601 	.byte	24,198,24,198
00004bda 18c618c6       9602 	.byte	24,198,24,198
00004bde 18c618c6       9603 	.byte	24,198,24,198
00004be2 18c618c6       9604 	.byte	24,198,24,198
00004be6 18c618c6       9605 	.byte	24,198,24,198
00004bea 18c618c6       9606 	.byte	24,198,24,198
00004bee 18c618c6       9607 	.byte	24,198,24,198
00004bf2 18c618c6       9608 	.byte	24,198,24,198
00004bf6 18c618c6       9609 	.byte	24,198,24,198
00004bfa 18c618c6       9610 	.byte	24,198,24,198
00004bfe 18c618c6       9611 	.byte	24,198,24,198
00004c02 18c618c6       9612 	.byte	24,198,24,198
00004c06 18c618c6       9613 	.byte	24,198,24,198
00004c0a 18c618c6       9614 	.byte	24,198,24,198
00004c0e 18c6           9615 	.byte	24,198

                                                                      Page 171
                                                              C:\Users\NIKHIL~1.PAT\AppData\Local\Temp\gh_000aeoo1.s
00004c10 00             9616 	.space	1
00004c11 00             9617 	.space	1
00004c12 18c618c6       9618 	.byte	24,198,24,198
00004c16 18c618c6       9619 	.byte	24,198,24,198
00004c1a 18c6           9620 	.byte	24,198
00004c1c 00             9621 	.space	1
00004c1d 00             9622 	.space	1
00004c1e 18c618c6       9623 	.byte	24,198,24,198
00004c22 2421718c       9624 	.byte	36,33,113,140
00004c26 18c618c6       9625 	.byte	24,198,24,198
00004c2a 18c618c6       9626 	.byte	24,198,24,198
00004c2e 8e73718c       9627 	.byte	142,115,113,140
00004c32 10848a52       9628 	.byte	16,132,138,82
00004c36 18c618c6       9629 	.byte	24,198,24,198
00004c3a 00             9630 	.space	1
00004c3b 00             9631 	.space	1
00004c3c 18c618c6       9632 	.byte	24,198,24,198
00004c40 18c6a318       9633 	.byte	24,198,163,24
00004c44 718c34a5       9634 	.byte	113,140,52,165
00004c48 00             9635 	.space	1
00004c49 00             9636 	.space	1
00004c4a 18c618c6       9637 	.byte	24,198,24,198
00004c4e f7bd494a       9638 	.byte	247,189,73,74
00004c52 c73996b5       9639 	.byte	199,57,150,181
00004c56 18c618c6       9640 	.byte	24,198,24,198
00004c5a 18c618c6       9641 	.byte	24,198,24,198
00004c5e 18c618c6       9642 	.byte	24,198,24,198
00004c62 18c618c6       9643 	.byte	24,198,24,198
00004c66 18c618c6       9644 	.byte	24,198,24,198
00004c6a 18c618c6       9645 	.byte	24,198,24,198
00004c6e 18c618c6       9646 	.byte	24,198,24,198
00004c72 18c618c6       9647 	.byte	24,198,24,198
00004c76 18c618c6       9648 	.byte	24,198,24,198
00004c7a 18c618c6       9649 	.byte	24,198,24,198
00004c7e 18c618c6       9650 	.byte	24,198,24,198
00004c82 18c618c6       9651 	.byte	24,198,24,198
00004c86 18c618c6       9652 	.byte	24,198,24,198
00004c8a 18c618c6       9653 	.byte	24,198,24,198
00004c8e 6108d7bd       9654 	.byte	97,8,215,189
00004c92 18c618c6       9655 	.byte	24,198,24,198
00004c96 b6b56108       9656 	.byte	182,181,97,8
00004c9a 18c618c6       9657 	.byte	24,198,24,198
00004c9e 8a52           9658 	.byte	138,82
00004ca0 00             9659 	.space	1
00004ca1 00             9660 	.space	1
00004ca2 00             9661 	.space	1
00004ca3 00             9662 	.space	1
00004ca4 00             9663 	.space	1
00004ca5 00             9664 	.space	1
00004ca6 00             9665 	.space	1
00004ca7 00             9666 	.space	1
00004ca8 8a5218c6       9667 	.byte	138,82,24,198
00004cac 18c6           9668 	.byte	24,198
00004cae 00             9669 	.space	1
00004caf 00             9670 	.space	1
00004cb0 18c64529       9671 	.byte	24,198,69,41
00004cb4 108418c6       9672 	.byte	16,132,24,198
00004cb8 18c618c6       9673 	.byte	24,198,24,198
00004cbc 18c618c6       9674 	.byte	24,198,24,198
00004cc0 00             9675 	.space	1
00004cc1 00             9676 	.space	1

                                                                      Page 172
                                                              C:\Users\NIKHIL~1.PAT\AppData\Local\Temp\gh_000aeoo1.s
00004cc2 18c618c6       9677 	.byte	24,198,24,198
00004cc6 18c618c6       9678 	.byte	24,198,24,198
00004cca 18c618c6       9679 	.byte	24,198,24,198
00004cce 18c618c6       9680 	.byte	24,198,24,198
00004cd2 18c618c6       9681 	.byte	24,198,24,198
00004cd6 18c618c6       9682 	.byte	24,198,24,198
00004cda 18c618c6       9683 	.byte	24,198,24,198
00004cde 18c618c6       9684 	.byte	24,198,24,198
00004ce2 18c618c6       9685 	.byte	24,198,24,198
00004ce6 18c618c6       9686 	.byte	24,198,24,198
00004cea 18c618c6       9687 	.byte	24,198,24,198
00004cee 18c618c6       9688 	.byte	24,198,24,198
00004cf2 18c618c6       9689 	.byte	24,198,24,198
00004cf6 18c618c6       9690 	.byte	24,198,24,198
00004cfa 18c618c6       9691 	.byte	24,198,24,198
00004cfe 18c618c6       9692 	.byte	24,198,24,198
00004d02 18c618c6       9693 	.byte	24,198,24,198
00004d06 18c618c6       9694 	.byte	24,198,24,198
00004d0a 18c618c6       9695 	.byte	24,198,24,198
00004d0e 18c6           9696 	.byte	24,198
00004d10 00             9697 	.space	1
00004d11 00             9698 	.space	1
00004d12 18c618c6       9699 	.byte	24,198,24,198
00004d16 18c618c6       9700 	.byte	24,198,24,198
00004d1a 18c6           9701 	.byte	24,198
00004d1c 00             9702 	.space	1
00004d1d 00             9703 	.space	1
00004d1e 18c618c6       9704 	.byte	24,198,24,198
00004d22 d39c0421       9705 	.byte	211,156,4,33
00004d26 21082421       9706 	.byte	33,8,36,33
00004d2a 18c63084       9707 	.byte	24,198,48,132
00004d2e 252918c6       9708 	.byte	37,41,24,198
00004d32 18c62421       9709 	.byte	24,198,36,33
00004d36 ef7b18c6       9710 	.byte	239,123,24,198
00004d3a 00             9711 	.space	1
00004d3b 00             9712 	.space	1
00004d3c 18c618c6       9713 	.byte	24,198,24,198
00004d40 18c63084       9714 	.byte	24,198,48,132
00004d44 4108c739       9715 	.byte	65,8,199,57
00004d48 00             9716 	.space	1
00004d49 00             9717 	.space	1
00004d4a 18c618c6       9718 	.byte	24,198,24,198
00004d4e 18c68e73       9719 	.byte	24,198,142,115
00004d52 694a18c6       9720 	.byte	105,74,24,198
00004d56 18c618c6       9721 	.byte	24,198,24,198
00004d5a 18c618c6       9722 	.byte	24,198,24,198
00004d5e 18c618c6       9723 	.byte	24,198,24,198
00004d62 18c618c6       9724 	.byte	24,198,24,198
00004d66 18c618c6       9725 	.byte	24,198,24,198
00004d6a 18c618c6       9726 	.byte	24,198,24,198
00004d6e 18c618c6       9727 	.byte	24,198,24,198
00004d72 18c618c6       9728 	.byte	24,198,24,198
00004d76 18c618c6       9729 	.byte	24,198,24,198
00004d7a 18c618c6       9730 	.byte	24,198,24,198
00004d7e 18c618c6       9731 	.byte	24,198,24,198
00004d82 18c618c6       9732 	.byte	24,198,24,198
00004d86 18c618c6       9733 	.byte	24,198,24,198
00004d8a 18c618c6       9734 	.byte	24,198,24,198
00004d8e c739aa52       9735 	.byte	199,57,170,82
00004d92 b6b5b6b5       9736 	.byte	182,181,182,181
00004d96 aa52c739       9737 	.byte	170,82,199,57

                                                                      Page 173
                                                              C:\Users\NIKHIL~1.PAT\AppData\Local\Temp\gh_000aeoo1.s
00004d9a 18c6d7bd       9738 	.byte	24,198,215,189
00004d9e 821096b5       9739 	.byte	130,16,150,181
00004da2 18c618c6       9740 	.byte	24,198,24,198
00004da6 96b56210       9741 	.byte	150,181,98,16
00004daa d7bd18c6       9742 	.byte	215,189,24,198
00004dae 00             9743 	.space	1
00004daf 00             9744 	.space	1
00004db0 18c634a5       9745 	.byte	24,198,52,165
00004db4 c31896b5       9746 	.byte	195,24,150,181
00004db8 18c618c6       9747 	.byte	24,198,24,198
00004dbc 18c618c6       9748 	.byte	24,198,24,198
00004dc0 00             9749 	.space	1
00004dc1 00             9750 	.space	1
00004dc2 18c618c6       9751 	.byte	24,198,24,198
00004dc6 18c618c6       9752 	.byte	24,198,24,198
00004dca 18c618c6       9753 	.byte	24,198,24,198
00004dce 18c618c6       9754 	.byte	24,198,24,198
00004dd2 18c618c6       9755 	.byte	24,198,24,198
00004dd6 18c618c6       9756 	.byte	24,198,24,198
00004dda 18c618c6       9757 	.byte	24,198,24,198
00004dde 18c618c6       9758 	.byte	24,198,24,198
00004de2 18c618c6       9759 	.byte	24,198,24,198
00004de6 18c618c6       9760 	.byte	24,198,24,198
00004dea 18c618c6       9761 	.byte	24,198,24,198
00004dee 18c618c6       9762 	.byte	24,198,24,198
00004df2 18c618c6       9763 	.byte	24,198,24,198
00004df6 18c618c6       9764 	.byte	24,198,24,198
00004dfa 18c618c6       9765 	.byte	24,198,24,198
00004dfe 18c618c6       9766 	.byte	24,198,24,198
00004e02 18c618c6       9767 	.byte	24,198,24,198
00004e06 18c618c6       9768 	.byte	24,198,24,198
00004e0a 18c618c6       9769 	.byte	24,198,24,198
00004e0e 18c618c6       9770 	.byte	24,198,24,198
00004e12 18c618c6       9771 	.byte	24,198,24,198
00004e16 18c618c6       9772 	.byte	24,198,24,198
00004e1a 18c618c6       9773 	.byte	24,198,24,198
00004e1e 18c618c6       9774 	.byte	24,198,24,198
00004e22 18c618c6       9775 	.byte	24,198,24,198
00004e26 18c618c6       9776 	.byte	24,198,24,198
00004e2a 18c618c6       9777 	.byte	24,198,24,198
00004e2e 18c618c6       9778 	.byte	24,198,24,198
00004e32 18c618c6       9779 	.byte	24,198,24,198
00004e36 18c618c6       9780 	.byte	24,198,24,198
00004e3a 18c618c6       9781 	.byte	24,198,24,198
00004e3e 18c618c6       9782 	.byte	24,198,24,198
00004e42 18c618c6       9783 	.byte	24,198,24,198
00004e46 18c618c6       9784 	.byte	24,198,24,198
00004e4a 18c618c6       9785 	.byte	24,198,24,198
00004e4e 18c62842       9786 	.byte	24,198,40,66
00004e52 34a518c6       9787 	.byte	52,165,24,198
00004e56 18c618c6       9788 	.byte	24,198,24,198
00004e5a 18c618c6       9789 	.byte	24,198,24,198
00004e5e 18c618c6       9790 	.byte	24,198,24,198
00004e62 18c618c6       9791 	.byte	24,198,24,198
00004e66 18c618c6       9792 	.byte	24,198,24,198
00004e6a 18c618c6       9793 	.byte	24,198,24,198
00004e6e 18c618c6       9794 	.byte	24,198,24,198
00004e72 18c618c6       9795 	.byte	24,198,24,198
00004e76 18c618c6       9796 	.byte	24,198,24,198
00004e7a 18c618c6       9797 	.byte	24,198,24,198
00004e7e 18c618c6       9798 	.byte	24,198,24,198

                                                                      Page 174
                                                              C:\Users\NIKHIL~1.PAT\AppData\Local\Temp\gh_000aeoo1.s
00004e82 18c618c6       9799 	.byte	24,198,24,198
00004e86 18c618c6       9800 	.byte	24,198,24,198
00004e8a 18c618c6       9801 	.byte	24,198,24,198
00004e8e 75ade739       9802 	.byte	117,173,231,57
00004e92 61086108       9803 	.byte	97,8,97,8
00004e96 e73975ad       9804 	.byte	231,57,117,173
00004e9a 18c68e73       9805 	.byte	24,198,142,115
00004e9e 284218c6       9806 	.byte	40,66,24,198
00004ea2 18c618c6       9807 	.byte	24,198,24,198
00004ea6 18c60842       9808 	.byte	24,198,8,66
00004eaa 8e7318c6       9809 	.byte	142,115,24,198
00004eae 00             9810 	.space	1
00004eaf 00             9811 	.space	1
00004eb0 18c618c6       9812 	.byte	24,198,24,198
00004eb4 8e730842       9813 	.byte	142,115,8,66
00004eb8 18c618c6       9814 	.byte	24,198,24,198
00004ebc 18c618c6       9815 	.byte	24,198,24,198
00004ec0 00             9816 	.space	1
00004ec1 00             9817 	.space	1
00004ec2 18c618c6       9818 	.byte	24,198,24,198
00004ec6 18c618c6       9819 	.byte	24,198,24,198
00004eca 18c618c6       9820 	.byte	24,198,24,198
00004ece 18c618c6       9821 	.byte	24,198,24,198
00004ed2 18c618c6       9822 	.byte	24,198,24,198
00004ed6 18c618c6       9823 	.byte	24,198,24,198
00004eda 18c618c6       9824 	.byte	24,198,24,198
00004ede 18c618c6       9825 	.byte	24,198,24,198
00004ee2 18c618c6       9826 	.byte	24,198,24,198
00004ee6 18c618c6       9827 	.byte	24,198,24,198
00004eea 18c618c6       9828 	.byte	24,198,24,198
00004eee 18c618c6       9829 	.byte	24,198,24,198
00004ef2 18c618c6       9830 	.byte	24,198,24,198
00004ef6 18c618c6       9831 	.byte	24,198,24,198
00004efa 18c618c6       9832 	.byte	24,198,24,198
00004efe 18c618c6       9833 	.byte	24,198,24,198
00004f02 18c618c6       9834 	.byte	24,198,24,198
00004f06 18c618c6       9835 	.byte	24,198,24,198
00004f0a 18c618c6       9836 	.byte	24,198,24,198
00004f0e 18c618c6       9837 	.byte	24,198,24,198
00004f12 18c618c6       9838 	.byte	24,198,24,198
00004f16 18c618c6       9839 	.byte	24,198,24,198
00004f1a 18c618c6       9840 	.byte	24,198,24,198
00004f1e 18c618c6       9841 	.byte	24,198,24,198
00004f22 18c618c6       9842 	.byte	24,198,24,198
00004f26 18c618c6       9843 	.byte	24,198,24,198
00004f2a 18c618c6       9844 	.byte	24,198,24,198
00004f2e 18c618c6       9845 	.byte	24,198,24,198
00004f32 18c618c6       9846 	.byte	24,198,24,198
00004f36 18c618c6       9847 	.byte	24,198,24,198
00004f3a 18c618c6       9848 	.byte	24,198,24,198
00004f3e 18c618c6       9849 	.byte	24,198,24,198
00004f42 18c618c6       9850 	.byte	24,198,24,198
00004f46 18c618c6       9851 	.byte	24,198,24,198
00004f4a 18c618c6       9852 	.byte	24,198,24,198
00004f4e 3084c739       9853 	.byte	48,132,199,57
00004f52 18c618c6       9854 	.byte	24,198,24,198
00004f56 18c618c6       9855 	.byte	24,198,24,198
00004f5a 18c618c6       9856 	.byte	24,198,24,198
00004f5e 18c618c6       9857 	.byte	24,198,24,198
00004f62 18c618c6       9858 	.byte	24,198,24,198
00004f66 18c618c6       9859 	.byte	24,198,24,198

                                                                      Page 175
                                                              C:\Users\NIKHIL~1.PAT\AppData\Local\Temp\gh_000aeoo1.s
00004f6a 18c618c6       9860 	.byte	24,198,24,198
00004f6e 18c618c6       9861 	.byte	24,198,24,198
00004f72 18c618c6       9862 	.byte	24,198,24,198
00004f76 18c618c6       9863 	.byte	24,198,24,198
00004f7a 18c618c6       9864 	.byte	24,198,24,198
00004f7e 18c618c6       9865 	.byte	24,198,24,198
00004f82 18c618c6       9866 	.byte	24,198,24,198
00004f86 18c618c6       9867 	.byte	24,198,24,198
00004f8a 18c618c6       9868 	.byte	24,198,24,198
00004f8e 18c618c6       9869 	.byte	24,198,24,198
00004f92 18c618c6       9870 	.byte	24,198,24,198
00004f96 18c618c6       9871 	.byte	24,198,24,198
00004f9a 18c618c6       9872 	.byte	24,198,24,198
00004f9e 18c618c6       9873 	.byte	24,198,24,198
00004fa2 18c618c6       9874 	.byte	24,198,24,198
00004fa6 18c618c6       9875 	.byte	24,198,24,198
00004faa 18c618c6       9876 	.byte	24,198,24,198
00004fae 18c618c6       9877 	.byte	24,198,24,198
00004fb2 18c618c6       9878 	.byte	24,198,24,198
00004fb6 18c618c6       9879 	.byte	24,198,24,198
00004fba 18c618c6       9880 	.byte	24,198,24,198
00004fbe 18c618c6       9881 	.byte	24,198,24,198
00004fc2 18c618c6       9882 	.byte	24,198,24,198
00004fc6 18c618c6       9883 	.byte	24,198,24,198
00004fca 18c618c6       9884 	.byte	24,198,24,198
00004fce 18c618c6       9885 	.byte	24,198,24,198
00004fd2 18c618c6       9886 	.byte	24,198,24,198
00004fd6 18c618c6       9887 	.byte	24,198,24,198
00004fda 18c618c6       9888 	.byte	24,198,24,198
00004fde 18c618c6       9889 	.byte	24,198,24,198
00004fe2 18c618c6       9890 	.byte	24,198,24,198
00004fe6 18c618c6       9891 	.byte	24,198,24,198
00004fea 18c618c6       9892 	.byte	24,198,24,198
00004fee 18c618c6       9893 	.byte	24,198,24,198
00004ff2 18c618c6       9894 	.byte	24,198,24,198
00004ff6 18c618c6       9895 	.byte	24,198,24,198
00004ffa 18c618c6       9896 	.byte	24,198,24,198
00004ffe 18c618c6       9897 	.byte	24,198,24,198
00005002 18c618c6       9898 	.byte	24,198,24,198
00005006 18c618c6       9899 	.byte	24,198,24,198
0000500a 18c618c6       9900 	.byte	24,198,24,198
0000500e 18c618c6       9901 	.byte	24,198,24,198
00005012 18c618c6       9902 	.byte	24,198,24,198
00005016 18c618c6       9903 	.byte	24,198,24,198
0000501a 18c618c6       9904 	.byte	24,198,24,198
0000501e 18c618c6       9905 	.byte	24,198,24,198
00005022 18c618c6       9906 	.byte	24,198,24,198
00005026 18c618c6       9907 	.byte	24,198,24,198
0000502a 18c618c6       9908 	.byte	24,198,24,198
0000502e 18c618c6       9909 	.byte	24,198,24,198
00005032 18c618c6       9910 	.byte	24,198,24,198
00005036 18c618c6       9911 	.byte	24,198,24,198
0000503a 18c618c6       9912 	.byte	24,198,24,198
0000503e 18c618c6       9913 	.byte	24,198,24,198
00005042 18c618c6       9914 	.byte	24,198,24,198
00005046 18c618c6       9915 	.byte	24,198,24,198
0000504a 18c618c6       9916 	.byte	24,198,24,198
0000504e 18c618c6       9917 	.byte	24,198,24,198
00005052 18c618c6       9918 	.byte	24,198,24,198
00005056 18c618c6       9919 	.byte	24,198,24,198
0000505a 18c618c6       9920 	.byte	24,198,24,198

                                                                      Page 176
                                                              C:\Users\NIKHIL~1.PAT\AppData\Local\Temp\gh_000aeoo1.s
0000505e 18c618c6       9921 	.byte	24,198,24,198
00005062 18c618c6       9922 	.byte	24,198,24,198
00005066 18c618c6       9923 	.byte	24,198,24,198
0000506a 18c618c6       9924 	.byte	24,198,24,198
0000506e 18c618c6       9925 	.byte	24,198,24,198
00005072 18c618c6       9926 	.byte	24,198,24,198
00005076 18c618c6       9927 	.byte	24,198,24,198
0000507a 18c618c6       9928 	.byte	24,198,24,198
0000507e 18c618c6       9929 	.byte	24,198,24,198
00005082 18c618c6       9930 	.byte	24,198,24,198
00005086 18c618c6       9931 	.byte	24,198,24,198
0000508a 18c618c6       9932 	.byte	24,198,24,198
0000508e 18c618c6       9933 	.byte	24,198,24,198
00005092 18c618c6       9934 	.byte	24,198,24,198
00005096 18c618c6       9935 	.byte	24,198,24,198
0000509a 18c618c6       9936 	.byte	24,198,24,198
0000509e 18c618c6       9937 	.byte	24,198,24,198
000050a2 18c618c6       9938 	.byte	24,198,24,198
000050a6 18c618c6       9939 	.byte	24,198,24,198
000050aa 18c618c6       9940 	.byte	24,198,24,198
000050ae 18c618c6       9941 	.byte	24,198,24,198
000050b2 18c618c6       9942 	.byte	24,198,24,198
000050b6 18c618c6       9943 	.byte	24,198,24,198
000050ba 18c618c6       9944 	.byte	24,198,24,198
000050be 18c618c6       9945 	.byte	24,198,24,198
000050c2 18c618c6       9946 	.byte	24,198,24,198
000050c6 18c618c6       9947 	.byte	24,198,24,198
000050ca 18c618c6       9948 	.byte	24,198,24,198
000050ce 18c618c6       9949 	.byte	24,198,24,198
000050d2 18c618c6       9950 	.byte	24,198,24,198
000050d6 18c618c6       9951 	.byte	24,198,24,198
000050da 18c618c6       9952 	.byte	24,198,24,198
000050de 18c618c6       9953 	.byte	24,198,24,198
000050e2 18c618c6       9954 	.byte	24,198,24,198
000050e6 18c618c6       9955 	.byte	24,198,24,198
000050ea 18c618c6       9956 	.byte	24,198,24,198
000050ee 18c618c6       9957 	.byte	24,198,24,198
000050f2 18c618c6       9958 	.byte	24,198,24,198
000050f6 18c618c6       9959 	.byte	24,198,24,198
000050fa 18c618c6       9960 	.byte	24,198,24,198
000050fe 18c618c6       9961 	.byte	24,198,24,198
00005102 18c618c6       9962 	.byte	24,198,24,198
00005106 18c618c6       9963 	.byte	24,198,24,198
0000510a 18c618c6       9964 	.byte	24,198,24,198
0000510e 18c618c6       9965 	.byte	24,198,24,198
00005112 18c618c6       9966 	.byte	24,198,24,198
00005116 18c618c6       9967 	.byte	24,198,24,198
0000511a 18c618c6       9968 	.byte	24,198,24,198
0000511e 18c618c6       9969 	.byte	24,198,24,198
00005122 18c618c6       9970 	.byte	24,198,24,198
00005126 18c618c6       9971 	.byte	24,198,24,198
0000512a 18c618c6       9972 	.byte	24,198,24,198
0000512e 18c618c6       9973 	.byte	24,198,24,198
00005132 18c618c6       9974 	.byte	24,198,24,198
00005136 18c618c6       9975 	.byte	24,198,24,198
0000513a 18c618c6       9976 	.byte	24,198,24,198
0000513e 18c618c6       9977 	.byte	24,198,24,198
00005142 18c618c6       9978 	.byte	24,198,24,198
00005146 18c618c6       9979 	.byte	24,198,24,198
0000514a 18c618c6       9980 	.byte	24,198,24,198
0000514e 18c618c6       9981 	.byte	24,198,24,198

                                                                      Page 177
                                                              C:\Users\NIKHIL~1.PAT\AppData\Local\Temp\gh_000aeoo1.s
00005152 18c618c6       9982 	.byte	24,198,24,198
00005156 18c618c6       9983 	.byte	24,198,24,198
0000515a 18c618c6       9984 	.byte	24,198,24,198
0000515e 18c618c6       9985 	.byte	24,198,24,198
00005162 18c618c6       9986 	.byte	24,198,24,198
00005166 18c618c6       9987 	.byte	24,198,24,198
0000516a 18c618c6       9988 	.byte	24,198,24,198
0000516e 18c618c6       9989 	.byte	24,198,24,198
00005172 18c618c6       9990 	.byte	24,198,24,198
00005176 18c618c6       9991 	.byte	24,198,24,198
0000517a 18c618c6       9992 	.byte	24,198,24,198
0000517e 18c618c6       9993 	.byte	24,198,24,198
00005182 18c618c6       9994 	.byte	24,198,24,198
00005186 18c618c6       9995 	.byte	24,198,24,198
0000518a 18c618c6       9996 	.byte	24,198,24,198
0000518e 18c618c6       9997 	.byte	24,198,24,198
00005192 18c618c6       9998 	.byte	24,198,24,198
00005196 18c618c6       9999 	.byte	24,198,24,198
0000519a 18c618c6      10000 	.byte	24,198,24,198
0000519e 18c618c6      10001 	.byte	24,198,24,198
000051a2 18c618c6      10002 	.byte	24,198,24,198
000051a6 18c618c6      10003 	.byte	24,198,24,198
000051aa 18c618c6      10004 	.byte	24,198,24,198
000051ae 18c618c6      10005 	.byte	24,198,24,198
000051b2 18c618c6      10006 	.byte	24,198,24,198
000051b6 18c618c6      10007 	.byte	24,198,24,198
000051ba 18c618c6      10008 	.byte	24,198,24,198
000051be 18c618c6      10009 	.byte	24,198,24,198
000051c2 18c618c6      10010 	.byte	24,198,24,198
000051c6 18c618c6      10011 	.byte	24,198,24,198
000051ca 18c618c6      10012 	.byte	24,198,24,198
000051ce 18c618c6      10013 	.byte	24,198,24,198
000051d2 18c618c6      10014 	.byte	24,198,24,198
000051d6 18c618c6      10015 	.byte	24,198,24,198
000051da 18c618c6      10016 	.byte	24,198,24,198
000051de 18c618c6      10017 	.byte	24,198,24,198
000051e2 18c618c6      10018 	.byte	24,198,24,198
000051e6 18c618c6      10019 	.byte	24,198,24,198
000051ea 18c618c6      10020 	.byte	24,198,24,198
000051ee 18c618c6      10021 	.byte	24,198,24,198
000051f2 18c618c6      10022 	.byte	24,198,24,198
000051f6 18c618c6      10023 	.byte	24,198,24,198
000051fa 18c618c6      10024 	.byte	24,198,24,198
000051fe 18c618c6      10025 	.byte	24,198,24,198
00005202 18c618c6      10026 	.byte	24,198,24,198
00005206 18c618c6      10027 	.byte	24,198,24,198
0000520a 18c618c6      10028 	.byte	24,198,24,198
0000520e 18c6          10029 	.byte	24,198
00005210 00            10030 	.space	1
00005211 00            10031 	.space	1
00005212 18c618c6      10032 	.byte	24,198,24,198
00005216 18c618c6      10033 	.byte	24,198,24,198
0000521a 18c6          10034 	.byte	24,198
0000521c 00            10035 	.space	1
0000521d 00            10036 	.space	1
0000521e 00            10037 	.space	1
0000521f 00            10038 	.space	1
00005220 00            10039 	.space	1
00005221 00            10040 	.space	1
00005222 18c618c6      10041 	.byte	24,198,24,198
00005226 00            10042 	.space	1

                                                                      Page 178
                                                              C:\Users\NIKHIL~1.PAT\AppData\Local\Temp\gh_000aeoo1.s
00005227 00            10043 	.space	1
00005228 718c18c6      10044 	.byte	113,140,24,198
0000522c 18c618c6      10045 	.byte	24,198,24,198
00005230 00            10046 	.space	1
00005231 00            10047 	.space	1
00005232 18c618c6      10048 	.byte	24,198,24,198
00005236 18c618c6      10049 	.byte	24,198,24,198
0000523a 18c618c6      10050 	.byte	24,198,24,198
0000523e 18c618c6      10051 	.byte	24,198,24,198
00005242 18c618c6      10052 	.byte	24,198,24,198
00005246 18c618c6      10053 	.byte	24,198,24,198
0000524a 18c618c6      10054 	.byte	24,198,24,198
0000524e 18c618c6      10055 	.byte	24,198,24,198
00005252 18c618c6      10056 	.byte	24,198,24,198
00005256 18c618c6      10057 	.byte	24,198,24,198
0000525a 18c618c6      10058 	.byte	24,198,24,198
0000525e 18c618c6      10059 	.byte	24,198,24,198
00005262 18c618c6      10060 	.byte	24,198,24,198
00005266 18c618c6      10061 	.byte	24,198,24,198
0000526a 18c618c6      10062 	.byte	24,198,24,198
0000526e 18c618c6      10063 	.byte	24,198,24,198
00005272 18c618c6      10064 	.byte	24,198,24,198
00005276 18c618c6      10065 	.byte	24,198,24,198
0000527a 18c618c6      10066 	.byte	24,198,24,198
0000527e 18c618c6      10067 	.byte	24,198,24,198
00005282 18c618c6      10068 	.byte	24,198,24,198
00005286 18c618c6      10069 	.byte	24,198,24,198
0000528a 18c618c6      10070 	.byte	24,198,24,198
0000528e 18c618c6      10071 	.byte	24,198,24,198
00005292 18c618c6      10072 	.byte	24,198,24,198
00005296 18c618c6      10073 	.byte	24,198,24,198
0000529a 18c618c6      10074 	.byte	24,198,24,198
0000529e 18c618c6      10075 	.byte	24,198,24,198
000052a2 18c618c6      10076 	.byte	24,198,24,198
000052a6 18c618c6      10077 	.byte	24,198,24,198
000052aa 18c618c6      10078 	.byte	24,198,24,198
000052ae 18c618c6      10079 	.byte	24,198,24,198
000052b2 18c618c6      10080 	.byte	24,198,24,198
000052b6 18c618c6      10081 	.byte	24,198,24,198
000052ba 18c618c6      10082 	.byte	24,198,24,198
000052be 18c618c6      10083 	.byte	24,198,24,198
000052c2 18c618c6      10084 	.byte	24,198,24,198
000052c6 18c618c6      10085 	.byte	24,198,24,198
000052ca 18c618c6      10086 	.byte	24,198,24,198
000052ce 18c618c6      10087 	.byte	24,198,24,198
000052d2 18c618c6      10088 	.byte	24,198,24,198
000052d6 18c618c6      10089 	.byte	24,198,24,198
000052da 18c618c6      10090 	.byte	24,198,24,198
000052de 18c618c6      10091 	.byte	24,198,24,198
000052e2 18c618c6      10092 	.byte	24,198,24,198
000052e6 18c618c6      10093 	.byte	24,198,24,198
000052ea 18c618c6      10094 	.byte	24,198,24,198
000052ee 18c618c6      10095 	.byte	24,198,24,198
000052f2 18c618c6      10096 	.byte	24,198,24,198
000052f6 18c618c6      10097 	.byte	24,198,24,198
000052fa 18c618c6      10098 	.byte	24,198,24,198
000052fe 18c618c6      10099 	.byte	24,198,24,198
00005302 18c618c6      10100 	.byte	24,198,24,198
00005306 18c618c6      10101 	.byte	24,198,24,198
0000530a 18c618c6      10102 	.byte	24,198,24,198
0000530e 18c6          10103 	.byte	24,198

                                                                      Page 179
                                                              C:\Users\NIKHIL~1.PAT\AppData\Local\Temp\gh_000aeoo1.s
00005310 00            10104 	.space	1
00005311 00            10105 	.space	1
00005312 18c618c6      10106 	.byte	24,198,24,198
00005316 18c618c6      10107 	.byte	24,198,24,198
0000531a 18c618c6      10108 	.byte	24,198,24,198
0000531e 00            10109 	.space	1
0000531f 00            10110 	.space	1
00005320 18c618c6      10111 	.byte	24,198,24,198
00005324 18c6          10112 	.byte	24,198
00005326 00            10113 	.space	1
00005327 00            10114 	.space	1
00005328 cf7b34a5      10115 	.byte	207,123,52,165
0000532c 18c618c6      10116 	.byte	24,198,24,198
00005330 00            10117 	.space	1
00005331 00            10118 	.space	1
00005332 18c618c6      10119 	.byte	24,198,24,198
00005336 18c618c6      10120 	.byte	24,198,24,198
0000533a 18c618c6      10121 	.byte	24,198,24,198
0000533e 18c618c6      10122 	.byte	24,198,24,198
00005342 18c618c6      10123 	.byte	24,198,24,198
00005346 18c618c6      10124 	.byte	24,198,24,198
0000534a 18c618c6      10125 	.byte	24,198,24,198
0000534e 18c618c6      10126 	.byte	24,198,24,198
00005352 18c618c6      10127 	.byte	24,198,24,198
00005356 18c618c6      10128 	.byte	24,198,24,198
0000535a 18c618c6      10129 	.byte	24,198,24,198
0000535e 18c618c6      10130 	.byte	24,198,24,198
00005362 18c618c6      10131 	.byte	24,198,24,198
00005366 18c618c6      10132 	.byte	24,198,24,198
0000536a 18c618c6      10133 	.byte	24,198,24,198
0000536e 18c618c6      10134 	.byte	24,198,24,198
00005372 18c618c6      10135 	.byte	24,198,24,198
00005376 18c618c6      10136 	.byte	24,198,24,198
0000537a 18c618c6      10137 	.byte	24,198,24,198
0000537e 18c618c6      10138 	.byte	24,198,24,198
00005382 18c618c6      10139 	.byte	24,198,24,198
00005386 18c618c6      10140 	.byte	24,198,24,198
0000538a 18c618c6      10141 	.byte	24,198,24,198
0000538e 18c618c6      10142 	.byte	24,198,24,198
00005392 18c618c6      10143 	.byte	24,198,24,198
00005396 18c618c6      10144 	.byte	24,198,24,198
0000539a 18c618c6      10145 	.byte	24,198,24,198
0000539e 18c618c6      10146 	.byte	24,198,24,198
000053a2 18c618c6      10147 	.byte	24,198,24,198
000053a6 18c618c6      10148 	.byte	24,198,24,198
000053aa 18c618c6      10149 	.byte	24,198,24,198
000053ae 18c618c6      10150 	.byte	24,198,24,198
000053b2 18c618c6      10151 	.byte	24,198,24,198
000053b6 18c618c6      10152 	.byte	24,198,24,198
000053ba 18c618c6      10153 	.byte	24,198,24,198
000053be 18c618c6      10154 	.byte	24,198,24,198
000053c2 18c618c6      10155 	.byte	24,198,24,198
000053c6 18c618c6      10156 	.byte	24,198,24,198
000053ca 18c618c6      10157 	.byte	24,198,24,198
000053ce 18c618c6      10158 	.byte	24,198,24,198
000053d2 18c618c6      10159 	.byte	24,198,24,198
000053d6 18c618c6      10160 	.byte	24,198,24,198
000053da 18c618c6      10161 	.byte	24,198,24,198
000053de 18c618c6      10162 	.byte	24,198,24,198
000053e2 18c618c6      10163 	.byte	24,198,24,198
000053e6 18c618c6      10164 	.byte	24,198,24,198

                                                                      Page 180
                                                              C:\Users\NIKHIL~1.PAT\AppData\Local\Temp\gh_000aeoo1.s
000053ea 18c618c6      10165 	.byte	24,198,24,198
000053ee 18c618c6      10166 	.byte	24,198,24,198
000053f2 18c618c6      10167 	.byte	24,198,24,198
000053f6 18c618c6      10168 	.byte	24,198,24,198
000053fa 18c618c6      10169 	.byte	24,198,24,198
000053fe 18c618c6      10170 	.byte	24,198,24,198
00005402 18c618c6      10171 	.byte	24,198,24,198
00005406 18c618c6      10172 	.byte	24,198,24,198
0000540a 18c618c6      10173 	.byte	24,198,24,198
0000540e 18c6          10174 	.byte	24,198
00005410 00            10175 	.space	1
00005411 00            10176 	.space	1
00005412 18c618c6      10177 	.byte	24,198,24,198
00005416 18c618c6      10178 	.byte	24,198,24,198
0000541a 18c618c6      10179 	.byte	24,198,24,198
0000541e 00            10180 	.space	1
0000541f 00            10181 	.space	1
00005420 18c618c6      10182 	.byte	24,198,24,198
00005424 18c6          10183 	.byte	24,198
00005426 00            10184 	.space	1
00005427 00            10185 	.space	1
00005428 18c6eb5a      10186 	.byte	24,198,235,90
0000542c b6b518c6      10187 	.byte	182,181,24,198
00005430 00            10188 	.space	1
00005431 00            10189 	.space	1
00005432 18c618c6      10190 	.byte	24,198,24,198
00005436 18c618c6      10191 	.byte	24,198,24,198
0000543a 18c618c6      10192 	.byte	24,198,24,198
0000543e 18c618c6      10193 	.byte	24,198,24,198
00005442 18c618c6      10194 	.byte	24,198,24,198
00005446 18c618c6      10195 	.byte	24,198,24,198
0000544a 18c618c6      10196 	.byte	24,198,24,198
0000544e 18c618c6      10197 	.byte	24,198,24,198
00005452 18c618c6      10198 	.byte	24,198,24,198
00005456 18c618c6      10199 	.byte	24,198,24,198
0000545a 18c618c6      10200 	.byte	24,198,24,198
0000545e 18c618c6      10201 	.byte	24,198,24,198
00005462 18c618c6      10202 	.byte	24,198,24,198
00005466 18c618c6      10203 	.byte	24,198,24,198
0000546a 18c618c6      10204 	.byte	24,198,24,198
0000546e 18c618c6      10205 	.byte	24,198,24,198
00005472 18c618c6      10206 	.byte	24,198,24,198
00005476 18c618c6      10207 	.byte	24,198,24,198
0000547a 18c618c6      10208 	.byte	24,198,24,198
0000547e 18c618c6      10209 	.byte	24,198,24,198
00005482 18c618c6      10210 	.byte	24,198,24,198
00005486 18c618c6      10211 	.byte	24,198,24,198
0000548a 18c618c6      10212 	.byte	24,198,24,198
0000548e 18c618c6      10213 	.byte	24,198,24,198
00005492 18c618c6      10214 	.byte	24,198,24,198
00005496 18c618c6      10215 	.byte	24,198,24,198
0000549a 18c618c6      10216 	.byte	24,198,24,198
0000549e 18c618c6      10217 	.byte	24,198,24,198
000054a2 18c618c6      10218 	.byte	24,198,24,198
000054a6 18c618c6      10219 	.byte	24,198,24,198
000054aa 18c618c6      10220 	.byte	24,198,24,198
000054ae 18c618c6      10221 	.byte	24,198,24,198
000054b2 18c618c6      10222 	.byte	24,198,24,198
000054b6 18c618c6      10223 	.byte	24,198,24,198
000054ba 18c618c6      10224 	.byte	24,198,24,198
000054be 18c618c6      10225 	.byte	24,198,24,198

                                                                      Page 181
                                                              C:\Users\NIKHIL~1.PAT\AppData\Local\Temp\gh_000aeoo1.s
000054c2 18c618c6      10226 	.byte	24,198,24,198
000054c6 18c618c6      10227 	.byte	24,198,24,198
000054ca 18c618c6      10228 	.byte	24,198,24,198
000054ce 18c618c6      10229 	.byte	24,198,24,198
000054d2 18c618c6      10230 	.byte	24,198,24,198
000054d6 18c618c6      10231 	.byte	24,198,24,198
000054da 18c618c6      10232 	.byte	24,198,24,198
000054de 18c618c6      10233 	.byte	24,198,24,198
000054e2 18c618c6      10234 	.byte	24,198,24,198
000054e6 18c618c6      10235 	.byte	24,198,24,198
000054ea 18c618c6      10236 	.byte	24,198,24,198
000054ee 18c618c6      10237 	.byte	24,198,24,198
000054f2 18c618c6      10238 	.byte	24,198,24,198
000054f6 18c618c6      10239 	.byte	24,198,24,198
000054fa 18c618c6      10240 	.byte	24,198,24,198
000054fe 18c618c6      10241 	.byte	24,198,24,198
00005502 18c618c6      10242 	.byte	24,198,24,198
00005506 18c618c6      10243 	.byte	24,198,24,198
0000550a 18c618c6      10244 	.byte	24,198,24,198
0000550e 18c6          10245 	.byte	24,198
00005510 00            10246 	.space	1
00005511 00            10247 	.space	1
00005512 18c618c6      10248 	.byte	24,198,24,198
00005516 18c618c6      10249 	.byte	24,198,24,198
0000551a 18c618c6      10250 	.byte	24,198,24,198
0000551e 00            10251 	.space	1
0000551f 00            10252 	.space	1
00005520 18c618c6      10253 	.byte	24,198,24,198
00005524 18c6          10254 	.byte	24,198
00005526 00            10255 	.space	1
00005527 00            10256 	.space	1
00005528 18c6b6b5      10257 	.byte	24,198,182,181
0000552c aa5218c6      10258 	.byte	170,82,24,198
00005530 00            10259 	.space	1
00005531 00            10260 	.space	1
00005532 18c618c6      10261 	.byte	24,198,24,198
00005536 18c618c6      10262 	.byte	24,198,24,198
0000553a 18c618c6      10263 	.byte	24,198,24,198
0000553e 18c618c6      10264 	.byte	24,198,24,198
00005542 18c618c6      10265 	.byte	24,198,24,198
00005546 18c618c6      10266 	.byte	24,198,24,198
0000554a 18c618c6      10267 	.byte	24,198,24,198
0000554e 18c618c6      10268 	.byte	24,198,24,198
00005552 18c618c6      10269 	.byte	24,198,24,198
00005556 18c618c6      10270 	.byte	24,198,24,198
0000555a 18c618c6      10271 	.byte	24,198,24,198
0000555e 18c618c6      10272 	.byte	24,198,24,198
00005562 18c618c6      10273 	.byte	24,198,24,198
00005566 18c618c6      10274 	.byte	24,198,24,198
0000556a 18c618c6      10275 	.byte	24,198,24,198
0000556e 18c618c6      10276 	.byte	24,198,24,198
00005572 18c618c6      10277 	.byte	24,198,24,198
00005576 18c618c6      10278 	.byte	24,198,24,198
0000557a 18c618c6      10279 	.byte	24,198,24,198
0000557e 18c618c6      10280 	.byte	24,198,24,198
00005582 18c618c6      10281 	.byte	24,198,24,198
00005586 18c618c6      10282 	.byte	24,198,24,198
0000558a 18c618c6      10283 	.byte	24,198,24,198
0000558e 18c618c6      10284 	.byte	24,198,24,198
00005592 18c618c6      10285 	.byte	24,198,24,198
00005596 18c618c6      10286 	.byte	24,198,24,198

                                                                      Page 182
                                                              C:\Users\NIKHIL~1.PAT\AppData\Local\Temp\gh_000aeoo1.s
0000559a 18c618c6      10287 	.byte	24,198,24,198
0000559e 18c618c6      10288 	.byte	24,198,24,198
000055a2 18c618c6      10289 	.byte	24,198,24,198
000055a6 18c618c6      10290 	.byte	24,198,24,198
000055aa 18c618c6      10291 	.byte	24,198,24,198
000055ae 18c618c6      10292 	.byte	24,198,24,198
000055b2 18c618c6      10293 	.byte	24,198,24,198
000055b6 18c618c6      10294 	.byte	24,198,24,198
000055ba 18c618c6      10295 	.byte	24,198,24,198
000055be 18c618c6      10296 	.byte	24,198,24,198
000055c2 18c618c6      10297 	.byte	24,198,24,198
000055c6 18c618c6      10298 	.byte	24,198,24,198
000055ca 18c618c6      10299 	.byte	24,198,24,198
000055ce 18c618c6      10300 	.byte	24,198,24,198
000055d2 18c618c6      10301 	.byte	24,198,24,198
000055d6 18c618c6      10302 	.byte	24,198,24,198
000055da 18c618c6      10303 	.byte	24,198,24,198
000055de 18c618c6      10304 	.byte	24,198,24,198
000055e2 18c618c6      10305 	.byte	24,198,24,198
000055e6 18c618c6      10306 	.byte	24,198,24,198
000055ea 18c618c6      10307 	.byte	24,198,24,198
000055ee 18c618c6      10308 	.byte	24,198,24,198
000055f2 18c618c6      10309 	.byte	24,198,24,198
000055f6 18c618c6      10310 	.byte	24,198,24,198
000055fa 18c618c6      10311 	.byte	24,198,24,198
000055fe 18c618c6      10312 	.byte	24,198,24,198
00005602 18c618c6      10313 	.byte	24,198,24,198
00005606 18c618c6      10314 	.byte	24,198,24,198
0000560a 18c618c6      10315 	.byte	24,198,24,198
0000560e 18c6          10316 	.byte	24,198
00005610 00            10317 	.space	1
00005611 00            10318 	.space	1
00005612 18c618c6      10319 	.byte	24,198,24,198
00005616 18c618c6      10320 	.byte	24,198,24,198
0000561a 18c618c6      10321 	.byte	24,198,24,198
0000561e 00            10322 	.space	1
0000561f 00            10323 	.space	1
00005620 18c618c6      10324 	.byte	24,198,24,198
00005624 18c6          10325 	.byte	24,198
00005626 00            10326 	.space	1
00005627 00            10327 	.space	1
00005628 18c618c6      10328 	.byte	24,198,24,198
0000562c d39c0c63      10329 	.byte	211,156,12,99
00005630 00            10330 	.space	1
00005631 00            10331 	.space	1
00005632 18c618c6      10332 	.byte	24,198,24,198
00005636 18c618c6      10333 	.byte	24,198,24,198
0000563a 18c618c6      10334 	.byte	24,198,24,198
0000563e 18c618c6      10335 	.byte	24,198,24,198
00005642 18c618c6      10336 	.byte	24,198,24,198
00005646 18c618c6      10337 	.byte	24,198,24,198
0000564a 18c618c6      10338 	.byte	24,198,24,198
0000564e 18c618c6      10339 	.byte	24,198,24,198
00005652 18c618c6      10340 	.byte	24,198,24,198
00005656 18c618c6      10341 	.byte	24,198,24,198
0000565a 18c618c6      10342 	.byte	24,198,24,198
0000565e 18c618c6      10343 	.byte	24,198,24,198
00005662 18c618c6      10344 	.byte	24,198,24,198
00005666 18c618c6      10345 	.byte	24,198,24,198
0000566a 18c618c6      10346 	.byte	24,198,24,198
0000566e 18c618c6      10347 	.byte	24,198,24,198

                                                                      Page 183
                                                              C:\Users\NIKHIL~1.PAT\AppData\Local\Temp\gh_000aeoo1.s
00005672 18c618c6      10348 	.byte	24,198,24,198
00005676 18c618c6      10349 	.byte	24,198,24,198
0000567a 18c618c6      10350 	.byte	24,198,24,198
0000567e 18c618c6      10351 	.byte	24,198,24,198
00005682 18c618c6      10352 	.byte	24,198,24,198
00005686 18c618c6      10353 	.byte	24,198,24,198
0000568a 18c618c6      10354 	.byte	24,198,24,198
0000568e 18c618c6      10355 	.byte	24,198,24,198
00005692 18c618c6      10356 	.byte	24,198,24,198
00005696 18c618c6      10357 	.byte	24,198,24,198
0000569a 18c618c6      10358 	.byte	24,198,24,198
0000569e 18c618c6      10359 	.byte	24,198,24,198
000056a2 18c618c6      10360 	.byte	24,198,24,198
000056a6 18c618c6      10361 	.byte	24,198,24,198
000056aa 18c618c6      10362 	.byte	24,198,24,198
000056ae 18c618c6      10363 	.byte	24,198,24,198
000056b2 18c618c6      10364 	.byte	24,198,24,198
000056b6 18c618c6      10365 	.byte	24,198,24,198
000056ba 18c618c6      10366 	.byte	24,198,24,198
000056be 18c618c6      10367 	.byte	24,198,24,198
000056c2 18c618c6      10368 	.byte	24,198,24,198
000056c6 18c618c6      10369 	.byte	24,198,24,198
000056ca 18c618c6      10370 	.byte	24,198,24,198
000056ce 18c618c6      10371 	.byte	24,198,24,198
000056d2 18c618c6      10372 	.byte	24,198,24,198
000056d6 18c618c6      10373 	.byte	24,198,24,198
000056da 18c618c6      10374 	.byte	24,198,24,198
000056de 18c618c6      10375 	.byte	24,198,24,198
000056e2 18c618c6      10376 	.byte	24,198,24,198
000056e6 18c618c6      10377 	.byte	24,198,24,198
000056ea 18c618c6      10378 	.byte	24,198,24,198
000056ee 18c618c6      10379 	.byte	24,198,24,198
000056f2 18c618c6      10380 	.byte	24,198,24,198
000056f6 18c618c6      10381 	.byte	24,198,24,198
000056fa 18c618c6      10382 	.byte	24,198,24,198
000056fe 18c618c6      10383 	.byte	24,198,24,198
00005702 18c618c6      10384 	.byte	24,198,24,198
00005706 18c618c6      10385 	.byte	24,198,24,198
0000570a 18c618c6      10386 	.byte	24,198,24,198
0000570e 18c6          10387 	.byte	24,198
00005710 00            10388 	.space	1
00005711 00            10389 	.space	1
00005712 18c618c6      10390 	.byte	24,198,24,198
00005716 18c618c6      10391 	.byte	24,198,24,198
0000571a 18c618c6      10392 	.byte	24,198,24,198
0000571e 00            10393 	.space	1
0000571f 00            10394 	.space	1
00005720 18c618c6      10395 	.byte	24,198,24,198
00005724 18c6          10396 	.byte	24,198
00005726 00            10397 	.space	1
00005727 00            10398 	.space	1
00005728 18c618c6      10399 	.byte	24,198,24,198
0000572c 18c66d6b      10400 	.byte	24,198,109,107
00005730 00            10401 	.space	1
00005731 00            10402 	.space	1
00005732 18c618c6      10403 	.byte	24,198,24,198
00005736 18c618c6      10404 	.byte	24,198,24,198
0000573a 18c618c6      10405 	.byte	24,198,24,198
0000573e 18c618c6      10406 	.byte	24,198,24,198
00005742 18c618c6      10407 	.byte	24,198,24,198
00005746 18c618c6      10408 	.byte	24,198,24,198

                                                                      Page 184
                                                              C:\Users\NIKHIL~1.PAT\AppData\Local\Temp\gh_000aeoo1.s
0000574a 18c618c6      10409 	.byte	24,198,24,198
0000574e 18c618c6      10410 	.byte	24,198,24,198
00005752 18c618c6      10411 	.byte	24,198,24,198
00005756 18c618c6      10412 	.byte	24,198,24,198
0000575a 18c618c6      10413 	.byte	24,198,24,198
0000575e 18c618c6      10414 	.byte	24,198,24,198
00005762 18c618c6      10415 	.byte	24,198,24,198
00005766 18c618c6      10416 	.byte	24,198,24,198
0000576a 18c618c6      10417 	.byte	24,198,24,198
0000576e 18c618c6      10418 	.byte	24,198,24,198
00005772 18c618c6      10419 	.byte	24,198,24,198
00005776 18c618c6      10420 	.byte	24,198,24,198
0000577a 18c618c6      10421 	.byte	24,198,24,198
0000577e 18c618c6      10422 	.byte	24,198,24,198
00005782 18c618c6      10423 	.byte	24,198,24,198
00005786 18c618c6      10424 	.byte	24,198,24,198
0000578a 18c618c6      10425 	.byte	24,198,24,198
0000578e 18c618c6      10426 	.byte	24,198,24,198
00005792 18c618c6      10427 	.byte	24,198,24,198
00005796 18c618c6      10428 	.byte	24,198,24,198
0000579a 18c618c6      10429 	.byte	24,198,24,198
0000579e 18c618c6      10430 	.byte	24,198,24,198
000057a2 18c618c6      10431 	.byte	24,198,24,198
000057a6 18c618c6      10432 	.byte	24,198,24,198
000057aa 18c618c6      10433 	.byte	24,198,24,198
000057ae 18c618c6      10434 	.byte	24,198,24,198
000057b2 18c618c6      10435 	.byte	24,198,24,198
000057b6 18c618c6      10436 	.byte	24,198,24,198
000057ba 18c618c6      10437 	.byte	24,198,24,198
000057be 18c618c6      10438 	.byte	24,198,24,198
000057c2 18c618c6      10439 	.byte	24,198,24,198
000057c6 18c618c6      10440 	.byte	24,198,24,198
000057ca 18c618c6      10441 	.byte	24,198,24,198
000057ce 18c618c6      10442 	.byte	24,198,24,198
000057d2 18c618c6      10443 	.byte	24,198,24,198
000057d6 18c618c6      10444 	.byte	24,198,24,198
000057da 18c618c6      10445 	.byte	24,198,24,198
000057de 18c618c6      10446 	.byte	24,198,24,198
000057e2 18c618c6      10447 	.byte	24,198,24,198
000057e6 18c618c6      10448 	.byte	24,198,24,198
000057ea 18c618c6      10449 	.byte	24,198,24,198
000057ee 18c618c6      10450 	.byte	24,198,24,198
000057f2 18c618c6      10451 	.byte	24,198,24,198
000057f6 18c618c6      10452 	.byte	24,198,24,198
000057fa 18c618c6      10453 	.byte	24,198,24,198
000057fe 18c618c6      10454 	.byte	24,198,24,198
00005802 18c618c6      10455 	.byte	24,198,24,198
00005806 18c618c6      10456 	.byte	24,198,24,198
0000580a 18c618c6      10457 	.byte	24,198,24,198
0000580e 18c6          10458 	.byte	24,198
00005810 00            10459 	.space	1
00005811 00            10460 	.space	1
00005812 00            10461 	.space	1
00005813 00            10462 	.space	1
00005814 00            10463 	.space	1
00005815 00            10464 	.space	1
00005816 00            10465 	.space	1
00005817 00            10466 	.space	1
00005818 00            10467 	.space	1
00005819 00            10468 	.space	1
0000581a 18c6          10469 	.byte	24,198

                                                                      Page 185
                                                              C:\Users\NIKHIL~1.PAT\AppData\Local\Temp\gh_000aeoo1.s
0000581c 00            10470 	.space	1
0000581d 00            10471 	.space	1
0000581e 00            10472 	.space	1
0000581f 00            10473 	.space	1
00005820 00            10474 	.space	1
00005821 00            10475 	.space	1
00005822 18c618c6      10476 	.byte	24,198,24,198
00005826 00            10477 	.space	1
00005827 00            10478 	.space	1
00005828 18c618c6      10479 	.byte	24,198,24,198
0000582c 18c618c6      10480 	.byte	24,198,24,198
00005830 e73918c6      10481 	.byte	231,57,24,198
00005834 18c618c6      10482 	.byte	24,198,24,198
00005838 18c618c6      10483 	.byte	24,198,24,198
0000583c 18c618c6      10484 	.byte	24,198,24,198
00005840 18c618c6      10485 	.byte	24,198,24,198
00005844 18c618c6      10486 	.byte	24,198,24,198
00005848 18c618c6      10487 	.byte	24,198,24,198
0000584c 18c618c6      10488 	.byte	24,198,24,198
00005850 18c618c6      10489 	.byte	24,198,24,198
00005854 18c618c6      10490 	.byte	24,198,24,198
00005858 18c618c6      10491 	.byte	24,198,24,198
0000585c 18c618c6      10492 	.byte	24,198,24,198
00005860 18c618c6      10493 	.byte	24,198,24,198
00005864 18c618c6      10494 	.byte	24,198,24,198
00005868 18c618c6      10495 	.byte	24,198,24,198
0000586c 18c618c6      10496 	.byte	24,198,24,198
00005870 18c618c6      10497 	.byte	24,198,24,198
00005874 18c618c6      10498 	.byte	24,198,24,198
00005878 18c618c6      10499 	.byte	24,198,24,198
0000587c 18c618c6      10500 	.byte	24,198,24,198
00005880 18c618c6      10501 	.byte	24,198,24,198
00005884 18c618c6      10502 	.byte	24,198,24,198
00005888 18c618c6      10503 	.byte	24,198,24,198
0000588c 18c618c6      10504 	.byte	24,198,24,198
00005890 18c618c6      10505 	.byte	24,198,24,198
00005894 18c618c6      10506 	.byte	24,198,24,198
00005898 18c618c6      10507 	.byte	24,198,24,198
0000589c 18c618c6      10508 	.byte	24,198,24,198
000058a0 18c618c6      10509 	.byte	24,198,24,198
000058a4 18c618c6      10510 	.byte	24,198,24,198
000058a8 18c618c6      10511 	.byte	24,198,24,198
000058ac 18c618c6      10512 	.byte	24,198,24,198
000058b0 18c618c6      10513 	.byte	24,198,24,198
000058b4 18c618c6      10514 	.byte	24,198,24,198
000058b8 18c618c6      10515 	.byte	24,198,24,198
000058bc 18c618c6      10516 	.byte	24,198,24,198
000058c0 18c618c6      10517 	.byte	24,198,24,198
000058c4 18c618c6      10518 	.byte	24,198,24,198
000058c8 18c618c6      10519 	.byte	24,198,24,198
000058cc 18c618c6      10520 	.byte	24,198,24,198
000058d0 18c618c6      10521 	.byte	24,198,24,198
000058d4 18c618c6      10522 	.byte	24,198,24,198
000058d8 18c618c6      10523 	.byte	24,198,24,198
000058dc 18c618c6      10524 	.byte	24,198,24,198
000058e0 18c618c6      10525 	.byte	24,198,24,198
000058e4 18c618c6      10526 	.byte	24,198,24,198
000058e8 18c618c6      10527 	.byte	24,198,24,198
000058ec 18c618c6      10528 	.byte	24,198,24,198
000058f0 18c618c6      10529 	.byte	24,198,24,198
000058f4 18c618c6      10530 	.byte	24,198,24,198

                                                                      Page 186
                                                              C:\Users\NIKHIL~1.PAT\AppData\Local\Temp\gh_000aeoo1.s
000058f8 18c618c6      10531 	.byte	24,198,24,198
000058fc 18c618c6      10532 	.byte	24,198,24,198
00005900 18c618c6      10533 	.byte	24,198,24,198
00005904 18c618c6      10534 	.byte	24,198,24,198
00005908 18c618c6      10535 	.byte	24,198,24,198
0000590c 18c618c6      10536 	.byte	24,198,24,198
00005910 18c618c6      10537 	.byte	24,198,24,198
00005914 18c618c6      10538 	.byte	24,198,24,198
00005918 18c618c6      10539 	.byte	24,198,24,198
0000591c 18c618c6      10540 	.byte	24,198,24,198
00005920 18c618c6      10541 	.byte	24,198,24,198
00005924 18c618c6      10542 	.byte	24,198,24,198
00005928 18c618c6      10543 	.byte	24,198,24,198
0000592c 18c618c6      10544 	.byte	24,198,24,198
00005930 18c618c6      10545 	.byte	24,198,24,198
00005934 18c618c6      10546 	.byte	24,198,24,198
00005938 18c618c6      10547 	.byte	24,198,24,198
0000593c 18c618c6      10548 	.byte	24,198,24,198
00005940 18c618c6      10549 	.byte	24,198,24,198
00005944 18c618c6      10550 	.byte	24,198,24,198
00005948 18c618c6      10551 	.byte	24,198,24,198
0000594c 18c618c6      10552 	.byte	24,198,24,198
00005950 18c618c6      10553 	.byte	24,198,24,198
00005954 18c618c6      10554 	.byte	24,198,24,198
00005958 18c618c6      10555 	.byte	24,198,24,198
0000595c 18c618c6      10556 	.byte	24,198,24,198
00005960 18c618c6      10557 	.byte	24,198,24,198
00005964 18c618c6      10558 	.byte	24,198,24,198
00005968 18c618c6      10559 	.byte	24,198,24,198
0000596c 18c618c6      10560 	.byte	24,198,24,198
00005970 18c618c6      10561 	.byte	24,198,24,198
00005974 18c618c6      10562 	.byte	24,198,24,198
00005978 18c618c6      10563 	.byte	24,198,24,198
0000597c 18c618c6      10564 	.byte	24,198,24,198
00005980 18c618c6      10565 	.byte	24,198,24,198
00005984 18c618c6      10566 	.byte	24,198,24,198
00005988 18c618c6      10567 	.byte	24,198,24,198
0000598c 18c618c6      10568 	.byte	24,198,24,198
00005990 18c618c6      10569 	.byte	24,198,24,198
00005994 18c618c6      10570 	.byte	24,198,24,198
00005998 18c618c6      10571 	.byte	24,198,24,198
0000599c 18c618c6      10572 	.byte	24,198,24,198
000059a0 18c618c6      10573 	.byte	24,198,24,198
000059a4 18c618c6      10574 	.byte	24,198,24,198
000059a8 18c618c6      10575 	.byte	24,198,24,198
000059ac 18c618c6      10576 	.byte	24,198,24,198
000059b0 18c618c6      10577 	.byte	24,198,24,198
000059b4 18c618c6      10578 	.byte	24,198,24,198
000059b8 18c618c6      10579 	.byte	24,198,24,198
000059bc 18c618c6      10580 	.byte	24,198,24,198
000059c0 18c618c6      10581 	.byte	24,198,24,198
000059c4 18c618c6      10582 	.byte	24,198,24,198
000059c8 18c618c6      10583 	.byte	24,198,24,198
000059cc 18c618c6      10584 	.byte	24,198,24,198
000059d0 18c618c6      10585 	.byte	24,198,24,198
000059d4 18c618c6      10586 	.byte	24,198,24,198
000059d8 18c618c6      10587 	.byte	24,198,24,198
000059dc 18c618c6      10588 	.byte	24,198,24,198
000059e0 18c618c6      10589 	.byte	24,198,24,198
000059e4 18c618c6      10590 	.byte	24,198,24,198
000059e8 18c618c6      10591 	.byte	24,198,24,198

                                                                      Page 187
                                                              C:\Users\NIKHIL~1.PAT\AppData\Local\Temp\gh_000aeoo1.s
000059ec 18c618c6      10592 	.byte	24,198,24,198
000059f0 18c618c6      10593 	.byte	24,198,24,198
000059f4 18c618c6      10594 	.byte	24,198,24,198
000059f8 18c618c6      10595 	.byte	24,198,24,198
000059fc 18c618c6      10596 	.byte	24,198,24,198
00005a00 18c618c6      10597 	.byte	24,198,24,198
00005a04 18c618c6      10598 	.byte	24,198,24,198
00005a08 18c618c6      10599 	.byte	24,198,24,198
00005a0c 18c618c6      10600 	.byte	24,198,24,198
00005a10 18c618c6      10601 	.byte	24,198,24,198
00005a14 18c618c6      10602 	.byte	24,198,24,198
00005a18 18c618c6      10603 	.byte	24,198,24,198
00005a1c 18c618c6      10604 	.byte	24,198,24,198
00005a20 18c618c6      10605 	.byte	24,198,24,198
00005a24 18c618c6      10606 	.byte	24,198,24,198
00005a28 18c618c6      10607 	.byte	24,198,24,198
00005a2c 18c618c6      10608 	.byte	24,198,24,198
00005a30 18c618c6      10609 	.byte	24,198,24,198
00005a34 18c618c6      10610 	.byte	24,198,24,198
00005a38 18c618c6      10611 	.byte	24,198,24,198
00005a3c 18c618c6      10612 	.byte	24,198,24,198
00005a40 18c618c6      10613 	.byte	24,198,24,198
00005a44 18c618c6      10614 	.byte	24,198,24,198
00005a48 18c618c6      10615 	.byte	24,198,24,198
00005a4c 18c618c6      10616 	.byte	24,198,24,198
00005a50 18c618c6      10617 	.byte	24,198,24,198
00005a54 18c618c6      10618 	.byte	24,198,24,198
00005a58 18c618c6      10619 	.byte	24,198,24,198
00005a5c 18c618c6      10620 	.byte	24,198,24,198
00005a60 18c618c6      10621 	.byte	24,198,24,198
00005a64 18c618c6      10622 	.byte	24,198,24,198
00005a68 18c618c6      10623 	.byte	24,198,24,198
00005a6c 18c618c6      10624 	.byte	24,198,24,198
00005a70 18c618c6      10625 	.byte	24,198,24,198
00005a74 18c618c6      10626 	.byte	24,198,24,198
00005a78 18c618c6      10627 	.byte	24,198,24,198
00005a7c 18c618c6      10628 	.byte	24,198,24,198
00005a80 18c618c6      10629 	.byte	24,198,24,198
00005a84 18c618c6      10630 	.byte	24,198,24,198
00005a88 18c618c6      10631 	.byte	24,198,24,198
00005a8c 18c618c6      10632 	.byte	24,198,24,198
00005a90 18c618c6      10633 	.byte	24,198,24,198
00005a94 18c618c6      10634 	.byte	24,198,24,198
00005a98 18c618c6      10635 	.byte	24,198,24,198
00005a9c 18c618c6      10636 	.byte	24,198,24,198
00005aa0 18c618c6      10637 	.byte	24,198,24,198
00005aa4 18c618c6      10638 	.byte	24,198,24,198
00005aa8 18c618c6      10639 	.byte	24,198,24,198
00005aac 18c618c6      10640 	.byte	24,198,24,198
00005ab0 18c618c6      10641 	.byte	24,198,24,198
00005ab4 18c618c6      10642 	.byte	24,198,24,198
00005ab8 18c618c6      10643 	.byte	24,198,24,198
00005abc 18c618c6      10644 	.byte	24,198,24,198
00005ac0 18c618c6      10645 	.byte	24,198,24,198
00005ac4 18c618c6      10646 	.byte	24,198,24,198
00005ac8 18c618c6      10647 	.byte	24,198,24,198
00005acc 18c618c6      10648 	.byte	24,198,24,198
00005ad0 18c618c6      10649 	.byte	24,198,24,198
00005ad4 18c618c6      10650 	.byte	24,198,24,198
00005ad8 18c618c6      10651 	.byte	24,198,24,198
00005adc 18c618c6      10652 	.byte	24,198,24,198

                                                                      Page 188
                                                              C:\Users\NIKHIL~1.PAT\AppData\Local\Temp\gh_000aeoo1.s
00005ae0 18c618c6      10653 	.byte	24,198,24,198
00005ae4 18c618c6      10654 	.byte	24,198,24,198
00005ae8 18c618c6      10655 	.byte	24,198,24,198
00005aec 18c618c6      10656 	.byte	24,198,24,198
00005af0 18c618c6      10657 	.byte	24,198,24,198
00005af4 18c618c6      10658 	.byte	24,198,24,198
00005af8 18c618c6      10659 	.byte	24,198,24,198
00005afc 18c618c6      10660 	.byte	24,198,24,198
00005b00 18c618c6      10661 	.byte	24,198,24,198
00005b04 18c618c6      10662 	.byte	24,198,24,198
00005b08 18c618c6      10663 	.byte	24,198,24,198
00005b0c 18c618c6      10664 	.byte	24,198,24,198
00005b10 18c618c6      10665 	.byte	24,198,24,198
00005b14 18c618c6      10666 	.byte	24,198,24,198
00005b18 18c618c6      10667 	.byte	24,198,24,198
00005b1c 18c618c6      10668 	.byte	24,198,24,198
00005b20 18c618c6      10669 	.byte	24,198,24,198
00005b24 18c618c6      10670 	.byte	24,198,24,198
00005b28 18c618c6      10671 	.byte	24,198,24,198
00005b2c 18c618c6      10672 	.byte	24,198,24,198
00005b30 18c618c6      10673 	.byte	24,198,24,198
00005b34 18c618c6      10674 	.byte	24,198,24,198
00005b38 18c618c6      10675 	.byte	24,198,24,198
00005b3c 18c618c6      10676 	.byte	24,198,24,198
00005b40 18c618c6      10677 	.byte	24,198,24,198
00005b44 18c618c6      10678 	.byte	24,198,24,198
00005b48 18c618c6      10679 	.byte	24,198,24,198
00005b4c 18c618c6      10680 	.byte	24,198,24,198
00005b50 18c618c6      10681 	.byte	24,198,24,198
00005b54 18c618c6      10682 	.byte	24,198,24,198
00005b58 18c618c6      10683 	.byte	24,198,24,198
00005b5c 18c618c6      10684 	.byte	24,198,24,198
00005b60 18c618c6      10685 	.byte	24,198,24,198
00005b64 18c618c6      10686 	.byte	24,198,24,198
00005b68 18c618c6      10687 	.byte	24,198,24,198
00005b6c 18c618c6      10688 	.byte	24,198,24,198
00005b70 18c618c6      10689 	.byte	24,198,24,198
00005b74 18c618c6      10690 	.byte	24,198,24,198
00005b78 18c618c6      10691 	.byte	24,198,24,198
00005b7c 18c618c6      10692 	.byte	24,198,24,198
00005b80 18c618c6      10693 	.byte	24,198,24,198
00005b84 18c618c6      10694 	.byte	24,198,24,198
00005b88 18c618c6      10695 	.byte	24,198,24,198
00005b8c 18c618c6      10696 	.byte	24,198,24,198
00005b90 18c618c6      10697 	.byte	24,198,24,198
00005b94 18c618c6      10698 	.byte	24,198,24,198
00005b98 18c618c6      10699 	.byte	24,198,24,198
00005b9c 18c618c6      10700 	.byte	24,198,24,198
00005ba0 18c618c6      10701 	.byte	24,198,24,198
00005ba4 18c618c6      10702 	.byte	24,198,24,198
00005ba8 18c618c6      10703 	.byte	24,198,24,198
00005bac 18c618c6      10704 	.byte	24,198,24,198
00005bb0 18c618c6      10705 	.byte	24,198,24,198
00005bb4 18c618c6      10706 	.byte	24,198,24,198
00005bb8 18c618c6      10707 	.byte	24,198,24,198
00005bbc 18c618c6      10708 	.byte	24,198,24,198
00005bc0 18c618c6      10709 	.byte	24,198,24,198
00005bc4 18c618c6      10710 	.byte	24,198,24,198
00005bc8 18c618c6      10711 	.byte	24,198,24,198
00005bcc 18c618c6      10712 	.byte	24,198,24,198
00005bd0 18c618c6      10713 	.byte	24,198,24,198

                                                                      Page 189
                                                              C:\Users\NIKHIL~1.PAT\AppData\Local\Temp\gh_000aeoo1.s
00005bd4 18c618c6      10714 	.byte	24,198,24,198
00005bd8 18c618c6      10715 	.byte	24,198,24,198
00005bdc 18c618c6      10716 	.byte	24,198,24,198
00005be0 18c618c6      10717 	.byte	24,198,24,198
00005be4 18c618c6      10718 	.byte	24,198,24,198
00005be8 18c618c6      10719 	.byte	24,198,24,198
00005bec 18c618c6      10720 	.byte	24,198,24,198
00005bf0 18c618c6      10721 	.byte	24,198,24,198
00005bf4 18c618c6      10722 	.byte	24,198,24,198
00005bf8 18c618c6      10723 	.byte	24,198,24,198
00005bfc 18c618c6      10724 	.byte	24,198,24,198
00005c00 18c618c6      10725 	.byte	24,198,24,198
00005c04 18c618c6      10726 	.byte	24,198,24,198
00005c08 18c618c6      10727 	.byte	24,198,24,198
00005c0c 18c618c6      10728 	.byte	24,198,24,198
00005c10 18c618c6      10729 	.byte	24,198,24,198
00005c14 18c618c6      10730 	.byte	24,198,24,198
00005c18 18c618c6      10731 	.byte	24,198,24,198
00005c1c 18c618c6      10732 	.byte	24,198,24,198
00005c20 18c618c6      10733 	.byte	24,198,24,198
00005c24 18c618c6      10734 	.byte	24,198,24,198
00005c28 18c618c6      10735 	.byte	24,198,24,198
00005c2c 18c618c6      10736 	.byte	24,198,24,198
00005c30 18c618c6      10737 	.byte	24,198,24,198
00005c34 18c618c6      10738 	.byte	24,198,24,198
00005c38 18c618c6      10739 	.byte	24,198,24,198
00005c3c 18c618c6      10740 	.byte	24,198,24,198
00005c40 18c618c6      10741 	.byte	24,198,24,198
00005c44 18c618c6      10742 	.byte	24,198,24,198
00005c48 18c618c6      10743 	.byte	24,198,24,198
00005c4c 18c618c6      10744 	.byte	24,198,24,198
00005c50 18c618c6      10745 	.byte	24,198,24,198
00005c54 18c618c6      10746 	.byte	24,198,24,198
00005c58 18c618c6      10747 	.byte	24,198,24,198
00005c5c 18c618c6      10748 	.byte	24,198,24,198
00005c60 18c618c6      10749 	.byte	24,198,24,198
00005c64 18c618c6      10750 	.byte	24,198,24,198
00005c68 18c618c6      10751 	.byte	24,198,24,198
00005c6c 18c618c6      10752 	.byte	24,198,24,198
00005c70 18c618c6      10753 	.byte	24,198,24,198
00005c74 18c618c6      10754 	.byte	24,198,24,198
00005c78 18c618c6      10755 	.byte	24,198,24,198
00005c7c 18c618c6      10756 	.byte	24,198,24,198
00005c80 18c618c6      10757 	.byte	24,198,24,198
00005c84 18c618c6      10758 	.byte	24,198,24,198
00005c88 18c618c6      10759 	.byte	24,198,24,198
00005c8c 18c618c6      10760 	.byte	24,198,24,198
00005c90 18c618c6      10761 	.byte	24,198,24,198
00005c94 18c618c6      10762 	.byte	24,198,24,198
00005c98 18c618c6      10763 	.byte	24,198,24,198
00005c9c 18c618c6      10764 	.byte	24,198,24,198
00005ca0 18c618c6      10765 	.byte	24,198,24,198
00005ca4 18c618c6      10766 	.byte	24,198,24,198
00005ca8 18c618c6      10767 	.byte	24,198,24,198
00005cac 18c618c6      10768 	.byte	24,198,24,198
00005cb0 18c618c6      10769 	.byte	24,198,24,198
00005cb4 18c618c6      10770 	.byte	24,198,24,198
00005cb8 18c618c6      10771 	.byte	24,198,24,198
00005cbc 18c618c6      10772 	.byte	24,198,24,198
00005cc0 18c618c6      10773 	.byte	24,198,24,198
00005cc4 18c618c6      10774 	.byte	24,198,24,198

                                                                      Page 190
                                                              C:\Users\NIKHIL~1.PAT\AppData\Local\Temp\gh_000aeoo1.s
00005cc8 18c618c6      10775 	.byte	24,198,24,198
00005ccc 18c618c6      10776 	.byte	24,198,24,198
00005cd0 18c618c6      10777 	.byte	24,198,24,198
00005cd4 18c618c6      10778 	.byte	24,198,24,198
00005cd8 18c618c6      10779 	.byte	24,198,24,198
00005cdc 18c618c6      10780 	.byte	24,198,24,198
00005ce0 18c618c6      10781 	.byte	24,198,24,198
00005ce4 18c618c6      10782 	.byte	24,198,24,198
00005ce8 18c618c6      10783 	.byte	24,198,24,198
00005cec 18c618c6      10784 	.byte	24,198,24,198
00005cf0 18c618c6      10785 	.byte	24,198,24,198
00005cf4 18c618c6      10786 	.byte	24,198,24,198
00005cf8 18c618c6      10787 	.byte	24,198,24,198
00005cfc 18c618c6      10788 	.byte	24,198,24,198
00005d00 18c618c6      10789 	.byte	24,198,24,198
00005d04 18c618c6      10790 	.byte	24,198,24,198
00005d08 18c618c6      10791 	.byte	24,198,24,198
00005d0c 18c618c6      10792 	.byte	24,198,24,198
00005d10 18c618c6      10793 	.byte	24,198,24,198
00005d14 18c618c6      10794 	.byte	24,198,24,198
00005d18 18c618c6      10795 	.byte	24,198,24,198
00005d1c 18c618c6      10796 	.byte	24,198,24,198
00005d20 18c618c6      10797 	.byte	24,198,24,198
00005d24 18c618c6      10798 	.byte	24,198,24,198
00005d28 18c618c6      10799 	.byte	24,198,24,198
00005d2c 18c618c6      10800 	.byte	24,198,24,198
00005d30 18c618c6      10801 	.byte	24,198,24,198
00005d34 18c618c6      10802 	.byte	24,198,24,198
00005d38 18c618c6      10803 	.byte	24,198,24,198
00005d3c 18c618c6      10804 	.byte	24,198,24,198
00005d40 18c618c6      10805 	.byte	24,198,24,198
00005d44 18c618c6      10806 	.byte	24,198,24,198
00005d48 18c618c6      10807 	.byte	24,198,24,198
00005d4c 18c618c6      10808 	.byte	24,198,24,198
00005d50 18c618c6      10809 	.byte	24,198,24,198
00005d54 18c618c6      10810 	.byte	24,198,24,198
00005d58 18c618c6      10811 	.byte	24,198,24,198
00005d5c 18c618c6      10812 	.byte	24,198,24,198
00005d60 18c618c6      10813 	.byte	24,198,24,198
00005d64 18c618c6      10814 	.byte	24,198,24,198
00005d68 18c618c6      10815 	.byte	24,198,24,198
00005d6c 18c618c6      10816 	.byte	24,198,24,198
00005d70 18c618c6      10817 	.byte	24,198,24,198
00005d74 18c618c6      10818 	.byte	24,198,24,198
00005d78 18c618c6      10819 	.byte	24,198,24,198
00005d7c 18c618c6      10820 	.byte	24,198,24,198
00005d80 18c618c6      10821 	.byte	24,198,24,198
00005d84 18c618c6      10822 	.byte	24,198,24,198
00005d88 18c618c6      10823 	.byte	24,198,24,198
00005d8c 18c618c6      10824 	.byte	24,198,24,198
00005d90 18c618c6      10825 	.byte	24,198,24,198
00005d94 18c618c6      10826 	.byte	24,198,24,198
00005d98 18c618c6      10827 	.byte	24,198,24,198
00005d9c 18c618c6      10828 	.byte	24,198,24,198
00005da0 18c618c6      10829 	.byte	24,198,24,198
00005da4 18c618c6      10830 	.byte	24,198,24,198
00005da8 18c618c6      10831 	.byte	24,198,24,198
00005dac 18c618c6      10832 	.byte	24,198,24,198
00005db0 18c618c6      10833 	.byte	24,198,24,198
00005db4 18c618c6      10834 	.byte	24,198,24,198
00005db8 18c618c6      10835 	.byte	24,198,24,198

                                                                      Page 191
                                                              C:\Users\NIKHIL~1.PAT\AppData\Local\Temp\gh_000aeoo1.s
00005dbc 18c618c6      10836 	.byte	24,198,24,198
00005dc0 18c618c6      10837 	.byte	24,198,24,198
00005dc4 18c618c6      10838 	.byte	24,198,24,198
00005dc8 18c618c6      10839 	.byte	24,198,24,198
00005dcc 18c618c6      10840 	.byte	24,198,24,198
00005dd0 18c618c6      10841 	.byte	24,198,24,198
00005dd4 18c618c6      10842 	.byte	24,198,24,198
00005dd8 18c618c6      10843 	.byte	24,198,24,198
00005ddc 18c618c6      10844 	.byte	24,198,24,198
00005de0 18c618c6      10845 	.byte	24,198,24,198
00005de4 18c618c6      10846 	.byte	24,198,24,198
00005de8 18c618c6      10847 	.byte	24,198,24,198
00005dec 18c618c6      10848 	.byte	24,198,24,198
00005df0 18c618c6      10849 	.byte	24,198,24,198
00005df4 18c618c6      10850 	.byte	24,198,24,198
00005df8 18c618c6      10851 	.byte	24,198,24,198
00005dfc 18c618c6      10852 	.byte	24,198,24,198
00005e00 18c618c6      10853 	.byte	24,198,24,198
00005e04 18c618c6      10854 	.byte	24,198,24,198
00005e08 18c618c6      10855 	.byte	24,198,24,198
00005e0c 18c618c6      10856 	.byte	24,198,24,198
00005e10 18c618c6      10857 	.byte	24,198,24,198
00005e14 18c618c6      10858 	.byte	24,198,24,198
00005e18 18c618c6      10859 	.byte	24,198,24,198
00005e1c 18c618c6      10860 	.byte	24,198,24,198
00005e20 18c618c6      10861 	.byte	24,198,24,198
00005e24 18c618c6      10862 	.byte	24,198,24,198
00005e28 18c618c6      10863 	.byte	24,198,24,198
00005e2c 18c618c6      10864 	.byte	24,198,24,198
00005e30 18c618c6      10865 	.byte	24,198,24,198
00005e34 18c618c6      10866 	.byte	24,198,24,198
00005e38 18c618c6      10867 	.byte	24,198,24,198
00005e3c 18c618c6      10868 	.byte	24,198,24,198
00005e40 18c618c6      10869 	.byte	24,198,24,198
00005e44 18c618c6      10870 	.byte	24,198,24,198
00005e48 18c618c6      10871 	.byte	24,198,24,198
00005e4c 18c618c6      10872 	.byte	24,198,24,198
00005e50 18c618c6      10873 	.byte	24,198,24,198
00005e54 18c618c6      10874 	.byte	24,198,24,198
00005e58 18c618c6      10875 	.byte	24,198,24,198
00005e5c 18c618c6      10876 	.byte	24,198,24,198
00005e60 18c618c6      10877 	.byte	24,198,24,198
00005e64 18c618c6      10878 	.byte	24,198,24,198
00005e68 18c618c6      10879 	.byte	24,198,24,198
00005e6c 18c618c6      10880 	.byte	24,198,24,198
00005e70 18c618c6      10881 	.byte	24,198,24,198
00005e74 18c618c6      10882 	.byte	24,198,24,198
00005e78 18c618c6      10883 	.byte	24,198,24,198
00005e7c 18c618c6      10884 	.byte	24,198,24,198
00005e80 18c618c6      10885 	.byte	24,198,24,198
00005e84 18c618c6      10886 	.byte	24,198,24,198
00005e88 18c618c6      10887 	.byte	24,198,24,198
00005e8c 18c618c6      10888 	.byte	24,198,24,198
00005e90 18c618c6      10889 	.byte	24,198,24,198
00005e94 18c618c6      10890 	.byte	24,198,24,198
00005e98 18c618c6      10891 	.byte	24,198,24,198
00005e9c 18c618c6      10892 	.byte	24,198,24,198
00005ea0 18c618c6      10893 	.byte	24,198,24,198
00005ea4 18c618c6      10894 	.byte	24,198,24,198
00005ea8 18c618c6      10895 	.byte	24,198,24,198
00005eac 18c618c6      10896 	.byte	24,198,24,198

                                                                      Page 192
                                                              C:\Users\NIKHIL~1.PAT\AppData\Local\Temp\gh_000aeoo1.s
00005eb0 18c618c6      10897 	.byte	24,198,24,198
00005eb4 18c618c6      10898 	.byte	24,198,24,198
00005eb8 18c618c6      10899 	.byte	24,198,24,198
00005ebc 18c618c6      10900 	.byte	24,198,24,198
00005ec0 18c618c6      10901 	.byte	24,198,24,198
00005ec4 18c618c6      10902 	.byte	24,198,24,198
00005ec8 18c618c6      10903 	.byte	24,198,24,198
00005ecc 18c618c6      10904 	.byte	24,198,24,198
00005ed0 18c618c6      10905 	.byte	24,198,24,198
00005ed4 18c618c6      10906 	.byte	24,198,24,198
00005ed8 18c618c6      10907 	.byte	24,198,24,198
00005edc 18c618c6      10908 	.byte	24,198,24,198
00005ee0 18c618c6      10909 	.byte	24,198,24,198
00005ee4 18c618c6      10910 	.byte	24,198,24,198
00005ee8 18c618c6      10911 	.byte	24,198,24,198
00005eec 18c618c6      10912 	.byte	24,198,24,198
00005ef0 18c618c6      10913 	.byte	24,198,24,198
00005ef4 18c618c6      10914 	.byte	24,198,24,198
00005ef8 18c618c6      10915 	.byte	24,198,24,198
00005efc 18c618c6      10916 	.byte	24,198,24,198
00005f00 18c618c6      10917 	.byte	24,198,24,198
00005f04 18c618c6      10918 	.byte	24,198,24,198
00005f08 18c618c6      10919 	.byte	24,198,24,198
00005f0c 18c618c6      10920 	.byte	24,198,24,198
00005f10 18c618c6      10921 	.byte	24,198,24,198
00005f14 18c618c6      10922 	.byte	24,198,24,198
00005f18 18c618c6      10923 	.byte	24,198,24,198
00005f1c 18c618c6      10924 	.byte	24,198,24,198
00005f20 18c618c6      10925 	.byte	24,198,24,198
00005f24 18c618c6      10926 	.byte	24,198,24,198
00005f28 18c618c6      10927 	.byte	24,198,24,198
00005f2c 18c618c6      10928 	.byte	24,198,24,198
00005f30 18c618c6      10929 	.byte	24,198,24,198
00005f34 18c618c6      10930 	.byte	24,198,24,198
00005f38 18c618c6      10931 	.byte	24,198,24,198
00005f3c 18c618c6      10932 	.byte	24,198,24,198
00005f40 18c618c6      10933 	.byte	24,198,24,198
00005f44 18c618c6      10934 	.byte	24,198,24,198
00005f48 18c618c6      10935 	.byte	24,198,24,198
00005f4c 18c618c6      10936 	.byte	24,198,24,198
00005f50 18c618c6      10937 	.byte	24,198,24,198
00005f54 18c618c6      10938 	.byte	24,198,24,198
00005f58 18c618c6      10939 	.byte	24,198,24,198
00005f5c 18c618c6      10940 	.byte	24,198,24,198
00005f60 18c618c6      10941 	.byte	24,198,24,198
00005f64 18c618c6      10942 	.byte	24,198,24,198
00005f68 18c618c6      10943 	.byte	24,198,24,198
00005f6c 18c618c6      10944 	.byte	24,198,24,198
00005f70 18c618c6      10945 	.byte	24,198,24,198
00005f74 18c618c6      10946 	.byte	24,198,24,198
00005f78 18c618c6      10947 	.byte	24,198,24,198
00005f7c 18c618c6      10948 	.byte	24,198,24,198
00005f80 18c618c6      10949 	.byte	24,198,24,198
00005f84 18c618c6      10950 	.byte	24,198,24,198
00005f88 18c618c6      10951 	.byte	24,198,24,198
00005f8c 18c618c6      10952 	.byte	24,198,24,198
00005f90 18c618c6      10953 	.byte	24,198,24,198
00005f94 18c618c6      10954 	.byte	24,198,24,198
00005f98 18c618c6      10955 	.byte	24,198,24,198
00005f9c 18c618c6      10956 	.byte	24,198,24,198
00005fa0 18c618c6      10957 	.byte	24,198,24,198

                                                                      Page 193
                                                              C:\Users\NIKHIL~1.PAT\AppData\Local\Temp\gh_000aeoo1.s
00005fa4 18c618c6      10958 	.byte	24,198,24,198
00005fa8 18c618c6      10959 	.byte	24,198,24,198
00005fac 18c618c6      10960 	.byte	24,198,24,198
00005fb0 18c618c6      10961 	.byte	24,198,24,198
00005fb4 18c618c6      10962 	.byte	24,198,24,198
00005fb8 18c618c6      10963 	.byte	24,198,24,198
00005fbc 18c618c6      10964 	.byte	24,198,24,198
00005fc0 18c618c6      10965 	.byte	24,198,24,198
00005fc4 18c618c6      10966 	.byte	24,198,24,198
00005fc8 18c618c6      10967 	.byte	24,198,24,198
00005fcc 18c618c6      10968 	.byte	24,198,24,198
00005fd0 18c618c6      10969 	.byte	24,198,24,198
00005fd4 18c618c6      10970 	.byte	24,198,24,198
00005fd8 18c618c6      10971 	.byte	24,198,24,198
00005fdc 18c618c6      10972 	.byte	24,198,24,198
00005fe0 18c618c6      10973 	.byte	24,198,24,198
00005fe4 18c618c6      10974 	.byte	24,198,24,198
00005fe8 18c618c6      10975 	.byte	24,198,24,198
00005fec 18c618c6      10976 	.byte	24,198,24,198
00005ff0 18c618c6      10977 	.byte	24,198,24,198
00005ff4 18c618c6      10978 	.byte	24,198,24,198
00005ff8 18c618c6      10979 	.byte	24,198,24,198
00005ffc 18c618c6      10980 	.byte	24,198,24,198
                       10981 	.type	_RenesasPicture,@object
                       10982 	.size	_RenesasPicture,24576
                       10983 	.section ".rdata","awb"
                       10984 	.align	4
                       10985 	.align	4
                       10986 	.global	_g_SystemStatus
00000000 000000000000  10987 _g_SystemStatus:	.space	48
00000006 000000000000 
0000000c 000000000000 
00000012 000000000000 
00000018 000000000000 
0000001e 000000000000 
00000024 000000000000 
0000002a 000000000000 
                       10988 	.type	_g_SystemStatus,@object
                       10989 	.size	_g_SystemStatus,48
                       10990 	.sbss	_g_Pot1Value,4,4
                       10991 	.type	_g_Pot1Value,@object
                       10992 	.size	_g_Pot1Value,4
                       10993 	.sbss	_g_Enc1Value,4,4
                       10994 	.type	_g_Enc1Value,@object
                       10995 	.size	_g_Enc1Value,4
                       10996 	.sbss	_g_Enc1Compare,4,4
                       10997 	.type	_g_Enc1Compare,@object
                       10998 	.size	_g_Enc1Compare,4
                       10999 	.comm	_g_StatusText,100,1
                       11000 	.type	_g_StatusText,@object
                       11001 	.size	_g_StatusText,100
                       11002 	.data
                       11003 	.ghsnote version,17
                       11004 	.ghsnote tools,3
                       11005 	.ghsnote options,144
                       11006 	.text
                       11007 	.align	2
                       11008 ..eof.C.3A.5CUsers.5Cnikhil.2Epatil.5CDocuments.5Crenesas.5CRH850_F1L_sample.5Ctoolchain.5CGHS.5Coutput.5Cobj.5Cr_tasks...43.3A.5CUsers.5Cnikhil.2Epatil.5CDocuments.5Crenesas.5CRH850_F1L_sample.5Ctoolchain.5CGHS..5A609D7F..0::
                       11009 	.section	.debug_info
                       11010 .Ldw_begin:
00000000 ed140000      11011 	.word	.Ldw_end-.Ldw_begin-4

                                                                      Page 194
                                                              C:\Users\NIKHIL~1.PAT\AppData\Local\Temp\gh_000aeoo1.s
00000004 0200          11012 	.byte	2,0
00000006 00000000*     11013 	.word	.Ldw_abbr_begin
0000000a 04            11014 	.byte	4
                       11015 	.section	.debug_abbrev
                       11016 .Ldw_abbr_begin:
                       11017 	.section	.debug_info
0000000b 01            11018 	.byte	1
0000000c 00000000*     11019 	.word	..bof.C.3A.5CUsers.5Cnikhil.2Epatil.5CDocuments.5Crenesas.5CRH850_F1L_sample.5Ctoolchain.5CGHS.5Coutput.5Cobj.5Cr_tasks...43.3A.5CUsers.5Cnikhil.2Epatil.5CDocuments.5Crenesas.5CRH850_F1L_sample.5Ctoolchain.5CGHS..5A609D7F..0
00000010 00000000*     11020 	.word	..eof.C.3A.5CUsers.5Cnikhil.2Epatil.5CDocuments.5Crenesas.5CRH850_F1L_sample.5Ctoolchain.5CGHS.5Coutput.5Cobj.5Cr_tasks...43.3A.5CUsers.5Cnikhil.2Epatil.5CDocuments.5Crenesas.5CRH850_F1L_sample.5Ctoolchain.5CGHS..5A609D7F..0
00000014 2e2e5c2e2e5c  11021 	.strz	"..\\..\\source\\app\\r_tasks.c"
0000001a 736f75726365 
00000020 5c6170705c72 
00000026 5f7461736b73 
0000002c 2e6300 
0000002f 433a5c557365  11022 	.strz	"C:\\Users\\nikhil.patil\\Documents\\renesas\\RH850_F1L_sample\\toolchain\\GHS"
00000035 72735c6e696b 
0000003b 68696c2e7061 
00000041 74696c5c446f 
00000047 63756d656e74 
0000004d 735c72656e65 
00000053 7361735c5248 
00000059 3835305f4631 
0000005f 4c5f73616d70 
00000065 6c655c746f6f 
0000006b 6c636861696e 
00000071 5c47485300 
00000076 474853204320  11023 	.strz	"GHS C 2015.1.7 [dual]"
0000007c 323031352e31 
00000082 2e37205b6475 
00000088 616c5d00 
0000008c 0100          11024 	.byte	1,0
0000008e 00000000*     11025 	.word	.Ldw_line_begin
00000092 00000000*     11026 	.word	.Ldw_macinfo_begin
00000096 00            11027 	.byte	0
                       11028 
                       11029 	.section	.debug_abbrev
00000000 01            11030 	.byte	1
00000001 11            11031 	.byte	17
00000002 01            11032 	.byte	1
00000003 1101          11033 	.byte	17,1
00000005 1201          11034 	.byte	18,1
00000007 0308          11035 	.byte	3,8
00000009 1b08          11036 	.byte	27,8
0000000b 2508          11037 	.byte	37,8
0000000d 1305          11038 	.byte	19,5
0000000f 1006          11039 	.byte	16,6
00000011 4306          11040 	.byte	67,6
00000013 420b          11041 	.byte	66,11
00000015 0000          11042 	.byte	0,0
                       11043 
                       11044 	.section	.debug_line
                       11045 .Ldw_line_begin:
00000000 8c120000      11046 	.word	.Ldw_line_end-.Ldw_line_begin-4
00000004 0200          11047 	.byte	2,0
00000006 00000000*     11048 	.word	.Ldw_lpro_end-.Ldw_lpro_begin
                       11049 .Ldw_lpro_begin:
0000000a 01            11050 	.byte	1
0000000b 00            11051 	.byte	0
0000000c 00            11052 	.byte	0
0000000d 04            11053 	.byte	4
0000000e 0a            11054 	.byte	10

                                                                      Page 195
                                                              C:\Users\NIKHIL~1.PAT\AppData\Local\Temp\gh_000aeoo1.s
0000000f 000101        11055 	.byte	0,1,1
00000012 010100        11056 	.byte	1,1,0
00000015 000001        11057 	.byte	0,0,1
00000018 00            11058 	.byte	0
00000019 2e2e5c2e2e5c  11059 	.strz	"..\\..\\source\\app\\r_tasks.c"
0000001f 736f75726365 
00000025 5c6170705c72 
0000002b 5f7461736b73 
00000031 2e6300 
00000034 000000        11060 	.byte	0,0,0
00000037 2e2e5c2e2e5c  11061 	.strz	"..\\..\\device\\r_device.h"
0000003d 646576696365 
00000043 5c725f646576 
00000049 6963652e6800 
0000004f 000000        11062 	.byte	0,0,0
00000052 2e2e5c2e2e5c  11063 	.strz	"..\\..\\device\\dr7f701057.dvf.h"
00000058 646576696365 
0000005e 5c6472376637 
00000064 30313035372e 
0000006a 6476662e6800 
00000070 000000        11064 	.byte	0,0,0
00000073 2e2e5c2e2e5c  11065 	.strz	"..\\..\\device\\icu_feret.h"
00000079 646576696365 
0000007f 5c6963755f66 
00000085 657265742e68 
0000008b 00 
0000008c 000000        11066 	.byte	0,0,0
0000008f 2e2e5c2e2e5c  11067 	.strz	"..\\..\\device\\cpu.h"
00000095 646576696365 
0000009b 5c6370752e68 
000000a1 00 
000000a2 000000        11068 	.byte	0,0,0
000000a5 433a5c676873  11069 	.strz	"C:\\ghs\\comp_201517\\ansi\\..\\include\\v800\\v800_ghs.h"
000000ab 5c636f6d705f 
000000b1 323031353137 
000000b7 5c616e73695c 
000000bd 2e2e5c696e63 
000000c3 6c7564655c76 
000000c9 3830305c7638 
000000cf 30305f676873 
000000d5 2e6800 
000000d8 000000        11070 	.byte	0,0,0
000000db 2e2e5c2e2e5c  11071 	.strz	"..\\..\\device\\r_typedefs.h"
000000e1 646576696365 
000000e7 5c725f747970 
000000ed 65646566732e 
000000f3 6800 
000000f5 000000        11072 	.byte	0,0,0
000000f8 2e2e5c2e2e5c  11073 	.strz	"..\\..\\source\\app\\r_tasks.h"
000000fe 736f75726365 
00000104 5c6170705c72 
0000010a 5f7461736b73 
00000110 2e6800 
00000113 000000        11074 	.byte	0,0,0
00000116 433a5c676873  11075 	.strz	"C:\\ghs\\comp_201517\\ansi\\stdio.h"
0000011c 5c636f6d705f 
00000122 323031353137 
00000128 5c616e73695c 
0000012e 737464696f2e 
00000134 6800 
00000136 000000        11076 	.byte	0,0,0

                                                                      Page 196
                                                              C:\Users\NIKHIL~1.PAT\AppData\Local\Temp\gh_000aeoo1.s
00000139 433a5c676873  11077 	.strz	"C:\\ghs\\comp_201517\\ansi\\ghs_null.h"
0000013f 5c636f6d705f 
00000145 323031353137 
0000014b 5c616e73695c 
00000151 6768735f6e75 
00000157 6c6c2e6800 
0000015c 000000        11078 	.byte	0,0,0
0000015f 433a5c676873  11079 	.strz	"C:\\ghs\\comp_201517\\ansi\\stdarg.h"
00000165 5c636f6d705f 
0000016b 323031353137 
00000171 5c616e73695c 
00000177 737464617267 
0000017d 2e6800 
00000180 000000        11080 	.byte	0,0,0
00000183 433a5c676873  11081 	.strz	"C:\\ghs\\comp_201517\\ansi\\ghs_valist.h"
00000189 5c636f6d705f 
0000018f 323031353137 
00000195 5c616e73695c 
0000019b 6768735f7661 
000001a1 6c6973742e68 
000001a7 00 
000001a8 000000        11082 	.byte	0,0,0
000001ab 2e2e5c2e2e5c  11083 	.strz	"..\\..\\source\\app\\renesas128x96.h"
000001b1 736f75726365 
000001b7 5c6170705c72 
000001bd 656e65736173 
000001c3 313238783936 
000001c9 2e6800 
000001cc 000000        11084 	.byte	0,0,0
000001cf 2e2e5c2e2e5c  11085 	.strz	"..\\..\\source\\modules\\can/r_can.h"
000001d5 736f75726365 
000001db 5c6d6f64756c 
000001e1 65735c63616e 
000001e7 2f725f63616e 
000001ed 2e6800 
000001f0 000000        11086 	.byte	0,0,0
000001f3 2e2e5c2e2e5c  11087 	.strz	"..\\..\\source\\modules\\display/r_display.h"
000001f9 736f75726365 
000001ff 5c6d6f64756c 
00000205 65735c646973 
0000020b 706c61792f72 
00000211 5f646973706c 
00000217 61792e6800 
0000021c 000000        11088 	.byte	0,0,0
0000021f 2e2e5c2e2e5c  11089 	.strz	"..\\..\\source\\modules\\led/r_led.h"
00000225 736f75726365 
0000022b 5c6d6f64756c 
00000231 65735c6c6564 
00000237 2f725f6c6564 
0000023d 2e6800 
00000240 000000        11090 	.byte	0,0,0
00000243 2e2e5c2e2e5c  11091 	.strz	"..\\..\\source\\modules\\lin/r_lin.h"
00000249 736f75726365 
0000024f 5c6d6f64756c 
00000255 65735c6c696e 
0000025b 2f725f6c696e 
00000261 2e6800 
00000264 000000        11092 	.byte	0,0,0
00000267 2e2e5c2e2e5c  11093 	.strz	"..\\..\\source\\modules\\system/r_system.h"
0000026d 736f75726365 
00000273 5c6d6f64756c 

                                                                      Page 197
                                                              C:\Users\NIKHIL~1.PAT\AppData\Local\Temp\gh_000aeoo1.s
00000279 65735c737973 
0000027f 74656d2f725f 
00000285 73797374656d 
0000028b 2e6800 
0000028e 000000        11094 	.byte	0,0,0
00000291 2e2e5c2e2e5c  11095 	.strz	"..\\..\\source\\modules\\uart/r_uart.h"
00000297 736f75726365 
0000029d 5c6d6f64756c 
000002a3 65735c756172 
000002a9 742f725f7561 
000002af 72742e6800 
000002b4 000000        11096 	.byte	0,0,0
000002b7 2e2e5c2e2e5c  11097 	.strz	"..\\..\\source\\modules\\user_input/r_ui.h"
000002bd 736f75726365 
000002c3 5c6d6f64756c 
000002c9 65735c757365 
000002cf 725f696e7075 
000002d5 742f725f7569 
000002db 2e6800 
000002de 000000        11098 	.byte	0,0,0
000002e1 2e2e5c2e2e5c  11099 	.strz	"..\\..\\source\\peripherals\\enc/r_enc.h"
000002e7 736f75726365 
000002ed 5c7065726970 
000002f3 686572616c73 
000002f9 5c656e632f72 
000002ff 5f656e632e68 
00000305 00 
00000306 000000        11100 	.byte	0,0,0
00000309 2e2e5c2e2e5c  11101 	.strz	"..\\..\\source\\peripherals\\intc/r_intc.h"
0000030f 736f75726365 
00000315 5c7065726970 
0000031b 686572616c73 
00000321 5c696e74632f 
00000327 725f696e7463 
0000032d 2e6800 
00000330 000000        11102 	.byte	0,0,0
00000333 2e2e5c2e2e5c  11103 	.strz	"..\\..\\source\\peripherals\\stbc/r_stbc.h"
00000339 736f75726365 
0000033f 5c7065726970 
00000345 686572616c73 
0000034b 5c737462632f 
00000351 725f73746263 
00000357 2e6800 
0000035a 000000        11104 	.byte	0,0,0
0000035d 2e2e5c2e2e5c  11105 	.strz	"..\\..\\source\\peripherals\\tau/r_tau.h"
00000363 736f75726365 
00000369 5c7065726970 
0000036f 686572616c73 
00000375 5c7461752f72 
0000037b 5f7461752e68 
00000381 00 
00000382 000000        11106 	.byte	0,0,0
00000385 2e2e5c2e2e5c  11107 	.strz	"..\\..\\source\\peripherals\\adc/r_adc.h"
0000038b 736f75726365 
00000391 5c7065726970 
00000397 686572616c73 
0000039d 5c6164632f72 
000003a3 5f6164632e68 
000003a9 00 
000003aa 000000        11108 	.byte	0,0,0
000003ad 2e2e5c2e2e5c  11109 	.strz	"..\\..\\source\\peripherals\\pwmd/r_pwmd.h"

                                                                      Page 198
                                                              C:\Users\NIKHIL~1.PAT\AppData\Local\Temp\gh_000aeoo1.s
000003b3 736f75726365 
000003b9 5c7065726970 
000003bf 686572616c73 
000003c5 5c70776d642f 
000003cb 725f70776d64 
000003d1 2e6800 
000003d4 000000        11110 	.byte	0,0,0
000003d7 2e2e5c2e2e5c  11111 	.strz	"..\\..\\source\\peripherals\\rlin/r_rlin.h"
000003dd 736f75726365 
000003e3 5c7065726970 
000003e9 686572616c73 
000003ef 5c726c696e2f 
000003f5 725f726c696e 
000003fb 2e6800 
000003fe 000000        11112 	.byte	0,0,0
00000401 00            11113 	.byte	0
                       11114 .Ldw_lpro_end:
                       11115 	.section	.debug_macinfo
                       11116 .Ldw_macinfo_begin:
                       11117 	.section	.debug_frame
                       11118 .LDW_47a71b0:
00000000 00000000*     11119 	.word	.LDW_unq_2-.LDW_unq_1
                       11120 .LDW_unq_1:
00000004 ffffffff      11121 	.byte	255,255,255,255
00000008 01            11122 	.byte	1
00000009 00            11123 	.byte	0
0000000a 01            11124 	.byte	1
0000000b 01            11125 	.byte	1
0000000c 1f            11126 	.byte	31
0000000d 0c            11127 	.byte	12
0000000e 03            11128 	.byte	3
0000000f 00            11129 	.byte	0
00000010 07            11130 	.byte	7
00000011 00            11131 	.byte	0
00000012 07            11132 	.byte	7
00000013 01            11133 	.byte	1
00000014 07            11134 	.byte	7
00000015 02            11135 	.byte	2
00000016 07            11136 	.byte	7
00000017 03            11137 	.byte	3
00000018 07            11138 	.byte	7
00000019 04            11139 	.byte	4
0000001a 07            11140 	.byte	7
0000001b 05            11141 	.byte	5
0000001c 07            11142 	.byte	7
0000001d 06            11143 	.byte	6
0000001e 07            11144 	.byte	7
0000001f 07            11145 	.byte	7
00000020 07            11146 	.byte	7
00000021 08            11147 	.byte	8
00000022 07            11148 	.byte	7
00000023 09            11149 	.byte	9
00000024 07            11150 	.byte	7
00000025 0a            11151 	.byte	10
00000026 07            11152 	.byte	7
00000027 0b            11153 	.byte	11
00000028 07            11154 	.byte	7
00000029 0c            11155 	.byte	12
0000002a 07            11156 	.byte	7
0000002b 0d            11157 	.byte	13
0000002c 07            11158 	.byte	7

                                                                      Page 199
                                                              C:\Users\NIKHIL~1.PAT\AppData\Local\Temp\gh_000aeoo1.s
0000002d 0e            11159 	.byte	14
0000002e 07            11160 	.byte	7
0000002f 0f            11161 	.byte	15
00000030 07            11162 	.byte	7
00000031 10            11163 	.byte	16
00000032 07            11164 	.byte	7
00000033 11            11165 	.byte	17
00000034 07            11166 	.byte	7
00000035 12            11167 	.byte	18
00000036 07            11168 	.byte	7
00000037 13            11169 	.byte	19
00000038 08            11170 	.byte	8
00000039 14            11171 	.byte	20
0000003a 08            11172 	.byte	8
0000003b 15            11173 	.byte	21
0000003c 08            11174 	.byte	8
0000003d 16            11175 	.byte	22
0000003e 08            11176 	.byte	8
0000003f 17            11177 	.byte	23
00000040 08            11178 	.byte	8
00000041 18            11179 	.byte	24
00000042 08            11180 	.byte	8
00000043 19            11181 	.byte	25
00000044 08            11182 	.byte	8
00000045 1a            11183 	.byte	26
00000046 08            11184 	.byte	8
00000047 1b            11185 	.byte	27
00000048 08            11186 	.byte	8
00000049 1c            11187 	.byte	28
0000004a 08            11188 	.byte	8
0000004b 1d            11189 	.byte	29
0000004c 07            11190 	.byte	7
0000004d 1e            11191 	.byte	30
0000004e 08            11192 	.byte	8
0000004f 1f            11193 	.byte	31
00000050 07            11194 	.byte	7
00000051 20            11195 	.byte	32
00000052 07            11196 	.byte	7
00000053 21            11197 	.byte	33
00000054 07            11198 	.byte	7
00000055 22            11199 	.byte	34
00000056 07            11200 	.byte	7
00000057 23            11201 	.byte	35
00000058 07            11202 	.byte	7
00000059 24            11203 	.byte	36
0000005a 07            11204 	.byte	7
0000005b 25            11205 	.byte	37
0000005c 07            11206 	.byte	7
0000005d 26            11207 	.byte	38
0000005e 07            11208 	.byte	7
0000005f 27            11209 	.byte	39
00000060 07            11210 	.byte	7
00000061 28            11211 	.byte	40
00000062 07            11212 	.byte	7
00000063 29            11213 	.byte	41
00000064 07            11214 	.byte	7
00000065 2a            11215 	.byte	42
00000066 07            11216 	.byte	7
00000067 2b            11217 	.byte	43
00000068 07            11218 	.byte	7
00000069 2c            11219 	.byte	44

                                                                      Page 200
                                                              C:\Users\NIKHIL~1.PAT\AppData\Local\Temp\gh_000aeoo1.s
0000006a 07            11220 	.byte	7
0000006b 2d            11221 	.byte	45
0000006c 07            11222 	.byte	7
0000006d 2e            11223 	.byte	46
0000006e 07            11224 	.byte	7
0000006f 2f            11225 	.byte	47
00000070 07            11226 	.byte	7
00000071 30            11227 	.byte	48
00000072 07            11228 	.byte	7
00000073 31            11229 	.byte	49
00000074 07            11230 	.byte	7
00000075 32            11231 	.byte	50
00000076 07            11232 	.byte	7
00000077 33            11233 	.byte	51
00000078 07            11234 	.byte	7
00000079 34            11235 	.byte	52
0000007a 07            11236 	.byte	7
0000007b 35            11237 	.byte	53
0000007c 07            11238 	.byte	7
0000007d 36            11239 	.byte	54
0000007e 07            11240 	.byte	7
0000007f 37            11241 	.byte	55
00000080 07            11242 	.byte	7
00000081 38            11243 	.byte	56
00000082 07            11244 	.byte	7
00000083 39            11245 	.byte	57
00000084 07            11246 	.byte	7
00000085 3a            11247 	.byte	58
00000086 07            11248 	.byte	7
00000087 3b            11249 	.byte	59
00000088 07            11250 	.byte	7
00000089 3c            11251 	.byte	60
0000008a 07            11252 	.byte	7
0000008b 3d            11253 	.byte	61
0000008c 07            11254 	.byte	7
0000008d 3e            11255 	.byte	62
0000008e 07            11256 	.byte	7
0000008f 3f            11257 	.byte	63
                       11258 .LDW_unq_2:
                       11259 	.section	.debug_info
                       11260 .LDW_2f8e550:
00000097 25            11261 	.byte	37
00000098 756e7369676e  11262 	.strz	"unsigned long"
0000009e 6564206c6f6e 
000000a4 6700 
000000a6 07            11263 	.byte	7
000000a7 04            11264 	.byte	4
                       11265 
                       11266 	.section	.debug_abbrev
00000017 25            11267 	.byte	37
00000018 24            11268 	.byte	36
00000019 00            11269 	.byte	0
0000001a 0308          11270 	.byte	3,8
0000001c 3e0b          11271 	.byte	62,11
0000001e 0b0b          11272 	.byte	11,11
00000020 0000          11273 	.byte	0,0
                       11274 
                       11275 	.section	.debug_info
                       11276 .LDW_48323b8:
000000a8 25            11277 	.byte	37
000000a9 6368617200    11278 	.strz	"char"

                                                                      Page 201
                                                              C:\Users\NIKHIL~1.PAT\AppData\Local\Temp\gh_000aeoo1.s
000000ae 06            11279 	.byte	6
000000af 01            11280 	.byte	1
                       11281 
                       11282 .LDW_48323f0:
000000b0 2f            11283 	.byte	47
000000b1 00000000*     11284 	.word	.LDW_47f4388
                       11285 
                       11286 	.section	.debug_abbrev
00000022 2f            11287 	.byte	47
00000023 0f            11288 	.byte	15
00000024 00            11289 	.byte	0
00000025 4910          11290 	.byte	73,16
00000027 0000          11291 	.byte	0,0
                       11292 
                       11293 	.section	.debug_info
                       11294 .LDW_4832380:
000000b5 45            11295 	.byte	69
000000b6 01            11296 	.byte	1
                       11297 
                       11298 	.section	.debug_abbrev
00000029 45            11299 	.byte	69
0000002a 15            11300 	.byte	21
0000002b 01            11301 	.byte	1
0000002c 270c          11302 	.byte	39,12
0000002e 0000          11303 	.byte	0,0
                       11304 
                       11305 	.section	.debug_info
                       11306 .LDW_3db25d0:
000000b7 12            11307 	.byte	18
000000b8 00000000*     11308 	.word	.LDW_48323f0
000000bc 00            11309 	.byte	0
                       11310 
                       11311 	.section	.debug_abbrev
00000030 12            11312 	.byte	18
00000031 05            11313 	.byte	5
00000032 00            11314 	.byte	0
00000033 4910          11315 	.byte	73,16
00000035 4b0c          11316 	.byte	75,12
00000037 0000          11317 	.byte	0,0
                       11318 
                       11319 	.section	.debug_info
000000bd 00            11320 	.byte	0
                       11321 
                       11322 .LDW_4832428:
000000be 45            11323 	.byte	69
000000bf 01            11324 	.byte	1
                       11325 
                       11326 .LDW_3db2630:
000000c0 12            11327 	.byte	18
000000c1 00000000*     11328 	.word	.LDW_47f4438
000000c5 00            11329 	.byte	0
                       11330 
000000c6 00            11331 	.byte	0
                       11332 
                       11333 .LDW_4832460:
000000c7 45            11334 	.byte	69
000000c8 01            11335 	.byte	1
                       11336 
000000c9 00            11337 	.byte	0
                       11338 
                       11339 .LDW_4832498:

                                                                      Page 202
                                                              C:\Users\NIKHIL~1.PAT\AppData\Local\Temp\gh_000aeoo1.s
000000ca 25            11340 	.byte	37
000000cb 756e7369676e  11341 	.strz	"unsigned short"
000000d1 65642073686f 
000000d7 727400 
000000da 07            11342 	.byte	7
000000db 02            11343 	.byte	2
                       11344 
                       11345 .LDW_48324d0:
000000dc 44            11346 	.byte	68
000000dd 00000000*     11347 	.word	.LDW_47f44e8
000000e1 01            11348 	.byte	1
                       11349 
                       11350 	.section	.debug_abbrev
00000039 44            11351 	.byte	68
0000003a 15            11352 	.byte	21
0000003b 01            11353 	.byte	1
0000003c 4910          11354 	.byte	73,16
0000003e 270c          11355 	.byte	39,12
00000040 0000          11356 	.byte	0,0
                       11357 
                       11358 	.section	.debug_info
                       11359 .LDW_3db26c0:
000000e2 12            11360 	.byte	18
000000e3 00000000*     11361 	.word	.LDW_47f44e8
000000e7 00            11362 	.byte	0
                       11363 
000000e8 00            11364 	.byte	0
                       11365 
                       11366 .LDW_4832508:
000000e9 45            11367 	.byte	69
000000ea 01            11368 	.byte	1
                       11369 
000000eb 00            11370 	.byte	0
                       11371 
                       11372 .LDW_4832540:
000000ec 45            11373 	.byte	69
000000ed 01            11374 	.byte	1
                       11375 
000000ee 00            11376 	.byte	0
                       11377 
                       11378 .LDW_4832578:
000000ef 45            11379 	.byte	69
000000f0 01            11380 	.byte	1
                       11381 
000000f1 00            11382 	.byte	0
                       11383 
                       11384 .LDW_48325b0:
000000f2 45            11385 	.byte	69
000000f3 01            11386 	.byte	1
                       11387 
000000f4 00            11388 	.byte	0
                       11389 
                       11390 .LDW_48325e8:
000000f5 45            11391 	.byte	69
000000f6 01            11392 	.byte	1
                       11393 
000000f7 00            11394 	.byte	0
                       11395 
                       11396 .LDW_4832620:
000000f8 45            11397 	.byte	69
000000f9 01            11398 	.byte	1

                                                                      Page 203
                                                              C:\Users\NIKHIL~1.PAT\AppData\Local\Temp\gh_000aeoo1.s
                       11399 
000000fa 00            11400 	.byte	0
                       11401 
                       11402 .LDW_4832658:
000000fb 45            11403 	.byte	69
000000fc 01            11404 	.byte	1
                       11405 
000000fd 00            11406 	.byte	0
                       11407 
                       11408 .LDW_4832690:
000000fe 45            11409 	.byte	69
000000ff 01            11410 	.byte	1
                       11411 
00000100 00            11412 	.byte	0
                       11413 
                       11414 .LDW_48326c8:
00000101 25            11415 	.byte	37
00000102 756e7369676e  11416 	.strz	"unsigned char"
00000108 656420636861 
0000010e 7200 
00000110 08            11417 	.byte	8
00000111 01            11418 	.byte	1
                       11419 
                       11420 .LDW_4832700:
00000112 25            11421 	.byte	37
00000113 696e7400      11422 	.strz	"int"
00000117 05            11423 	.byte	5
00000118 04            11424 	.byte	4
                       11425 
                       11426 .LDW_4bafeb8:
00000119 3a            11427 	.byte	58
0000011a 00            11428 	.byte	0
0000011b 06            11429 	.byte	6
0000011c 00000000*     11430 	.word	.LDW_47f44e8
                       11431 
                       11432 	.section	.debug_abbrev
00000042 3a            11433 	.byte	58
00000043 01            11434 	.byte	1
00000044 01            11435 	.byte	1
00000045 090b          11436 	.byte	9,11
00000047 0b0f          11437 	.byte	11,15
00000049 4910          11438 	.byte	73,16
0000004b 0000          11439 	.byte	0,0
                       11440 
                       11441 	.section	.debug_info
00000120 32            11442 	.byte	50
00000121 00000000*     11443 	.word	.LDW_4832700
00000125 04            11444 	.byte	4
00000126 00            11445 	.byte	0
00000127 02            11446 	.byte	2
                       11447 
                       11448 	.section	.debug_abbrev
0000004d 32            11449 	.byte	50
0000004e 21            11450 	.byte	33
0000004f 00            11451 	.byte	0
00000050 4910          11452 	.byte	73,16
00000052 0b0f          11453 	.byte	11,15
00000054 220d          11454 	.byte	34,13
00000056 2f0d          11455 	.byte	47,13
00000058 0000          11456 	.byte	0,0
                       11457 

                                                                      Page 204
                                                              C:\Users\NIKHIL~1.PAT\AppData\Local\Temp\gh_000aeoo1.s
                       11458 	.section	.debug_info
00000128 00            11459 	.byte	0
                       11460 
                       11461 .LDW_4832888:
00000129 2f            11462 	.byte	47
0000012a 00000000*     11463 	.word	.LDW_48323b8
                       11464 
                       11465 .LDW_48328c0:
0000012e 2f            11466 	.byte	47
0000012f 00000000*     11467 	.word	.LDW_48326c8
                       11468 
                       11469 .LDW_4bb3420:
00000133 29            11470 	.byte	41
00000134 00000000*     11471 	.word	.LDW_48323b8
                       11472 
                       11473 	.section	.debug_abbrev
0000005a 29            11474 	.byte	41
0000005b 26            11475 	.byte	38
0000005c 00            11476 	.byte	0
0000005d 4910          11477 	.byte	73,16
0000005f 0000          11478 	.byte	0,0
                       11479 
                       11480 	.section	.debug_info
                       11481 .LDW_4bb0160:
00000138 3a            11482 	.byte	58
00000139 00            11483 	.byte	0
0000013a 80c001        11484 	.byte	128,192,1
0000013d 00000000*     11485 	.word	.LDW_48326c8
                       11486 
00000141 32            11487 	.byte	50
00000142 00000000*     11488 	.word	.LDW_4832700
00000146 04            11489 	.byte	4
00000147 00            11490 	.byte	0
00000148 ffbf01        11491 	.byte	255,191,1
                       11492 
0000014b 00            11493 	.byte	0
                       11494 
                       11495 .LDW_4bb3688:
0000014c 29            11496 	.byte	41
0000014d 00000000*     11497 	.word	.LDW_47f44e8
                       11498 
                       11499 .LDW_4bb01e8:
00000151 3a            11500 	.byte	58
00000152 00            11501 	.byte	0
00000153 20            11502 	.byte	32
00000154 00000000*     11503 	.word	.LDW_4bb3688
                       11504 
00000158 32            11505 	.byte	50
00000159 00000000*     11506 	.word	.LDW_4832700
0000015d 04            11507 	.byte	4
0000015e 00            11508 	.byte	0
0000015f 0f            11509 	.byte	15
                       11510 
00000160 00            11511 	.byte	0
                       11512 
                       11513 .LDW_4bb0270:
00000161 3a            11514 	.byte	58
00000162 00            11515 	.byte	0
00000163 06            11516 	.byte	6
00000164 00000000*     11517 	.word	.LDW_4bb3688
                       11518 

                                                                      Page 205
                                                              C:\Users\NIKHIL~1.PAT\AppData\Local\Temp\gh_000aeoo1.s
00000168 32            11519 	.byte	50
00000169 00000000*     11520 	.word	.LDW_4832700
0000016d 04            11521 	.byte	4
0000016e 00            11522 	.byte	0
0000016f 02            11523 	.byte	2
                       11524 
00000170 00            11525 	.byte	0
                       11526 
                       11527 .LDW_4bb02f8:
00000171 3a            11528 	.byte	58
00000172 00            11529 	.byte	0
00000173 2a            11530 	.byte	42
00000174 00000000*     11531 	.word	.LDW_4bb3688
                       11532 
00000178 32            11533 	.byte	50
00000179 00000000*     11534 	.word	.LDW_4832700
0000017d 04            11535 	.byte	4
0000017e 00            11536 	.byte	0
0000017f 06            11537 	.byte	6
                       11538 
00000180 32            11539 	.byte	50
00000181 00000000*     11540 	.word	.LDW_4832700
00000185 04            11541 	.byte	4
00000186 00            11542 	.byte	0
00000187 02            11543 	.byte	2
                       11544 
00000188 00            11545 	.byte	0
                       11546 
                       11547 .LDW_4bb0380:
00000189 3a            11548 	.byte	58
0000018a 00            11549 	.byte	0
0000018b 64            11550 	.byte	100
0000018c 00000000*     11551 	.word	.LDW_47f4388
                       11552 
00000190 32            11553 	.byte	50
00000191 00000000*     11554 	.word	.LDW_4832700
00000195 04            11555 	.byte	4
00000196 00            11556 	.byte	0
00000197 e300          11557 	.byte	227,0
                       11558 
00000199 00            11559 	.byte	0
                       11560 
                       11561 .LDW_4bb8258:
0000019a 2f            11562 	.byte	47
0000019b 00000000*     11563 	.word	.LDW_4bb3420
                       11564 
                       11565 .LDW_4bb85d8:
0000019f 44            11566 	.byte	68
000001a0 00000000*     11567 	.word	.LDW_4832700
000001a4 01            11568 	.byte	1
                       11569 
                       11570 .LDW_4bb8828:
000001a5 12            11571 	.byte	18
000001a6 00000000*     11572 	.word	.LDW_4bb8258
000001aa 00            11573 	.byte	0
                       11574 
000001ab 46            11575 	.byte	70
                       11576 
                       11577 	.section	.debug_abbrev
00000061 46            11578 	.byte	70
00000062 18            11579 	.byte	24

                                                                      Page 206
                                                              C:\Users\NIKHIL~1.PAT\AppData\Local\Temp\gh_000aeoo1.s
00000063 00            11580 	.byte	0
00000064 0000          11581 	.byte	0,0
                       11582 
                       11583 	.section	.debug_info
000001ac 00            11584 	.byte	0
                       11585 
                       11586 .LDW_4bb8680:
000001ad 44            11587 	.byte	68
000001ae 00000000*     11588 	.word	.LDW_4832700
000001b2 01            11589 	.byte	1
                       11590 
                       11591 .LDW_4bb8918:
000001b3 12            11592 	.byte	18
000001b4 00000000*     11593 	.word	.LDW_4832888
000001b8 00            11594 	.byte	0
                       11595 
                       11596 .LDW_4bb8948:
000001b9 12            11597 	.byte	18
000001ba 00000000*     11598 	.word	.LDW_4bb8258
000001be 00            11599 	.byte	0
                       11600 
000001bf 46            11601 	.byte	70
                       11602 
000001c0 00            11603 	.byte	0
                       11604 
                       11605 .LDW_4bbc098:
000001c1 45            11606 	.byte	69
000001c2 01            11607 	.byte	1
                       11608 
000001c3 00            11609 	.byte	0
                       11610 
                       11611 .LDW_4bbc0d0:
000001c4 45            11612 	.byte	69
000001c5 01            11613 	.byte	1
                       11614 
000001c6 00            11615 	.byte	0
                       11616 
                       11617 .LDW_4bbc108:
000001c7 44            11618 	.byte	68
000001c8 00000000*     11619 	.word	.LDW_4bb2d40
000001cc 01            11620 	.byte	1
                       11621 
000001cd 00            11622 	.byte	0
                       11623 
                       11624 .LDW_4bbc1e8:
000001ce 2f            11625 	.byte	47
000001cf 00000000*     11626 	.word	.LDW_47f44e8
                       11627 
                       11628 .LDW_4bbc1b0:
000001d3 45            11629 	.byte	69
000001d4 01            11630 	.byte	1
                       11631 
                       11632 .LDW_4bbc6d8:
000001d5 12            11633 	.byte	18
000001d6 00000000*     11634 	.word	.LDW_4bb2ef8
000001da 00            11635 	.byte	0
                       11636 
                       11637 .LDW_4bbc708:
000001db 12            11638 	.byte	18
000001dc 00000000*     11639 	.word	.LDW_4bb2ef8
000001e0 00            11640 	.byte	0

                                                                      Page 207
                                                              C:\Users\NIKHIL~1.PAT\AppData\Local\Temp\gh_000aeoo1.s
                       11641 
                       11642 .LDW_4bbc738:
000001e1 12            11643 	.byte	18
000001e2 00000000*     11644 	.word	.LDW_4bb2ef8
000001e6 00            11645 	.byte	0
                       11646 
                       11647 .LDW_4bbc768:
000001e7 12            11648 	.byte	18
000001e8 00000000*     11649 	.word	.LDW_4bb2ef8
000001ec 00            11650 	.byte	0
                       11651 
                       11652 .LDW_4bbc798:
000001ed 12            11653 	.byte	18
000001ee 00000000*     11654 	.word	.LDW_4bbc1e8
000001f2 00            11655 	.byte	0
                       11656 
000001f3 00            11657 	.byte	0
                       11658 
                       11659 .LDW_4bbc258:
000001f4 44            11660 	.byte	68
000001f5 00000000*     11661 	.word	.LDW_4bb2d40
000001f9 01            11662 	.byte	1
                       11663 
000001fa 00            11664 	.byte	0
                       11665 
                       11666 .LDW_4bbc290:
000001fb 45            11667 	.byte	69
000001fc 01            11668 	.byte	1
                       11669 
000001fd 00            11670 	.byte	0
                       11671 
                       11672 .LDW_4bbc3a8:
000001fe 45            11673 	.byte	69
000001ff 01            11674 	.byte	1
                       11675 
                       11676 .LDW_4bbca68:
00000200 12            11677 	.byte	18
00000201 00000000*     11678 	.word	.LDW_4bb4e20
00000205 00            11679 	.byte	0
                       11680 
00000206 00            11681 	.byte	0
                       11682 
                       11683 .LDW_4bbc3e0:
00000207 45            11684 	.byte	69
00000208 01            11685 	.byte	1
                       11686 
                       11687 .LDW_4bbca98:
00000209 12            11688 	.byte	18
0000020a 00000000*     11689 	.word	.LDW_4bb4e20
0000020e 00            11690 	.byte	0
                       11691 
                       11692 .LDW_4bbcac8:
0000020f 12            11693 	.byte	18
00000210 00000000*     11694 	.word	.LDW_47f44e8
00000214 00            11695 	.byte	0
                       11696 
00000215 00            11697 	.byte	0
                       11698 
                       11699 .LDW_4bbc418:
00000216 45            11700 	.byte	69
00000217 01            11701 	.byte	1

                                                                      Page 208
                                                              C:\Users\NIKHIL~1.PAT\AppData\Local\Temp\gh_000aeoo1.s
                       11702 
                       11703 .LDW_4bbcaf8:
00000218 12            11704 	.byte	18
00000219 00000000*     11705 	.word	.LDW_4bb4e20
0000021d 00            11706 	.byte	0
                       11707 
0000021e 00            11708 	.byte	0
                       11709 
                       11710 .LDW_4bbc450:
0000021f 45            11711 	.byte	69
00000220 01            11712 	.byte	1
                       11713 
                       11714 .LDW_4bbcb28:
00000221 12            11715 	.byte	18
00000222 00000000*     11716 	.word	.LDW_4bb4e20
00000226 00            11717 	.byte	0
                       11718 
00000227 00            11719 	.byte	0
                       11720 
                       11721 .LDW_4bbc488:
00000228 45            11722 	.byte	69
00000229 01            11723 	.byte	1
                       11724 
0000022a 00            11725 	.byte	0
                       11726 
                       11727 .LDW_4bbc530:
0000022b 45            11728 	.byte	69
0000022c 01            11729 	.byte	1
                       11730 
0000022d 00            11731 	.byte	0
                       11732 
                       11733 .LDW_4bbc568:
0000022e 45            11734 	.byte	69
0000022f 01            11735 	.byte	1
                       11736 
00000230 00            11737 	.byte	0
                       11738 
                       11739 .LDW_4bbc5a0:
00000231 45            11740 	.byte	69
00000232 01            11741 	.byte	1
                       11742 
00000233 00            11743 	.byte	0
                       11744 
                       11745 .LDW_4bbc5d8:
00000234 45            11746 	.byte	69
00000235 01            11747 	.byte	1
                       11748 
                       11749 .LDW_4bbcb58:
00000236 12            11750 	.byte	18
00000237 00000000*     11751 	.word	.LDW_47f44e8
0000023b 00            11752 	.byte	0
                       11753 
0000023c 00            11754 	.byte	0
                       11755 
                       11756 .LDW_4bbc610:
0000023d 45            11757 	.byte	69
0000023e 01            11758 	.byte	1
                       11759 
0000023f 00            11760 	.byte	0
                       11761 
                       11762 .LDW_4bbc648:

                                                                      Page 209
                                                              C:\Users\NIKHIL~1.PAT\AppData\Local\Temp\gh_000aeoo1.s
00000240 45            11763 	.byte	69
00000241 01            11764 	.byte	1
                       11765 
00000242 00            11766 	.byte	0
                       11767 
                       11768 .LDW_4bbc680:
00000243 44            11769 	.byte	68
00000244 00000000*     11770 	.word	.LDW_4bb2d40
00000248 01            11771 	.byte	1
                       11772 
00000249 00            11773 	.byte	0
                       11774 
                       11775 .LDW_4bbcf80:
0000024a 45            11776 	.byte	69
0000024b 01            11777 	.byte	1
                       11778 
0000024c 00            11779 	.byte	0
                       11780 
                       11781 .LDW_4bbcfb8:
0000024d 45            11782 	.byte	69
0000024e 01            11783 	.byte	1
                       11784 
0000024f 00            11785 	.byte	0
                       11786 
                       11787 .LDW_4bbcff0:
00000250 45            11788 	.byte	69
00000251 01            11789 	.byte	1
                       11790 
00000252 00            11791 	.byte	0
                       11792 
                       11793 .LDW_4bbd028:
00000253 45            11794 	.byte	69
00000254 01            11795 	.byte	1
                       11796 
00000255 00            11797 	.byte	0
                       11798 
                       11799 .LDW_4bbd060:
00000256 45            11800 	.byte	69
00000257 01            11801 	.byte	1
                       11802 
00000258 00            11803 	.byte	0
                       11804 
                       11805 .LDW_4bbd108:
00000259 45            11806 	.byte	69
0000025a 01            11807 	.byte	1
                       11808 
0000025b 00            11809 	.byte	0
                       11810 
                       11811 .LDW_4bbd178:
0000025c 45            11812 	.byte	69
0000025d 01            11813 	.byte	1
                       11814 
                       11815 .LDW_4bbcc18:
0000025e 12            11816 	.byte	18
0000025f 00000000*     11817 	.word	.LDW_48323f0
00000263 00            11818 	.byte	0
                       11819 
00000264 00            11820 	.byte	0
                       11821 
                       11822 .LDW_4bbd1b0:
00000265 45            11823 	.byte	69

                                                                      Page 210
                                                              C:\Users\NIKHIL~1.PAT\AppData\Local\Temp\gh_000aeoo1.s
00000266 01            11824 	.byte	1
                       11825 
00000267 00            11826 	.byte	0
                       11827 
                       11828 .LDW_4bbd220:
00000268 45            11829 	.byte	69
00000269 01            11830 	.byte	1
                       11831 
0000026a 00            11832 	.byte	0
                       11833 
                       11834 .LDW_4bbd290:
0000026b 44            11835 	.byte	68
0000026c 00000000*     11836 	.word	.LDW_47f4960
00000270 01            11837 	.byte	1
                       11838 
00000271 00            11839 	.byte	0
                       11840 
                       11841 .LDW_4bbd2c8:
00000272 44            11842 	.byte	68
00000273 00000000*     11843 	.word	.LDW_47f4960
00000277 01            11844 	.byte	1
                       11845 
00000278 00            11846 	.byte	0
                       11847 
                       11848 .LDW_4bbd300:
00000279 45            11849 	.byte	69
0000027a 01            11850 	.byte	1
                       11851 
0000027b 00            11852 	.byte	0
                       11853 
                       11854 .LDW_4bbd3a8:
0000027c 44            11855 	.byte	68
0000027d 00000000*     11856 	.word	.LDW_47f4960
00000281 01            11857 	.byte	1
                       11858 
00000282 00            11859 	.byte	0
                       11860 
                       11861 .LDW_4bbd3e0:
00000283 45            11862 	.byte	69
00000284 01            11863 	.byte	1
                       11864 
00000285 00            11865 	.byte	0
                       11866 
                       11867 .LDW_4bbd418:
00000286 45            11868 	.byte	69
00000287 01            11869 	.byte	1
                       11870 
00000288 00            11871 	.byte	0
                       11872 
                       11873 .LDW_4bbd450:
00000289 45            11874 	.byte	69
0000028a 01            11875 	.byte	1
                       11876 
0000028b 00            11877 	.byte	0
                       11878 
                       11879 .LDW_4bbd4f8:
0000028c 45            11880 	.byte	69
0000028d 01            11881 	.byte	1
                       11882 
0000028e 00            11883 	.byte	0
                       11884 

                                                                      Page 211
                                                              C:\Users\NIKHIL~1.PAT\AppData\Local\Temp\gh_000aeoo1.s
                       11885 .LDW_4bbd568:
0000028f 44            11886 	.byte	68
00000290 00000000*     11887 	.word	.LDW_4bb2ef8
00000294 01            11888 	.byte	1
                       11889 
00000295 00            11890 	.byte	0
                       11891 
                       11892 .LDW_4bbd5a0:
00000296 44            11893 	.byte	68
00000297 00000000*     11894 	.word	.LDW_47f44e8
0000029b 01            11895 	.byte	1
                       11896 
0000029c 00            11897 	.byte	0
                       11898 
                       11899 .LDW_4bb3b00:
0000029d 2b            11900 	.byte	43
0000029e 00000000*     11901 	.word	.LDW_47f44e8
                       11902 
                       11903 	.section	.debug_abbrev
00000066 2b            11904 	.byte	43
00000067 35            11905 	.byte	53
00000068 00            11906 	.byte	0
00000069 4910          11907 	.byte	73,16
0000006b 0000          11908 	.byte	0,0
                       11909 
                       11910 	.section	.debug_info
                       11911 .LDW_4bbd610:
000002a2 2f            11912 	.byte	47
000002a3 00000000*     11913 	.word	.LDW_4bb3b00
                       11914 
                       11915 .LDW_4bbd5d8:
000002a7 45            11916 	.byte	69
000002a8 01            11917 	.byte	1
                       11918 
                       11919 .LDW_4bbcc48:
000002a9 12            11920 	.byte	18
000002aa 00000000*     11921 	.word	.LDW_4bbd610
000002ae 00            11922 	.byte	0
                       11923 
000002af 00            11924 	.byte	0
                       11925 
                       11926 .LDW_4bbd648:
000002b0 45            11927 	.byte	69
000002b1 01            11928 	.byte	1
                       11929 
                       11930 .LDW_4bbcc78:
000002b2 12            11931 	.byte	18
000002b3 00000000*     11932 	.word	.LDW_4bbd610
000002b7 00            11933 	.byte	0
                       11934 
000002b8 00            11935 	.byte	0
                       11936 
                       11937 .LDW_4bbf6d8:
000002b9 45            11938 	.byte	69
000002ba 01            11939 	.byte	1
                       11940 
                       11941 .LDW_4bbcd08:
000002bb 12            11942 	.byte	18
000002bc 00000000*     11943 	.word	.LDW_4bbd610
000002c0 00            11944 	.byte	0
                       11945 

                                                                      Page 212
                                                              C:\Users\NIKHIL~1.PAT\AppData\Local\Temp\gh_000aeoo1.s
000002c1 00            11946 	.byte	0
                       11947 
                       11948 .LDW_4bbf7f0:
000002c2 45            11949 	.byte	69
000002c3 01            11950 	.byte	1
                       11951 
000002c4 00            11952 	.byte	0
                       11953 
                       11954 .LDW_4bbf828:
000002c5 44            11955 	.byte	68
000002c6 00000000*     11956 	.word	.LDW_47f4438
000002ca 01            11957 	.byte	1
                       11958 
000002cb 00            11959 	.byte	0
                       11960 
                       11961 .LDW_4bbf860:
000002cc 45            11962 	.byte	69
000002cd 01            11963 	.byte	1
                       11964 
000002ce 00            11965 	.byte	0
                       11966 
                       11967 .LDW_4bbf898:
000002cf 45            11968 	.byte	69
000002d0 01            11969 	.byte	1
                       11970 
                       11971 .LDW_4bbce58:
000002d1 12            11972 	.byte	18
000002d2 00000000*     11973 	.word	.LDW_4bb2ef8
000002d6 00            11974 	.byte	0
                       11975 
000002d7 00            11976 	.byte	0
                       11977 
                       11978 .LDW_4bbf8d0:
000002d8 45            11979 	.byte	69
000002d9 01            11980 	.byte	1
                       11981 
                       11982 .LDW_4bbce88:
000002da 12            11983 	.byte	18
000002db 00000000*     11984 	.word	.LDW_47f44e8
000002df 00            11985 	.byte	0
                       11986 
                       11987 .LDW_4bbfed8:
000002e0 12            11988 	.byte	18
000002e1 00000000*     11989 	.word	.LDW_47f44e8
000002e5 00            11990 	.byte	0
                       11991 
000002e6 00            11992 	.byte	0
                       11993 
                       11994 .LDW_4bbf940:
000002e7 45            11995 	.byte	69
000002e8 01            11996 	.byte	1
                       11997 
000002e9 00            11998 	.byte	0
                       11999 
                       12000 .LDW_4bbf9e8:
000002ea 45            12001 	.byte	69
000002eb 01            12002 	.byte	1
                       12003 
                       12004 .LDW_4bbff08:
000002ec 12            12005 	.byte	18
000002ed 00000000*     12006 	.word	.LDW_47f44e8

                                                                      Page 213
                                                              C:\Users\NIKHIL~1.PAT\AppData\Local\Temp\gh_000aeoo1.s
000002f1 00            12007 	.byte	0
                       12008 
000002f2 00            12009 	.byte	0
                       12010 
                       12011 .LDW_4bbfa20:
000002f3 45            12012 	.byte	69
000002f4 01            12013 	.byte	1
                       12014 
                       12015 .LDW_4bbff38:
000002f5 12            12016 	.byte	18
000002f6 00000000*     12017 	.word	.LDW_47f44e8
000002fa 00            12018 	.byte	0
                       12019 
000002fb 00            12020 	.byte	0
                       12021 
                       12022 .LDW_4bbfa90:
000002fc 45            12023 	.byte	69
000002fd 01            12024 	.byte	1
                       12025 
000002fe 00            12026 	.byte	0
                       12027 
                       12028 .LDW_4bbfac8:
000002ff 2f            12029 	.byte	47
00000300 00000000*     12030 	.word	.LDW_4bbfa90
                       12031 
                       12032 .LDW_4bbfa58:
00000304 45            12033 	.byte	69
00000305 01            12034 	.byte	1
                       12035 
                       12036 .LDW_4bbff68:
00000306 12            12037 	.byte	18
00000307 00000000*     12038 	.word	.LDW_4bbfac8
0000030b 00            12039 	.byte	0
                       12040 
0000030c 00            12041 	.byte	0
                       12042 
                       12043 .LDW_4bbfb00:
0000030d 45            12044 	.byte	69
0000030e 01            12045 	.byte	1
                       12046 
                       12047 .LDW_4bbff98:
0000030f 12            12048 	.byte	18
00000310 00000000*     12049 	.word	.LDW_4bb2ef8
00000314 00            12050 	.byte	0
                       12051 
00000315 00            12052 	.byte	0
                       12053 
                       12054 .LDW_4bbfc88:
00000316 45            12055 	.byte	69
00000317 01            12056 	.byte	1
                       12057 
                       12058 .LDW_4bc0088:
00000318 12            12059 	.byte	18
00000319 00000000*     12060 	.word	.LDW_47f4438
0000031d 00            12061 	.byte	0
                       12062 
0000031e 00            12063 	.byte	0
                       12064 
                       12065 .LDW_4bbfcc0:
0000031f 2f            12066 	.byte	47
00000320 00000000*     12067 	.word	.LDW_4bbfc88

                                                                      Page 214
                                                              C:\Users\NIKHIL~1.PAT\AppData\Local\Temp\gh_000aeoo1.s
                       12068 
                       12069 .LDW_4bbfc50:
00000324 45            12070 	.byte	69
00000325 01            12071 	.byte	1
                       12072 
                       12073 .LDW_4bc00b8:
00000326 12            12074 	.byte	18
00000327 00000000*     12075 	.word	.LDW_4bbfcc0
0000032b 00            12076 	.byte	0
                       12077 
0000032c 00            12078 	.byte	0
                       12079 
                       12080 .LDW_4bbfd68:
0000032d 45            12081 	.byte	69
0000032e 01            12082 	.byte	1
                       12083 
0000032f 00            12084 	.byte	0
                       12085 
                       12086 .LDW_4bbfda0:
00000330 44            12087 	.byte	68
00000331 00000000*     12088 	.word	.LDW_47f44e8
00000335 01            12089 	.byte	1
                       12090 
                       12091 .LDW_4bc0148:
00000336 12            12092 	.byte	18
00000337 00000000*     12093 	.word	.LDW_4bb4e70
0000033b 00            12094 	.byte	0
                       12095 
0000033c 00            12096 	.byte	0
                       12097 
                       12098 .LDW_4bbfe10:
0000033d 45            12099 	.byte	69
0000033e 01            12100 	.byte	1
                       12101 
                       12102 .LDW_4bc0178:
0000033f 12            12103 	.byte	18
00000340 00000000*     12104 	.word	.LDW_47f4438
00000344 00            12105 	.byte	0
                       12106 
                       12107 .LDW_4bc01a8:
00000345 12            12108 	.byte	18
00000346 00000000*     12109 	.word	.LDW_47f44e8
0000034a 00            12110 	.byte	0
                       12111 
                       12112 .LDW_4bc01d8:
0000034b 12            12113 	.byte	18
0000034c 00000000*     12114 	.word	.LDW_47f44e8
00000350 00            12115 	.byte	0
                       12116 
00000351 00            12117 	.byte	0
                       12118 
                       12119 .LDW_4bbfe48:
00000352 45            12120 	.byte	69
00000353 01            12121 	.byte	1
                       12122 
00000354 00            12123 	.byte	0
                       12124 
                       12125 .LDW_4bc2908:
00000355 45            12126 	.byte	69
00000356 01            12127 	.byte	1
                       12128 

                                                                      Page 215
                                                              C:\Users\NIKHIL~1.PAT\AppData\Local\Temp\gh_000aeoo1.s
00000357 00            12129 	.byte	0
                       12130 
                       12131 .LDW_4bc2940:
00000358 45            12132 	.byte	69
00000359 01            12133 	.byte	1
                       12134 
0000035a 00            12135 	.byte	0
                       12136 
                       12137 .LDW_4bc2978:
0000035b 45            12138 	.byte	69
0000035c 01            12139 	.byte	1
                       12140 
0000035d 00            12141 	.byte	0
                       12142 
                       12143 .LDW_4bc2a90:
0000035e 44            12144 	.byte	68
0000035f 00000000*     12145 	.word	.LDW_4bb2ef8
00000363 01            12146 	.byte	1
                       12147 
00000364 00            12148 	.byte	0
                       12149 
                       12150 .LDW_4bb3b70:
00000365 2e            12151 	.byte	46
00000366 00            12152 	.byte	0
00000367 5f            12153 	.byte	95
00000368 01            12154 	.byte	1
00000369 07            12155 	.byte	7
0000036a 04            12156 	.byte	4
0000036b 01            12157 	.byte	1
                       12158 
                       12159 	.section	.debug_abbrev
0000006d 2e            12160 	.byte	46
0000006e 04            12161 	.byte	4
0000006f 01            12162 	.byte	1
00000070 0308          12163 	.byte	3,8
00000072 3b0f          12164 	.byte	59,15
00000074 390f          12165 	.byte	57,15
00000076 3a0f          12166 	.byte	58,15
00000078 0b0f          12167 	.byte	11,15
0000007a 320b          12168 	.byte	50,11
0000007c 0000          12169 	.byte	0,0
                       12170 
                       12171 	.section	.debug_info
                       12172 .LDW_4bb3bc0:
0000036c 2d            12173 	.byte	45
0000036d 525f4f4b00    12174 	.strz	"R_OK"
00000372 60            12175 	.byte	96
00000373 03            12176 	.byte	3
00000374 07            12177 	.byte	7
00000375 00            12178 	.byte	0
                       12179 
                       12180 	.section	.debug_abbrev
0000007e 2d            12181 	.byte	45
0000007f 28            12182 	.byte	40
00000080 00            12183 	.byte	0
00000081 0308          12184 	.byte	3,8
00000083 3b0f          12185 	.byte	59,15
00000085 390f          12186 	.byte	57,15
00000087 3a0f          12187 	.byte	58,15
00000089 1c0d          12188 	.byte	28,13
0000008b 0000          12189 	.byte	0,0

                                                                      Page 216
                                                              C:\Users\NIKHIL~1.PAT\AppData\Local\Temp\gh_000aeoo1.s
                       12190 
                       12191 	.section	.debug_info
                       12192 .LDW_4bb3c00:
00000376 2d            12193 	.byte	45
00000377 525f4552524f  12194 	.strz	"R_ERROR"
0000037d 5200 
0000037f 61            12195 	.byte	97
00000380 03            12196 	.byte	3
00000381 07            12197 	.byte	7
00000382 01            12198 	.byte	1
                       12199 
                       12200 .LDW_4bb3c40:
00000383 2d            12201 	.byte	45
00000384 525f4552524f  12202 	.strz	"R_ERROR_NOTIFY"
0000038a 525f4e4f5449 
00000390 465900 
00000393 62            12203 	.byte	98
00000394 03            12204 	.byte	3
00000395 07            12205 	.byte	7
00000396 02            12206 	.byte	2
                       12207 
                       12208 .LDW_4bb3c80:
00000397 2d            12209 	.byte	45
00000398 525f50415241  12210 	.strz	"R_PARAMETER_MISSING"
0000039e 4d455445525f 
000003a4 4d495353494e 
000003aa 4700 
000003ac 63            12211 	.byte	99
000003ad 03            12212 	.byte	3
000003ae 07            12213 	.byte	7
000003af 03            12214 	.byte	3
                       12215 
                       12216 .LDW_4bb3cc0:
000003b0 2d            12217 	.byte	45
000003b1 525f50415241  12218 	.strz	"R_PARAMETER_RANGE"
000003b7 4d455445525f 
000003bd 52414e474500 
000003c3 64            12219 	.byte	100
000003c4 03            12220 	.byte	3
000003c5 07            12221 	.byte	7
000003c6 04            12222 	.byte	4
                       12223 
                       12224 .LDW_4bb3d00:
000003c7 2d            12225 	.byte	45
000003c8 525f50415241  12226 	.strz	"R_PARAMETER_INCORRECT"
000003ce 4d455445525f 
000003d4 494e434f5252 
000003da 45435400 
000003de 65            12227 	.byte	101
000003df 03            12228 	.byte	3
000003e0 07            12229 	.byte	7
000003e1 05            12230 	.byte	5
                       12231 
                       12232 .LDW_4bb3d40:
000003e2 2d            12233 	.byte	45
000003e3 525f44415441  12234 	.strz	"R_DATA_MISMATCH"
000003e9 5f4d49534d41 
000003ef 54434800 
000003f3 66            12235 	.byte	102
000003f4 03            12236 	.byte	3
000003f5 07            12237 	.byte	7

                                                                      Page 217
                                                              C:\Users\NIKHIL~1.PAT\AppData\Local\Temp\gh_000aeoo1.s
000003f6 06            12238 	.byte	6
                       12239 
000003f7 00            12240 	.byte	0
                       12241 
                       12242 .LDW_4bb2d40:
000003f8 28            12243 	.byte	40
000003f9 725f4572726f  12244 	.strz	"r_Error_t"
000003ff 725f7400 
00000403 67            12245 	.byte	103
00000404 03            12246 	.byte	3
00000405 07            12247 	.byte	7
00000406 00000000*     12248 	.word	.LDW_4bb3b70
                       12249 
                       12250 	.section	.debug_abbrev
0000008d 28            12251 	.byte	40
0000008e 16            12252 	.byte	22
0000008f 00            12253 	.byte	0
00000090 0308          12254 	.byte	3,8
00000092 3b0f          12255 	.byte	59,15
00000094 390f          12256 	.byte	57,15
00000096 3a0f          12257 	.byte	58,15
00000098 4910          12258 	.byte	73,16
0000009a 0000          12259 	.byte	0,0
                       12260 
                       12261 	.section	.debug_info
                       12262 .LDW_47f4388:
0000040a 28            12263 	.byte	40
0000040b 636861725f74  12264 	.strz	"char_t"
00000411 00 
00000412 76            12265 	.byte	118
00000413 1c            12266 	.byte	28
00000414 07            12267 	.byte	7
00000415 00000000*     12268 	.word	.LDW_48323b8
                       12269 
                       12270 .LDW_4bb2ef8:
00000419 28            12271 	.byte	40
0000041a 75696e74385f  12272 	.strz	"uint8_t"
00000420 7400 
00000422 7b            12273 	.byte	123
00000423 1c            12274 	.byte	28
00000424 07            12275 	.byte	7
00000425 00000000*     12276 	.word	.LDW_48326c8
                       12277 
                       12278 .LDW_47f44e8:
00000429 28            12279 	.byte	40
0000042a 75696e743136  12280 	.strz	"uint16_t"
00000430 5f7400 
00000433 7c            12281 	.byte	124
00000434 1c            12282 	.byte	28
00000435 07            12283 	.byte	7
00000436 00000000*     12284 	.word	.LDW_4832498
                       12285 
                       12286 .LDW_47f4438:
0000043a 28            12287 	.byte	40
0000043b 75696e743332  12288 	.strz	"uint32_t"
00000441 5f7400 
00000444 7d            12289 	.byte	125
00000445 1c            12290 	.byte	28
00000446 07            12291 	.byte	7
00000447 00000000*     12292 	.word	.LDW_2f8e550
                       12293 

                                                                      Page 218
                                                              C:\Users\NIKHIL~1.PAT\AppData\Local\Temp\gh_000aeoo1.s
                       12294 .LDW_4bb3d80:
0000044b 2e            12295 	.byte	46
0000044c 00            12296 	.byte	0
0000044d 3e            12297 	.byte	62
0000044e 01            12298 	.byte	1
0000044f 08            12299 	.byte	8
00000450 04            12300 	.byte	4
00000451 01            12301 	.byte	1
                       12302 
                       12303 .LDW_4bb3de8:
00000452 2d            12304 	.byte	45
00000453 525f52455345  12305 	.strz	"R_RESET"
00000459 5400 
0000045b 3f            12306 	.byte	63
0000045c 03            12307 	.byte	3
0000045d 08            12308 	.byte	8
0000045e 00            12309 	.byte	0
                       12310 
                       12311 .LDW_4bb3e28:
0000045f 2d            12312 	.byte	45
00000460 525f4d4f4445  12313 	.strz	"R_MODE1"
00000466 3100 
00000468 40            12314 	.byte	64
00000469 03            12315 	.byte	3
0000046a 08            12316 	.byte	8
0000046b 01            12317 	.byte	1
                       12318 
                       12319 .LDW_4bb3e68:
0000046c 2d            12320 	.byte	45
0000046d 525f4d4f4445  12321 	.strz	"R_MODE2"
00000473 3200 
00000475 41            12322 	.byte	65
00000476 03            12323 	.byte	3
00000477 08            12324 	.byte	8
00000478 02            12325 	.byte	2
                       12326 
                       12327 .LDW_4bb3ea8:
00000479 2d            12328 	.byte	45
0000047a 525f44454550  12329 	.strz	"R_DEEPSTOP"
00000480 53544f5000 
00000485 42            12330 	.byte	66
00000486 03            12331 	.byte	3
00000487 08            12332 	.byte	8
00000488 03            12333 	.byte	3
                       12334 
00000489 00            12335 	.byte	0
                       12336 
                       12337 .LDW_4bb30b0:
0000048a 28            12338 	.byte	40
0000048b 725f4d6f6465  12339 	.strz	"r_Modes_t"
00000491 735f7400 
00000495 43            12340 	.byte	67
00000496 02            12341 	.byte	2
00000497 08            12342 	.byte	8
00000498 00000000*     12343 	.word	.LDW_4bb3d80
                       12344 
                       12345 .LDW_4bb4dd0:
0000049c 2e            12346 	.byte	46
0000049d 725f52474243  12347 	.strz	"r_RGBColors"
000004a3 6f6c6f727300 
000004a9 45            12348 	.byte	69

                                                                      Page 219
                                                              C:\Users\NIKHIL~1.PAT\AppData\Local\Temp\gh_000aeoo1.s
000004aa 06            12349 	.byte	6
000004ab 08            12350 	.byte	8
000004ac 04            12351 	.byte	4
000004ad 01            12352 	.byte	1
                       12353 
                       12354 .LDW_4bb3ee8:
000004ae 2d            12355 	.byte	45
000004af 52454400      12356 	.strz	"RED"
000004b3 47            12357 	.byte	71
000004b4 05            12358 	.byte	5
000004b5 08            12359 	.byte	8
000004b6 00            12360 	.byte	0
                       12361 
                       12362 .LDW_4bb3f28:
000004b7 2d            12363 	.byte	45
000004b8 59454c4c4f57  12364 	.strz	"YELLOW"
000004be 00 
000004bf 48            12365 	.byte	72
000004c0 05            12366 	.byte	5
000004c1 08            12367 	.byte	8
000004c2 01            12368 	.byte	1
                       12369 
                       12370 .LDW_4bb3f68:
000004c3 2d            12371 	.byte	45
000004c4 475245454e00  12372 	.strz	"GREEN"
000004ca 49            12373 	.byte	73
000004cb 05            12374 	.byte	5
000004cc 08            12375 	.byte	8
000004cd 02            12376 	.byte	2
                       12377 
                       12378 .LDW_4bb3fa8:
000004ce 2d            12379 	.byte	45
000004cf 4359414e00    12380 	.strz	"CYAN"
000004d4 4a            12381 	.byte	74
000004d5 05            12382 	.byte	5
000004d6 08            12383 	.byte	8
000004d7 03            12384 	.byte	3
                       12385 
                       12386 .LDW_4bb3fe8:
000004d8 2d            12387 	.byte	45
000004d9 424c554500    12388 	.strz	"BLUE"
000004de 4b            12389 	.byte	75
000004df 05            12390 	.byte	5
000004e0 08            12391 	.byte	8
000004e1 04            12392 	.byte	4
                       12393 
                       12394 .LDW_4bb4028:
000004e2 2d            12395 	.byte	45
000004e3 4d4147454e54  12396 	.strz	"MAGENTA"
000004e9 4100 
000004eb 4c            12397 	.byte	76
000004ec 05            12398 	.byte	5
000004ed 08            12399 	.byte	8
000004ee 05            12400 	.byte	5
                       12401 
                       12402 .LDW_4bb4068:
000004ef 2d            12403 	.byte	45
000004f0 574849544500  12404 	.strz	"WHITE"
000004f6 4d            12405 	.byte	77
000004f7 05            12406 	.byte	5
000004f8 08            12407 	.byte	8

                                                                      Page 220
                                                              C:\Users\NIKHIL~1.PAT\AppData\Local\Temp\gh_000aeoo1.s
000004f9 06            12408 	.byte	6
                       12409 
000004fa 00            12410 	.byte	0
                       12411 
                       12412 .LDW_4bb3108:
000004fb 41            12413 	.byte	65
000004fc 52            12414 	.byte	82
000004fd 01            12415 	.byte	1
000004fe 08            12416 	.byte	8
000004ff 30            12417 	.byte	48
00000500 01            12418 	.byte	1
                       12419 
                       12420 	.section	.debug_abbrev
0000009c 41            12421 	.byte	65
0000009d 13            12422 	.byte	19
0000009e 01            12423 	.byte	1
0000009f 3b0f          12424 	.byte	59,15
000000a1 390f          12425 	.byte	57,15
000000a3 3a0f          12426 	.byte	58,15
000000a5 0b0f          12427 	.byte	11,15
000000a7 320b          12428 	.byte	50,11
000000a9 0000          12429 	.byte	0,0
                       12430 
                       12431 	.section	.debug_info
                       12432 .LDW_4bae6f8:
00000501 23            12433 	.byte	35
00000502 43757272656e  12434 	.strz	"CurrentMode"
00000508 744d6f646500 
0000050e 53            12435 	.byte	83
0000050f 0d            12436 	.byte	13
00000510 08            12437 	.byte	8
00000511 00000000*     12438 	.word	.LDW_4bb30b0
00000515 0223          12439 	.byte	2,35
00000517 00            12440 	.byte	0
00000518 01            12441 	.byte	1
                       12442 
                       12443 	.section	.debug_abbrev
000000ab 23            12444 	.byte	35
000000ac 0d            12445 	.byte	13
000000ad 00            12446 	.byte	0
000000ae 0308          12447 	.byte	3,8
000000b0 3b0f          12448 	.byte	59,15
000000b2 390f          12449 	.byte	57,15
000000b4 3a0f          12450 	.byte	58,15
000000b6 4910          12451 	.byte	73,16
000000b8 380a          12452 	.byte	56,10
000000ba 320b          12453 	.byte	50,11
000000bc 0000          12454 	.byte	0,0
                       12455 
                       12456 	.section	.debug_info
                       12457 .LDW_4bae740:
00000519 23            12458 	.byte	35
0000051a 50726576696f  12459 	.strz	"PreviousMode"
00000520 75734d6f6465 
00000526 00 
00000527 54            12460 	.byte	84
00000528 0d            12461 	.byte	13
00000529 08            12462 	.byte	8
0000052a 00000000*     12463 	.word	.LDW_4bb30b0
0000052e 0223          12464 	.byte	2,35
00000530 04            12465 	.byte	4

                                                                      Page 221
                                                              C:\Users\NIKHIL~1.PAT\AppData\Local\Temp\gh_000aeoo1.s
00000531 01            12466 	.byte	1
                       12467 
                       12468 .LDW_4bae788:
00000532 23            12469 	.byte	35
00000533 53797374656d  12470 	.strz	"System_Counter"
00000539 5f436f756e74 
0000053f 657200 
00000542 55            12471 	.byte	85
00000543 0d            12472 	.byte	13
00000544 08            12473 	.byte	8
00000545 00000000*     12474 	.word	.LDW_47f4438
00000549 0223          12475 	.byte	2,35
0000054b 08            12476 	.byte	8
0000054c 01            12477 	.byte	1
                       12478 
                       12479 .LDW_4bae7d0:
0000054d 23            12480 	.byte	35
0000054e 446565705354  12481 	.strz	"DeepSTOP_Counter"
00000554 4f505f436f75 
0000055a 6e74657200 
0000055f 56            12482 	.byte	86
00000560 0d            12483 	.byte	13
00000561 08            12484 	.byte	8
00000562 00000000*     12485 	.word	.LDW_47f4438
00000566 0223          12486 	.byte	2,35
00000568 0c            12487 	.byte	12
00000569 01            12488 	.byte	1
                       12489 
                       12490 .LDW_4bae818:
0000056a 23            12491 	.byte	35
0000056b 43757272656e  12492 	.strz	"CurrentRGB"
00000571 7452474200 
00000576 57            12493 	.byte	87
00000577 19            12494 	.byte	25
00000578 08            12495 	.byte	8
00000579 00000000*     12496 	.word	.LDW_4bb4dd0
0000057d 0223          12497 	.byte	2,35
0000057f 10            12498 	.byte	16
00000580 01            12499 	.byte	1
                       12500 
                       12501 .LDW_4bae860:
00000581 23            12502 	.byte	35
00000582 52474200      12503 	.strz	"RGB"
00000586 58            12504 	.byte	88
00000587 0d            12505 	.byte	13
00000588 08            12506 	.byte	8
00000589 00000000*     12507 	.word	.LDW_4bafeb8
0000058d 0223          12508 	.byte	2,35
0000058f 14            12509 	.byte	20
00000590 01            12510 	.byte	1
                       12511 
                       12512 .LDW_4bae8a8:
00000591 23            12513 	.byte	35
00000592 4c4544525f45  12514 	.strz	"LEDR_Error"
00000598 72726f7200 
0000059d 59            12515 	.byte	89
0000059e 0d            12516 	.byte	13
0000059f 08            12517 	.byte	8
000005a0 00000000*     12518 	.word	.LDW_4bb2d40
000005a4 0223          12519 	.byte	2,35
000005a6 1c            12520 	.byte	28

                                                                      Page 222
                                                              C:\Users\NIKHIL~1.PAT\AppData\Local\Temp\gh_000aeoo1.s
000005a7 01            12521 	.byte	1
                       12522 
                       12523 .LDW_4bae8f0:
000005a8 23            12524 	.byte	35
000005a9 4c4544475f45  12525 	.strz	"LEDG_Error"
000005af 72726f7200 
000005b4 5a            12526 	.byte	90
000005b5 0d            12527 	.byte	13
000005b6 08            12528 	.byte	8
000005b7 00000000*     12529 	.word	.LDW_4bb2d40
000005bb 0223          12530 	.byte	2,35
000005bd 20            12531 	.byte	32
000005be 01            12532 	.byte	1
                       12533 
                       12534 .LDW_4bae938:
000005bf 23            12535 	.byte	35
000005c0 4c4544425f45  12536 	.strz	"LEDB_Error"
000005c6 72726f7200 
000005cb 5b            12537 	.byte	91
000005cc 0d            12538 	.byte	13
000005cd 08            12539 	.byte	8
000005ce 00000000*     12540 	.word	.LDW_4bb2d40
000005d2 0223          12541 	.byte	2,35
000005d4 24            12542 	.byte	36
000005d5 01            12543 	.byte	1
                       12544 
                       12545 .LDW_4bae980:
000005d6 23            12546 	.byte	35
000005d7 4c454452696e  12547 	.strz	"LEDRingMask"
000005dd 674d61736b00 
000005e3 5c            12548 	.byte	92
000005e4 0d            12549 	.byte	13
000005e5 08            12550 	.byte	8
000005e6 00000000*     12551 	.word	.LDW_47f44e8
000005ea 0223          12552 	.byte	2,35
000005ec 28            12553 	.byte	40
000005ed 01            12554 	.byte	1
                       12555 
                       12556 .LDW_4bae9c8:
000005ee 23            12557 	.byte	35
000005ef 446973706c61  12558 	.strz	"DisplayDetected"
000005f5 794465746563 
000005fb 74656400 
000005ff 5d            12559 	.byte	93
00000600 0d            12560 	.byte	13
00000601 08            12561 	.byte	8
00000602 00000000*     12562 	.word	.LDW_47f4438
00000606 0223          12563 	.byte	2,35
00000608 2c            12564 	.byte	44
00000609 01            12565 	.byte	1
                       12566 
0000060a 00            12567 	.byte	0
                       12568 
                       12569 .LDW_4bb3160:
0000060b 28            12570 	.byte	40
0000060c 725f53797374  12571 	.strz	"r_System_s"
00000612 656d5f7300 
00000617 5e            12572 	.byte	94
00000618 02            12573 	.byte	2
00000619 08            12574 	.byte	8
0000061a 00000000*     12575 	.word	.LDW_4bb3108

                                                                      Page 223
                                                              C:\Users\NIKHIL~1.PAT\AppData\Local\Temp\gh_000aeoo1.s
                       12576 
                       12577 .LDW_4bb4e20:
0000061e 2e            12578 	.byte	46
0000061f 4c45447300    12579 	.strz	"LEDs"
00000624 3f            12580 	.byte	63
00000625 06            12581 	.byte	6
00000626 10            12582 	.byte	16
00000627 04            12583 	.byte	4
00000628 01            12584 	.byte	1
                       12585 
                       12586 .LDW_4bb40a8:
00000629 2d            12587 	.byte	45
0000062a 4c45445200    12588 	.strz	"LEDR"
0000062f 41            12589 	.byte	65
00000630 05            12590 	.byte	5
00000631 10            12591 	.byte	16
00000632 00            12592 	.byte	0
                       12593 
                       12594 .LDW_4bb40e8:
00000633 2d            12595 	.byte	45
00000634 4c45444700    12596 	.strz	"LEDG"
00000639 42            12597 	.byte	66
0000063a 05            12598 	.byte	5
0000063b 10            12599 	.byte	16
0000063c 01            12600 	.byte	1
                       12601 
                       12602 .LDW_4bb4128:
0000063d 2d            12603 	.byte	45
0000063e 4c45444200    12604 	.strz	"LEDB"
00000643 43            12605 	.byte	67
00000644 05            12606 	.byte	5
00000645 10            12607 	.byte	16
00000646 02            12608 	.byte	2
                       12609 
                       12610 .LDW_4bb4168:
00000647 2d            12611 	.byte	45
00000648 4c45443100    12612 	.strz	"LED1"
0000064d 44            12613 	.byte	68
0000064e 05            12614 	.byte	5
0000064f 10            12615 	.byte	16
00000650 03            12616 	.byte	3
                       12617 
                       12618 .LDW_4bb41a8:
00000651 2d            12619 	.byte	45
00000652 4c45443200    12620 	.strz	"LED2"
00000657 45            12621 	.byte	69
00000658 05            12622 	.byte	5
00000659 10            12623 	.byte	16
0000065a 04            12624 	.byte	4
                       12625 
0000065b 00            12626 	.byte	0
                       12627 
                       12628 .LDW_4776088:
0000065c 2e            12629 	.byte	46
0000065d 00            12630 	.byte	0
0000065e 40            12631 	.byte	64
0000065f 01            12632 	.byte	1
00000660 14            12633 	.byte	20
00000661 04            12634 	.byte	4
00000662 01            12635 	.byte	1
                       12636 

                                                                      Page 224
                                                              C:\Users\NIKHIL~1.PAT\AppData\Local\Temp\gh_000aeoo1.s
                       12637 .LDW_47760d8:
00000663 2d            12638 	.byte	45
00000664 525f42555454  12639 	.strz	"R_BUTTON_NOT_PRESSED"
0000066a 4f4e5f4e4f54 
00000670 5f5052455353 
00000676 454400 
00000679 41            12640 	.byte	65
0000067a 05            12641 	.byte	5
0000067b 14            12642 	.byte	20
0000067c 00            12643 	.byte	0
                       12644 
                       12645 .LDW_4776118:
0000067d 2d            12646 	.byte	45
0000067e 525f42555454  12647 	.strz	"R_BUTTON_PRESSED"
00000684 4f4e5f505245 
0000068a 5353454400 
0000068f 42            12648 	.byte	66
00000690 05            12649 	.byte	5
00000691 14            12650 	.byte	20
00000692 01            12651 	.byte	1
                       12652 
                       12653 .LDW_4776158:
00000693 2d            12654 	.byte	45
00000694 525f42555454  12655 	.strz	"R_BUTTON_PRESSED_SHORT"
0000069a 4f4e5f505245 
000006a0 535345445f53 
000006a6 484f525400 
000006ab 43            12656 	.byte	67
000006ac 05            12657 	.byte	5
000006ad 14            12658 	.byte	20
000006ae 02            12659 	.byte	2
                       12660 
                       12661 .LDW_3db2998:
000006af 2d            12662 	.byte	45
000006b0 525f42555454  12663 	.strz	"R_BUTTON_PRESSED_LONG"
000006b6 4f4e5f505245 
000006bc 535345445f4c 
000006c2 4f4e4700 
000006c6 44            12664 	.byte	68
000006c7 05            12665 	.byte	5
000006c8 14            12666 	.byte	20
000006c9 03            12667 	.byte	3
                       12668 
000006ca 00            12669 	.byte	0
                       12670 
                       12671 .LDW_47f4960:
000006cb 28            12672 	.byte	40
000006cc 725f42757474  12673 	.strz	"r_Button_t"
000006d2 6f6e5f7400 
000006d7 45            12674 	.byte	69
000006d8 02            12675 	.byte	2
000006d9 14            12676 	.byte	20
000006da 00000000*     12677 	.word	.LDW_4776088
                       12678 
                       12679 .LDW_4bb4e70:
000006de 2e            12680 	.byte	46
000006df 41506f727473  12681 	.strz	"APorts"
000006e5 00 
000006e6 40            12682 	.byte	64
000006e7 06            12683 	.byte	6
000006e8 19            12684 	.byte	25

                                                                      Page 225
                                                              C:\Users\NIKHIL~1.PAT\AppData\Local\Temp\gh_000aeoo1.s
000006e9 04            12685 	.byte	4
000006ea 01            12686 	.byte	1
                       12687 
                       12688 .LDW_4bb41e8:
000006eb 2d            12689 	.byte	45
000006ec 4150305f3000  12690 	.strz	"AP0_0"
000006f2 42            12691 	.byte	66
000006f3 05            12692 	.byte	5
000006f4 19            12693 	.byte	25
000006f5 00            12694 	.byte	0
                       12695 
                       12696 .LDW_4bb4228:
000006f6 2d            12697 	.byte	45
000006f7 4150305f3100  12698 	.strz	"AP0_1"
000006fd 43            12699 	.byte	67
000006fe 05            12700 	.byte	5
000006ff 19            12701 	.byte	25
00000700 01            12702 	.byte	1
                       12703 
                       12704 .LDW_4bb4268:
00000701 2d            12705 	.byte	45
00000702 4150305f3200  12706 	.strz	"AP0_2"
00000708 44            12707 	.byte	68
00000709 05            12708 	.byte	5
0000070a 19            12709 	.byte	25
0000070b 02            12710 	.byte	2
                       12711 
                       12712 .LDW_4bb42a8:
0000070c 2d            12713 	.byte	45
0000070d 4150305f3300  12714 	.strz	"AP0_3"
00000713 45            12715 	.byte	69
00000714 05            12716 	.byte	5
00000715 19            12717 	.byte	25
00000716 03            12718 	.byte	3
                       12719 
                       12720 .LDW_4bb42e8:
00000717 2d            12721 	.byte	45
00000718 4150305f3400  12722 	.strz	"AP0_4"
0000071e 46            12723 	.byte	70
0000071f 05            12724 	.byte	5
00000720 19            12725 	.byte	25
00000721 04            12726 	.byte	4
                       12727 
                       12728 .LDW_4bb4328:
00000722 2d            12729 	.byte	45
00000723 4150305f3500  12730 	.strz	"AP0_5"
00000729 47            12731 	.byte	71
0000072a 05            12732 	.byte	5
0000072b 19            12733 	.byte	25
0000072c 05            12734 	.byte	5
                       12735 
                       12736 .LDW_4bb4368:
0000072d 2d            12737 	.byte	45
0000072e 4150305f3600  12738 	.strz	"AP0_6"
00000734 48            12739 	.byte	72
00000735 05            12740 	.byte	5
00000736 19            12741 	.byte	25
00000737 06            12742 	.byte	6
                       12743 
                       12744 .LDW_4bb43a8:
00000738 2d            12745 	.byte	45

                                                                      Page 226
                                                              C:\Users\NIKHIL~1.PAT\AppData\Local\Temp\gh_000aeoo1.s
00000739 4150305f3700  12746 	.strz	"AP0_7"
0000073f 49            12747 	.byte	73
00000740 05            12748 	.byte	5
00000741 19            12749 	.byte	25
00000742 07            12750 	.byte	7
                       12751 
                       12752 .LDW_4bb43e8:
00000743 2d            12753 	.byte	45
00000744 4150305f3800  12754 	.strz	"AP0_8"
0000074a 4a            12755 	.byte	74
0000074b 05            12756 	.byte	5
0000074c 19            12757 	.byte	25
0000074d 08            12758 	.byte	8
                       12759 
                       12760 .LDW_4bb4428:
0000074e 2d            12761 	.byte	45
0000074f 4150305f3900  12762 	.strz	"AP0_9"
00000755 4b            12763 	.byte	75
00000756 05            12764 	.byte	5
00000757 19            12765 	.byte	25
00000758 09            12766 	.byte	9
                       12767 
                       12768 .LDW_4bb4468:
00000759 2d            12769 	.byte	45
0000075a 4150305f3130  12770 	.strz	"AP0_10"
00000760 00 
00000761 4c            12771 	.byte	76
00000762 05            12772 	.byte	5
00000763 19            12773 	.byte	25
00000764 0a            12774 	.byte	10
                       12775 
                       12776 .LDW_4bb44a8:
00000765 2d            12777 	.byte	45
00000766 4150305f3131  12778 	.strz	"AP0_11"
0000076c 00 
0000076d 4d            12779 	.byte	77
0000076e 05            12780 	.byte	5
0000076f 19            12781 	.byte	25
00000770 0b            12782 	.byte	11
                       12783 
                       12784 .LDW_4bb44e8:
00000771 2d            12785 	.byte	45
00000772 4150305f3132  12786 	.strz	"AP0_12"
00000778 00 
00000779 4e            12787 	.byte	78
0000077a 05            12788 	.byte	5
0000077b 19            12789 	.byte	25
0000077c 0c            12790 	.byte	12
                       12791 
                       12792 .LDW_4bb4528:
0000077d 2d            12793 	.byte	45
0000077e 4150305f3133  12794 	.strz	"AP0_13"
00000784 00 
00000785 4f            12795 	.byte	79
00000786 05            12796 	.byte	5
00000787 19            12797 	.byte	25
00000788 0d            12798 	.byte	13
                       12799 
                       12800 .LDW_4bb4568:
00000789 2d            12801 	.byte	45
0000078a 4150305f3134  12802 	.strz	"AP0_14"

                                                                      Page 227
                                                              C:\Users\NIKHIL~1.PAT\AppData\Local\Temp\gh_000aeoo1.s
00000790 00 
00000791 50            12803 	.byte	80
00000792 05            12804 	.byte	5
00000793 19            12805 	.byte	25
00000794 0e            12806 	.byte	14
                       12807 
                       12808 .LDW_4bb45a8:
00000795 2d            12809 	.byte	45
00000796 4150305f3135  12810 	.strz	"AP0_15"
0000079c 00 
0000079d 51            12811 	.byte	81
0000079e 05            12812 	.byte	5
0000079f 19            12813 	.byte	25
000007a0 0f            12814 	.byte	15
                       12815 
000007a1 00            12816 	.byte	0
                       12817 
                       12818 .LDW_4bb35d8:
000007a2 04            12819 	.byte	4
000007a3 52656e657361  12820 	.strz	"RenesasPicture"
000007a9 735069637475 
000007af 726500 
000007b2 02            12821 	.byte	2
000007b3 0f            12822 	.byte	15
000007b4 0d            12823 	.byte	13
000007b5 00000000*     12824 	.word	.LDW_4bb0160
000007b9 01            12825 	.byte	1
000007ba 00            12826 	.byte	0
000007bb 0503          12827 	.byte	5,3
000007bd 00000000*     12828 	.word	_RenesasPicture
                       12829 
                       12830 	.section	.debug_abbrev
000000be 04            12831 	.byte	4
000000bf 34            12832 	.byte	52
000000c0 00            12833 	.byte	0
000000c1 0308          12834 	.byte	3,8
000000c3 3b0f          12835 	.byte	59,15
000000c5 390f          12836 	.byte	57,15
000000c7 3a0f          12837 	.byte	58,15
000000c9 4910          12838 	.byte	73,16
000000cb 3f0c          12839 	.byte	63,12
000000cd 3c0c          12840 	.byte	60,12
000000cf 020a          12841 	.byte	2,10
000000d1 0000          12842 	.byte	0,0
                       12843 
                       12844 	.section	.debug_info
                       12845 .LDW_4bb3630:
000007c1 04            12846 	.byte	4
000007c2 675f53797374  12847 	.strz	"g_SystemStatus"
000007c8 656d53746174 
000007ce 757300 
000007d1 70            12848 	.byte	112
000007d2 0e            12849 	.byte	14
000007d3 01            12850 	.byte	1
000007d4 00000000*     12851 	.word	.LDW_4bb3160
000007d8 01            12852 	.byte	1
000007d9 00            12853 	.byte	0
000007da 0503          12854 	.byte	5,3
000007dc 00000000*     12855 	.word	_g_SystemStatus
                       12856 
                       12857 .LDW_4bb36e0:

                                                                      Page 228
                                                              C:\Users\NIKHIL~1.PAT\AppData\Local\Temp\gh_000aeoo1.s
000007e0 04            12858 	.byte	4
000007e1 675f4c454452  12859 	.strz	"g_LEDRingPattern"
000007e7 696e67506174 
000007ed 7465726e00 
000007f2 8101          12860 	.byte	129,1
000007f4 10            12861 	.byte	16
000007f5 01            12862 	.byte	1
000007f6 00000000*     12863 	.word	.LDW_4bb01e8
000007fa 01            12864 	.byte	1
000007fb 00            12865 	.byte	0
000007fc 0503          12866 	.byte	5,3
000007fe 00000000*     12867 	.word	_g_LEDRingPattern
                       12868 
                       12869 .LDW_4bb3738:
00000802 04            12870 	.byte	4
00000803 675f46697865  12871 	.strz	"g_FixedRGBColors"
00000809 64524742436f 
0000080f 6c6f727300 
00000814 8701          12872 	.byte	135,1
00000816 10            12873 	.byte	16
00000817 01            12874 	.byte	1
00000818 00000000*     12875 	.word	.LDW_4bb02f8
0000081c 01            12876 	.byte	1
0000081d 00            12877 	.byte	0
0000081e 0503          12878 	.byte	5,3
00000820 00000000*     12879 	.word	_g_FixedRGBColors
                       12880 
                       12881 .LDW_4bb3790:
00000824 04            12882 	.byte	4
00000825 675f506f7431  12883 	.strz	"g_Pot1Value"
0000082b 56616c756500 
00000831 8b01          12884 	.byte	139,1
00000833 0a            12885 	.byte	10
00000834 01            12886 	.byte	1
00000835 00000000*     12887 	.word	.LDW_47f4438
00000839 01            12888 	.byte	1
0000083a 00            12889 	.byte	0
0000083b 0503          12890 	.byte	5,3
0000083d 00000000*     12891 	.word	_g_Pot1Value
                       12892 
                       12893 .LDW_4bb37e8:
00000841 04            12894 	.byte	4
00000842 675f456e6331  12895 	.strz	"g_Enc1Value"
00000848 56616c756500 
0000084e 8b01          12896 	.byte	139,1
00000850 17            12897 	.byte	23
00000851 01            12898 	.byte	1
00000852 00000000*     12899 	.word	.LDW_47f4438
00000856 01            12900 	.byte	1
00000857 00            12901 	.byte	0
00000858 0503          12902 	.byte	5,3
0000085a 00000000*     12903 	.word	_g_Enc1Value
                       12904 
                       12905 .LDW_4bb3840:
0000085e 04            12906 	.byte	4
0000085f 675f456e6331  12907 	.strz	"g_Enc1Compare"
00000865 436f6d706172 
0000086b 6500 
0000086d 8b01          12908 	.byte	139,1
0000086f 24            12909 	.byte	36
00000870 01            12910 	.byte	1

                                                                      Page 229
                                                              C:\Users\NIKHIL~1.PAT\AppData\Local\Temp\gh_000aeoo1.s
00000871 00000000*     12911 	.word	.LDW_47f4438
00000875 01            12912 	.byte	1
00000876 00            12913 	.byte	0
00000877 0503          12914 	.byte	5,3
00000879 00000000*     12915 	.word	_g_Enc1Compare
                       12916 
                       12917 .LDW_4bb3898:
0000087d 04            12918 	.byte	4
0000087e 675f53746174  12919 	.strz	"g_StatusText"
00000884 757354657874 
0000088a 00 
0000088b 8e01          12920 	.byte	142,1
0000088d 08            12921 	.byte	8
0000088e 01            12922 	.byte	1
0000088f 00000000*     12923 	.word	.LDW_4bb0380
00000893 01            12924 	.byte	1
00000894 00            12925 	.byte	0
00000895 0503          12926 	.byte	5,3
00000897 00000000*     12927 	.word	_g_StatusText
                       12928 
                       12929 .LDW_4bb70a8:
0000089b 16            12930 	.byte	22
0000089c 7072696e7466  12931 	.strz	"printf"
000008a2 00 
000008a3 d401          12932 	.byte	212,1
000008a5 05            12933 	.byte	5
000008a6 09            12934 	.byte	9
000008a7 00000000*     12935 	.word	.LDW_4832700
000008ab 01            12936 	.byte	1
000008ac 00            12937 	.byte	0
000008ad 01            12938 	.byte	1
000008ae 01            12939 	.byte	1
000008af 00            12940 	.byte	0
000008b0 01            12941 	.byte	1
                       12942 
                       12943 	.section	.debug_abbrev
000000d3 16            12944 	.byte	22
000000d4 2e            12945 	.byte	46
000000d5 01            12946 	.byte	1
000000d6 0308          12947 	.byte	3,8
000000d8 3b0f          12948 	.byte	59,15
000000da 390f          12949 	.byte	57,15
000000dc 3a0f          12950 	.byte	58,15
000000de 4910          12951 	.byte	73,16
000000e0 3c0c          12952 	.byte	60,12
000000e2 200b          12953 	.byte	32,11
000000e4 3f0c          12954 	.byte	63,12
000000e6 320b          12955 	.byte	50,11
000000e8 4c0b          12956 	.byte	76,11
000000ea 270c          12957 	.byte	39,12
000000ec 0000          12958 	.byte	0,0
                       12959 
                       12960 	.section	.debug_info
000008b1 00            12961 	.byte	0
                       12962 
                       12963 .LDW_4bb7270:
000008b2 16            12964 	.byte	22
000008b3 737072696e74  12965 	.strz	"sprintf"
000008b9 6600 
000008bb d701          12966 	.byte	215,1
000008bd 05            12967 	.byte	5

                                                                      Page 230
                                                              C:\Users\NIKHIL~1.PAT\AppData\Local\Temp\gh_000aeoo1.s
000008be 09            12968 	.byte	9
000008bf 00000000*     12969 	.word	.LDW_4832700
000008c3 01            12970 	.byte	1
000008c4 00            12971 	.byte	0
000008c5 01            12972 	.byte	1
000008c6 01            12973 	.byte	1
000008c7 00            12974 	.byte	0
000008c8 01            12975 	.byte	1
                       12976 
000008c9 00            12977 	.byte	0
                       12978 
                       12979 .LDW_4bbabe8:
000008ca 15            12980 	.byte	21
000008cb 525f43414e5f  12981 	.strz	"R_CAN_Init"
000008d1 496e697400 
000008d6 3f            12982 	.byte	63
000008d7 06            12983 	.byte	6
000008d8 0e            12984 	.byte	14
000008d9 01            12985 	.byte	1
000008da 00            12986 	.byte	0
000008db 01            12987 	.byte	1
000008dc 01            12988 	.byte	1
000008dd 00            12989 	.byte	0
000008de 01            12990 	.byte	1
                       12991 
                       12992 	.section	.debug_abbrev
000000ee 15            12993 	.byte	21
000000ef 2e            12994 	.byte	46
000000f0 01            12995 	.byte	1
000000f1 0308          12996 	.byte	3,8
000000f3 3b0f          12997 	.byte	59,15
000000f5 390f          12998 	.byte	57,15
000000f7 3a0f          12999 	.byte	58,15
000000f9 3c0c          13000 	.byte	60,12
000000fb 200b          13001 	.byte	32,11
000000fd 3f0c          13002 	.byte	63,12
000000ff 320b          13003 	.byte	50,11
00000101 4c0b          13004 	.byte	76,11
00000103 270c          13005 	.byte	39,12
00000105 0000          13006 	.byte	0,0
                       13007 
                       13008 	.section	.debug_info
000008df 00            13009 	.byte	0
                       13010 
                       13011 .LDW_4bbac80:
000008e0 15            13012 	.byte	21
000008e1 525f43414e5f  13013 	.strz	"R_CAN_Deinit"
000008e7 4465696e6974 
000008ed 00 
000008ee 40            13014 	.byte	64
000008ef 06            13015 	.byte	6
000008f0 0e            13016 	.byte	14
000008f1 01            13017 	.byte	1
000008f2 00            13018 	.byte	0
000008f3 01            13019 	.byte	1
000008f4 01            13020 	.byte	1
000008f5 00            13021 	.byte	0
000008f6 01            13022 	.byte	1
                       13023 
000008f7 00            13024 	.byte	0
                       13025 

                                                                      Page 231
                                                              C:\Users\NIKHIL~1.PAT\AppData\Local\Temp\gh_000aeoo1.s
                       13026 .LDW_4bbad18:
000008f8 16            13027 	.byte	22
000008f9 525f43414e5f  13028 	.strz	"R_CAN_Test"
000008ff 5465737400 
00000904 41            13029 	.byte	65
00000905 0b            13030 	.byte	11
00000906 0e            13031 	.byte	14
00000907 00000000*     13032 	.word	.LDW_4bb2d40
0000090b 01            13033 	.byte	1
0000090c 00            13034 	.byte	0
0000090d 01            13035 	.byte	1
0000090e 01            13036 	.byte	1
0000090f 00            13037 	.byte	0
00000910 01            13038 	.byte	1
                       13039 
00000911 00            13040 	.byte	0
                       13041 
                       13042 .LDW_4bbaee0:
00000912 15            13043 	.byte	21
00000913 525f44495350  13044 	.strz	"R_DISPLAY_DrawImg"
00000919 4c41595f4472 
0000091f 6177496d6700 
00000925 71            13045 	.byte	113
00000926 06            13046 	.byte	6
00000927 0f            13047 	.byte	15
00000928 01            13048 	.byte	1
00000929 00            13049 	.byte	0
0000092a 01            13050 	.byte	1
0000092b 01            13051 	.byte	1
0000092c 00            13052 	.byte	0
0000092d 01            13053 	.byte	1
                       13054 
0000092e 00            13055 	.byte	0
                       13056 
                       13057 .LDW_4bbb010:
0000092f 16            13058 	.byte	22
00000930 525f44495350  13059 	.strz	"R_DISPLAY_Init"
00000936 4c41595f496e 
0000093c 697400 
0000093f 73            13060 	.byte	115
00000940 0b            13061 	.byte	11
00000941 0f            13062 	.byte	15
00000942 00000000*     13063 	.word	.LDW_4bb2d40
00000946 01            13064 	.byte	1
00000947 00            13065 	.byte	0
00000948 01            13066 	.byte	1
00000949 01            13067 	.byte	1
0000094a 00            13068 	.byte	0
0000094b 01            13069 	.byte	1
                       13070 
0000094c 00            13071 	.byte	0
                       13072 
                       13073 .LDW_4bbb0a8:
0000094d 15            13074 	.byte	21
0000094e 525f44495350  13075 	.strz	"R_DISPLAY_ResetRelease"
00000954 4c41595f5265 
0000095a 73657452656c 
00000960 6561736500 
00000965 74            13076 	.byte	116
00000966 06            13077 	.byte	6
00000967 0f            13078 	.byte	15

                                                                      Page 232
                                                              C:\Users\NIKHIL~1.PAT\AppData\Local\Temp\gh_000aeoo1.s
00000968 01            13079 	.byte	1
00000969 00            13080 	.byte	0
0000096a 01            13081 	.byte	1
0000096b 01            13082 	.byte	1
0000096c 00            13083 	.byte	0
0000096d 01            13084 	.byte	1
                       13085 
0000096e 00            13086 	.byte	0
                       13087 
                       13088 .LDW_4bbb3a0:
0000096f 15            13089 	.byte	21
00000970 525f4c45445f  13090 	.strz	"R_LED_PwmInit"
00000976 50776d496e69 
0000097c 7400 
0000097e 4e            13091 	.byte	78
0000097f 06            13092 	.byte	6
00000980 10            13093 	.byte	16
00000981 01            13094 	.byte	1
00000982 00            13095 	.byte	0
00000983 01            13096 	.byte	1
00000984 01            13097 	.byte	1
00000985 00            13098 	.byte	0
00000986 01            13099 	.byte	1
                       13100 
00000987 00            13101 	.byte	0
                       13102 
                       13103 .LDW_4bbb438:
00000988 15            13104 	.byte	21
00000989 525f4c45445f  13105 	.strz	"R_LED_SetPwmDuty"
0000098f 53657450776d 
00000995 4475747900 
0000099a 4f            13106 	.byte	79
0000099b 06            13107 	.byte	6
0000099c 10            13108 	.byte	16
0000099d 01            13109 	.byte	1
0000099e 00            13110 	.byte	0
0000099f 01            13111 	.byte	1
000009a0 01            13112 	.byte	1
000009a1 00            13113 	.byte	0
000009a2 01            13114 	.byte	1
                       13115 
000009a3 00            13116 	.byte	0
                       13117 
                       13118 .LDW_4bbb4d0:
000009a4 15            13119 	.byte	21
000009a5 525f4c45445f  13120 	.strz	"R_LED_PwmStart"
000009ab 50776d537461 
000009b1 727400 
000009b4 50            13121 	.byte	80
000009b5 06            13122 	.byte	6
000009b6 10            13123 	.byte	16
000009b7 01            13124 	.byte	1
000009b8 00            13125 	.byte	0
000009b9 01            13126 	.byte	1
000009ba 01            13127 	.byte	1
000009bb 00            13128 	.byte	0
000009bc 01            13129 	.byte	1
                       13130 
000009bd 00            13131 	.byte	0
                       13132 
                       13133 .LDW_4bbb568:

                                                                      Page 233
                                                              C:\Users\NIKHIL~1.PAT\AppData\Local\Temp\gh_000aeoo1.s
000009be 15            13134 	.byte	21
000009bf 525f4c45445f  13135 	.strz	"R_LED_PwmStop"
000009c5 50776d53746f 
000009cb 7000 
000009cd 51            13136 	.byte	81
000009ce 06            13137 	.byte	6
000009cf 10            13138 	.byte	16
000009d0 01            13139 	.byte	1
000009d1 00            13140 	.byte	0
000009d2 01            13141 	.byte	1
000009d3 01            13142 	.byte	1
000009d4 00            13143 	.byte	0
000009d5 01            13144 	.byte	1
                       13145 
000009d6 00            13146 	.byte	0
                       13147 
                       13148 .LDW_4bbb600:
000009d7 15            13149 	.byte	21
000009d8 525f4c45445f  13150 	.strz	"R_LED_RgbDiagInit"
000009de 526762446961 
000009e4 67496e697400 
000009ea 52            13151 	.byte	82
000009eb 06            13152 	.byte	6
000009ec 10            13153 	.byte	16
000009ed 01            13154 	.byte	1
000009ee 00            13155 	.byte	0
000009ef 01            13156 	.byte	1
000009f0 01            13157 	.byte	1
000009f1 00            13158 	.byte	0
000009f2 01            13159 	.byte	1
                       13160 
000009f3 00            13161 	.byte	0
                       13162 
                       13163 .LDW_4bbb7c8:
000009f4 15            13164 	.byte	21
000009f5 525f4c45445f  13165 	.strz	"R_LED_RingInit"
000009fb 52696e67496e 
00000a01 697400 
00000a04 55            13166 	.byte	85
00000a05 06            13167 	.byte	6
00000a06 10            13168 	.byte	16
00000a07 01            13169 	.byte	1
00000a08 00            13170 	.byte	0
00000a09 01            13171 	.byte	1
00000a0a 01            13172 	.byte	1
00000a0b 00            13173 	.byte	0
00000a0c 01            13174 	.byte	1
                       13175 
00000a0d 00            13176 	.byte	0
                       13177 
                       13178 .LDW_4bbb860:
00000a0e 15            13179 	.byte	21
00000a0f 525f4c45445f  13180 	.strz	"R_LED_RingOutputEnable"
00000a15 52696e674f75 
00000a1b 74707574456e 
00000a21 61626c6500 
00000a26 56            13181 	.byte	86
00000a27 06            13182 	.byte	6
00000a28 10            13183 	.byte	16
00000a29 01            13184 	.byte	1
00000a2a 00            13185 	.byte	0

                                                                      Page 234
                                                              C:\Users\NIKHIL~1.PAT\AppData\Local\Temp\gh_000aeoo1.s
00000a2b 01            13186 	.byte	1
00000a2c 01            13187 	.byte	1
00000a2d 00            13188 	.byte	0
00000a2e 01            13189 	.byte	1
                       13190 
00000a2f 00            13191 	.byte	0
                       13192 
                       13193 .LDW_4bbb8f8:
00000a30 15            13194 	.byte	21
00000a31 525f4c45445f  13195 	.strz	"R_LED_RingOutputDisable"
00000a37 52696e674f75 
00000a3d 747075744469 
00000a43 7361626c6500 
00000a49 57            13196 	.byte	87
00000a4a 06            13197 	.byte	6
00000a4b 10            13198 	.byte	16
00000a4c 01            13199 	.byte	1
00000a4d 00            13200 	.byte	0
00000a4e 01            13201 	.byte	1
00000a4f 01            13202 	.byte	1
00000a50 00            13203 	.byte	0
00000a51 01            13204 	.byte	1
                       13205 
00000a52 00            13206 	.byte	0
                       13207 
                       13208 .LDW_4bbb990:
00000a53 15            13209 	.byte	21
00000a54 525f4c45445f  13210 	.strz	"R_LED_RingUpdate"
00000a5a 52696e675570 
00000a60 6461746500 
00000a65 58            13211 	.byte	88
00000a66 06            13212 	.byte	6
00000a67 10            13213 	.byte	16
00000a68 01            13214 	.byte	1
00000a69 00            13215 	.byte	0
00000a6a 01            13216 	.byte	1
00000a6b 01            13217 	.byte	1
00000a6c 00            13218 	.byte	0
00000a6d 01            13219 	.byte	1
                       13220 
00000a6e 00            13221 	.byte	0
                       13222 
                       13223 .LDW_4bbba28:
00000a6f 15            13224 	.byte	21
00000a70 525f4c494e5f  13225 	.strz	"R_LIN_Init"
00000a76 496e697400 
00000a7b 44            13226 	.byte	68
00000a7c 06            13227 	.byte	6
00000a7d 11            13228 	.byte	17
00000a7e 01            13229 	.byte	1
00000a7f 00            13230 	.byte	0
00000a80 01            13231 	.byte	1
00000a81 01            13232 	.byte	1
00000a82 00            13233 	.byte	0
00000a83 01            13234 	.byte	1
                       13235 
00000a84 00            13236 	.byte	0
                       13237 
                       13238 .LDW_4bbbac0:
00000a85 15            13239 	.byte	21
00000a86 525f4c494e5f  13240 	.strz	"R_LIN_Deinit"

                                                                      Page 235
                                                              C:\Users\NIKHIL~1.PAT\AppData\Local\Temp\gh_000aeoo1.s
00000a8c 4465696e6974 
00000a92 00 
00000a93 45            13241 	.byte	69
00000a94 06            13242 	.byte	6
00000a95 11            13243 	.byte	17
00000a96 01            13244 	.byte	1
00000a97 00            13245 	.byte	0
00000a98 01            13246 	.byte	1
00000a99 01            13247 	.byte	1
00000a9a 00            13248 	.byte	0
00000a9b 01            13249 	.byte	1
                       13250 
00000a9c 00            13251 	.byte	0
                       13252 
                       13253 .LDW_4bbbb58:
00000a9d 16            13254 	.byte	22
00000a9e 525f4c494e5f  13255 	.strz	"R_LIN_Test"
00000aa4 5465737400 
00000aa9 46            13256 	.byte	70
00000aaa 0b            13257 	.byte	11
00000aab 11            13258 	.byte	17
00000aac 00000000*     13259 	.word	.LDW_4bb2d40
00000ab0 01            13260 	.byte	1
00000ab1 00            13261 	.byte	0
00000ab2 01            13262 	.byte	1
00000ab3 01            13263 	.byte	1
00000ab4 00            13264 	.byte	0
00000ab5 01            13265 	.byte	1
                       13266 
00000ab6 00            13267 	.byte	0
                       13268 
                       13269 .LDW_4bbbdb8:
00000ab7 15            13270 	.byte	21
00000ab8 525f53595354  13271 	.strz	"R_SYSTEM_PrepareDeepSTOP"
00000abe 454d5f507265 
00000ac4 706172654465 
00000aca 657053544f50 
00000ad0 00 
00000ad1 5c            13272 	.byte	92
00000ad2 06            13273 	.byte	6
00000ad3 12            13274 	.byte	18
00000ad4 01            13275 	.byte	1
00000ad5 00            13276 	.byte	0
00000ad6 01            13277 	.byte	1
00000ad7 01            13278 	.byte	1
00000ad8 00            13279 	.byte	0
00000ad9 01            13280 	.byte	1
                       13281 
00000ada 00            13282 	.byte	0
                       13283 
                       13284 .LDW_4bbd6d8:
00000adb 15            13285 	.byte	21
00000adc 525f53595354  13286 	.strz	"R_SYSTEM_TimerInit"
00000ae2 454d5f54696d 
00000ae8 6572496e6974 
00000aee 00 
00000aef 5d            13287 	.byte	93
00000af0 06            13288 	.byte	6
00000af1 12            13289 	.byte	18
00000af2 01            13290 	.byte	1
00000af3 00            13291 	.byte	0

                                                                      Page 236
                                                              C:\Users\NIKHIL~1.PAT\AppData\Local\Temp\gh_000aeoo1.s
00000af4 01            13292 	.byte	1
00000af5 01            13293 	.byte	1
00000af6 00            13294 	.byte	0
00000af7 01            13295 	.byte	1
                       13296 
00000af8 00            13297 	.byte	0
                       13298 
                       13299 .LDW_4bbd770:
00000af9 15            13300 	.byte	21
00000afa 525f53595354  13301 	.strz	"R_SYSTEM_TimerTick"
00000b00 454d5f54696d 
00000b06 65725469636b 
00000b0c 00 
00000b0d 5e            13302 	.byte	94
00000b0e 06            13303 	.byte	6
00000b0f 12            13304 	.byte	18
00000b10 01            13305 	.byte	1
00000b11 00            13306 	.byte	0
00000b12 01            13307 	.byte	1
00000b13 01            13308 	.byte	1
00000b14 00            13309 	.byte	0
00000b15 01            13310 	.byte	1
                       13311 
00000b16 00            13312 	.byte	0
                       13313 
                       13314 .LDW_4bbd808:
00000b17 15            13315 	.byte	21
00000b18 525f53595354  13316 	.strz	"R_SYSTEM_TimerStart"
00000b1e 454d5f54696d 
00000b24 657253746172 
00000b2a 7400 
00000b2c 5f            13317 	.byte	95
00000b2d 06            13318 	.byte	6
00000b2e 12            13319 	.byte	18
00000b2f 01            13320 	.byte	1
00000b30 00            13321 	.byte	0
00000b31 01            13322 	.byte	1
00000b32 01            13323 	.byte	1
00000b33 00            13324 	.byte	0
00000b34 01            13325 	.byte	1
                       13326 
00000b35 00            13327 	.byte	0
                       13328 
                       13329 .LDW_4bbd8a0:
00000b36 15            13330 	.byte	21
00000b37 525f53595354  13331 	.strz	"R_SYSTEM_TimerStop"
00000b3d 454d5f54696d 
00000b43 657253746f70 
00000b49 00 
00000b4a 60            13332 	.byte	96
00000b4b 06            13333 	.byte	6
00000b4c 12            13334 	.byte	18
00000b4d 01            13335 	.byte	1
00000b4e 00            13336 	.byte	0
00000b4f 01            13337 	.byte	1
00000b50 01            13338 	.byte	1
00000b51 00            13339 	.byte	0
00000b52 01            13340 	.byte	1
                       13341 
00000b53 00            13342 	.byte	0
                       13343 

                                                                      Page 237
                                                              C:\Users\NIKHIL~1.PAT\AppData\Local\Temp\gh_000aeoo1.s
                       13344 .LDW_4bbda68:
00000b54 15            13345 	.byte	21
00000b55 525f55415254  13346 	.strz	"R_UART_Init"
00000b5b 5f496e697400 
00000b61 3f            13347 	.byte	63
00000b62 06            13348 	.byte	6
00000b63 13            13349 	.byte	19
00000b64 01            13350 	.byte	1
00000b65 00            13351 	.byte	0
00000b66 01            13352 	.byte	1
00000b67 01            13353 	.byte	1
00000b68 00            13354 	.byte	0
00000b69 01            13355 	.byte	1
                       13356 
00000b6a 00            13357 	.byte	0
                       13358 
                       13359 .LDW_4bbdb98:
00000b6b 15            13360 	.byte	21
00000b6c 525f55415254  13361 	.strz	"R_UART_SendString"
00000b72 5f53656e6453 
00000b78 7472696e6700 
00000b7e 41            13362 	.byte	65
00000b7f 06            13363 	.byte	6
00000b80 13            13364 	.byte	19
00000b81 01            13365 	.byte	1
00000b82 00            13366 	.byte	0
00000b83 01            13367 	.byte	1
00000b84 01            13368 	.byte	1
00000b85 00            13369 	.byte	0
00000b86 01            13370 	.byte	1
                       13371 
00000b87 00            13372 	.byte	0
                       13373 
                       13374 .LDW_4bbdc30:
00000b88 15            13375 	.byte	21
00000b89 525f55495f50  13376 	.strz	"R_UI_Pot1_Init"
00000b8f 6f74315f496e 
00000b95 697400 
00000b98 4a            13377 	.byte	74
00000b99 06            13378 	.byte	6
00000b9a 14            13379 	.byte	20
00000b9b 01            13380 	.byte	1
00000b9c 00            13381 	.byte	0
00000b9d 01            13382 	.byte	1
00000b9e 01            13383 	.byte	1
00000b9f 00            13384 	.byte	0
00000ba0 01            13385 	.byte	1
                       13386 
00000ba1 00            13387 	.byte	0
                       13388 
                       13389 .LDW_4bbdd60:
00000ba2 15            13390 	.byte	21
00000ba3 525f55495f42  13391 	.strz	"R_UI_ButtonS1_Init"
00000ba9 7574746f6e53 
00000baf 315f496e6974 
00000bb5 00 
00000bb6 4c            13392 	.byte	76
00000bb7 06            13393 	.byte	6
00000bb8 14            13394 	.byte	20
00000bb9 01            13395 	.byte	1
00000bba 00            13396 	.byte	0

                                                                      Page 238
                                                              C:\Users\NIKHIL~1.PAT\AppData\Local\Temp\gh_000aeoo1.s
00000bbb 01            13397 	.byte	1
00000bbc 01            13398 	.byte	1
00000bbd 00            13399 	.byte	0
00000bbe 01            13400 	.byte	1
                       13401 
00000bbf 00            13402 	.byte	0
                       13403 
                       13404 .LDW_4bbde90:
00000bc0 16            13405 	.byte	22
00000bc1 525f55495f47  13406 	.strz	"R_UI_Get_ButtonS1_State"
00000bc7 65745f427574 
00000bcd 746f6e53315f 
00000bd3 537461746500 
00000bd9 4e            13407 	.byte	78
00000bda 0c            13408 	.byte	12
00000bdb 14            13409 	.byte	20
00000bdc 00000000*     13410 	.word	.LDW_47f4960
00000be0 01            13411 	.byte	1
00000be1 00            13412 	.byte	0
00000be2 01            13413 	.byte	1
00000be3 01            13414 	.byte	1
00000be4 00            13415 	.byte	0
00000be5 01            13416 	.byte	1
                       13417 
00000be6 00            13418 	.byte	0
                       13419 
                       13420 .LDW_4bbdf28:
00000be7 16            13421 	.byte	22
00000be8 525f55495f42  13422 	.strz	"R_UI_ButtonS1_Handler"
00000bee 7574746f6e53 
00000bf4 315f48616e64 
00000bfa 6c657200 
00000bfe 4f            13423 	.byte	79
00000bff 0c            13424 	.byte	12
00000c00 14            13425 	.byte	20
00000c01 00000000*     13426 	.word	.LDW_47f4960
00000c05 01            13427 	.byte	1
00000c06 00            13428 	.byte	0
00000c07 01            13429 	.byte	1
00000c08 01            13430 	.byte	1
00000c09 00            13431 	.byte	0
00000c0a 01            13432 	.byte	1
                       13433 
00000c0b 00            13434 	.byte	0
                       13435 
                       13436 .LDW_4bbdfc0:
00000c0c 15            13437 	.byte	21
00000c0d 525f55495f42  13438 	.strz	"R_UI_ButtonEnc1_Init"
00000c13 7574746f6e45 
00000c19 6e63315f496e 
00000c1f 697400 
00000c22 50            13439 	.byte	80
00000c23 06            13440 	.byte	6
00000c24 14            13441 	.byte	20
00000c25 01            13442 	.byte	1
00000c26 00            13443 	.byte	0
00000c27 01            13444 	.byte	1
00000c28 01            13445 	.byte	1
00000c29 00            13446 	.byte	0
00000c2a 01            13447 	.byte	1
                       13448 

                                                                      Page 239
                                                              C:\Users\NIKHIL~1.PAT\AppData\Local\Temp\gh_000aeoo1.s
00000c2b 00            13449 	.byte	0
                       13450 
                       13451 .LDW_4bbe188:
00000c2c 16            13452 	.byte	22
00000c2d 525f55495f42  13453 	.strz	"R_UI_ButtonEnc1_Handler"
00000c33 7574746f6e45 
00000c39 6e63315f4861 
00000c3f 6e646c657200 
00000c45 53            13454 	.byte	83
00000c46 0c            13455 	.byte	12
00000c47 14            13456 	.byte	20
00000c48 00000000*     13457 	.word	.LDW_47f4960
00000c4c 01            13458 	.byte	1
00000c4d 00            13459 	.byte	0
00000c4e 01            13460 	.byte	1
00000c4f 01            13461 	.byte	1
00000c50 00            13462 	.byte	0
00000c51 01            13463 	.byte	1
                       13464 
00000c52 00            13465 	.byte	0
                       13466 
                       13467 .LDW_4bbe220:
00000c53 15            13468 	.byte	21
00000c54 525f55495f49  13469 	.strz	"R_UI_INTP12_Init"
00000c5a 4e545031325f 
00000c60 496e697400 
00000c65 54            13470 	.byte	84
00000c66 06            13471 	.byte	6
00000c67 14            13472 	.byte	20
00000c68 01            13473 	.byte	1
00000c69 00            13474 	.byte	0
00000c6a 01            13475 	.byte	1
00000c6b 01            13476 	.byte	1
00000c6c 00            13477 	.byte	0
00000c6d 01            13478 	.byte	1
                       13479 
00000c6e 00            13480 	.byte	0
                       13481 
                       13482 .LDW_4bbe2b8:
00000c6f 15            13483 	.byte	21
00000c70 525f55495f49  13484 	.strz	"R_UI_INTP15_Init"
00000c76 4e545031355f 
00000c7c 496e697400 
00000c81 55            13485 	.byte	85
00000c82 06            13486 	.byte	6
00000c83 14            13487 	.byte	20
00000c84 01            13488 	.byte	1
00000c85 00            13489 	.byte	0
00000c86 01            13490 	.byte	1
00000c87 01            13491 	.byte	1
00000c88 00            13492 	.byte	0
00000c89 01            13493 	.byte	1
                       13494 
00000c8a 00            13495 	.byte	0
                       13496 
                       13497 .LDW_4bbe350:
00000c8b 15            13498 	.byte	21
00000c8c 525f55495f45  13499 	.strz	"R_UI_Enc1_Init"
00000c92 6e63315f496e 
00000c98 697400 
00000c9b 56            13500 	.byte	86

                                                                      Page 240
                                                              C:\Users\NIKHIL~1.PAT\AppData\Local\Temp\gh_000aeoo1.s
00000c9c 06            13501 	.byte	6
00000c9d 14            13502 	.byte	20
00000c9e 01            13503 	.byte	1
00000c9f 00            13504 	.byte	0
00000ca0 01            13505 	.byte	1
00000ca1 01            13506 	.byte	1
00000ca2 00            13507 	.byte	0
00000ca3 01            13508 	.byte	1
                       13509 
00000ca4 00            13510 	.byte	0
                       13511 
                       13512 .LDW_4bbe518:
00000ca5 15            13513 	.byte	21
00000ca6 525f454e4341  13514 	.strz	"R_ENCA0_Start"
00000cac 305f53746172 
00000cb2 7400 
00000cb4 45            13515 	.byte	69
00000cb5 06            13516 	.byte	6
00000cb6 15            13517 	.byte	21
00000cb7 01            13518 	.byte	1
00000cb8 00            13519 	.byte	0
00000cb9 01            13520 	.byte	1
00000cba 01            13521 	.byte	1
00000cbb 00            13522 	.byte	0
00000cbc 01            13523 	.byte	1
                       13524 
00000cbd 00            13525 	.byte	0
                       13526 
                       13527 .LDW_4bbe648:
00000cbe 16            13528 	.byte	22
00000cbf 525f454e4341  13529 	.strz	"R_ENCA0_GetFlags"
00000cc5 305f47657446 
00000ccb 6c61677300 
00000cd0 47            13530 	.byte	71
00000cd1 09            13531 	.byte	9
00000cd2 15            13532 	.byte	21
00000cd3 00000000*     13533 	.word	.LDW_4bb2ef8
00000cd7 01            13534 	.byte	1
00000cd8 00            13535 	.byte	0
00000cd9 01            13536 	.byte	1
00000cda 01            13537 	.byte	1
00000cdb 00            13538 	.byte	0
00000cdc 01            13539 	.byte	1
                       13540 
00000cdd 00            13541 	.byte	0
                       13542 
                       13543 .LDW_4bbe6e0:
00000cde 16            13544 	.byte	22
00000cdf 525f454e4341  13545 	.strz	"R_ENCA0_Read"
00000ce5 305f52656164 
00000ceb 00 
00000cec 48            13546 	.byte	72
00000ced 0a            13547 	.byte	10
00000cee 15            13548 	.byte	21
00000cef 00000000*     13549 	.word	.LDW_47f44e8
00000cf3 01            13550 	.byte	1
00000cf4 00            13551 	.byte	0
00000cf5 01            13552 	.byte	1
00000cf6 01            13553 	.byte	1
00000cf7 00            13554 	.byte	0
00000cf8 01            13555 	.byte	1

                                                                      Page 241
                                                              C:\Users\NIKHIL~1.PAT\AppData\Local\Temp\gh_000aeoo1.s
                       13556 
00000cf9 00            13557 	.byte	0
                       13558 
                       13559 .LDW_4bbe778:
00000cfa 15            13560 	.byte	21
00000cfb 525f494e5443  13561 	.strz	"R_INTC_MaskInterrupt"
00000d01 5f4d61736b49 
00000d07 6e7465727275 
00000d0d 707400 
00000d10 4b            13562 	.byte	75
00000d11 06            13563 	.byte	6
00000d12 16            13564 	.byte	22
00000d13 01            13565 	.byte	1
00000d14 00            13566 	.byte	0
00000d15 01            13567 	.byte	1
00000d16 01            13568 	.byte	1
00000d17 00            13569 	.byte	0
00000d18 01            13570 	.byte	1
                       13571 
00000d19 00            13572 	.byte	0
                       13573 
                       13574 .LDW_4bbe810:
00000d1a 15            13575 	.byte	21
00000d1b 525f494e5443  13576 	.strz	"R_INTC_UnmaskInterrupt"
00000d21 5f556e6d6173 
00000d27 6b496e746572 
00000d2d 7275707400 
00000d32 4c            13577 	.byte	76
00000d33 06            13578 	.byte	6
00000d34 16            13579 	.byte	22
00000d35 01            13580 	.byte	1
00000d36 00            13581 	.byte	0
00000d37 01            13582 	.byte	1
00000d38 01            13583 	.byte	1
00000d39 00            13584 	.byte	0
00000d3a 01            13585 	.byte	1
                       13586 
00000d3b 00            13587 	.byte	0
                       13588 
                       13589 .LDW_4bbe940:
00000d3c 15            13590 	.byte	21
00000d3d 525f494e5443  13591 	.strz	"R_INTC_SetTableBit"
00000d43 5f5365745461 
00000d49 626c65426974 
00000d4f 00 
00000d50 4e            13592 	.byte	78
00000d51 06            13593 	.byte	6
00000d52 16            13594 	.byte	22
00000d53 01            13595 	.byte	1
00000d54 00            13596 	.byte	0
00000d55 01            13597 	.byte	1
00000d56 01            13598 	.byte	1
00000d57 00            13599 	.byte	0
00000d58 01            13600 	.byte	1
                       13601 
00000d59 00            13602 	.byte	0
                       13603 
                       13604 .LDW_4bbec38:
00000d5a 15            13605 	.byte	21
00000d5b 525f53544243  13606 	.strz	"R_STBC_EnterDeepSTOP"
00000d61 5f456e746572 

                                                                      Page 242
                                                              C:\Users\NIKHIL~1.PAT\AppData\Local\Temp\gh_000aeoo1.s
00000d67 446565705354 
00000d6d 4f5000 
00000d70 40            13607 	.byte	64
00000d71 06            13608 	.byte	6
00000d72 17            13609 	.byte	23
00000d73 01            13610 	.byte	1
00000d74 00            13611 	.byte	0
00000d75 01            13612 	.byte	1
00000d76 01            13613 	.byte	1
00000d77 00            13614 	.byte	0
00000d78 01            13615 	.byte	1
                       13616 
00000d79 00            13617 	.byte	0
                       13618 
                       13619 .LDW_4bbecd0:
00000d7a 16            13620 	.byte	22
00000d7b 525f53544243  13621 	.strz	"R_STBC_GetWakeUpFactor"
00000d81 5f4765745761 
00000d87 6b6555704661 
00000d8d 63746f7200 
00000d92 41            13622 	.byte	65
00000d93 0a            13623 	.byte	10
00000d94 17            13624 	.byte	23
00000d95 00000000*     13625 	.word	.LDW_47f4438
00000d99 01            13626 	.byte	1
00000d9a 00            13627 	.byte	0
00000d9b 01            13628 	.byte	1
00000d9c 01            13629 	.byte	1
00000d9d 00            13630 	.byte	0
00000d9e 01            13631 	.byte	1
                       13632 
00000d9f 00            13633 	.byte	0
                       13634 
                       13635 .LDW_4bbed68:
00000da0 15            13636 	.byte	21
00000da1 525f53544243  13637 	.strz	"R_STBC_ReleaseIoHold"
00000da7 5f52656c6561 
00000dad 7365496f486f 
00000db3 6c6400 
00000db6 42            13638 	.byte	66
00000db7 06            13639 	.byte	6
00000db8 17            13640 	.byte	23
00000db9 01            13641 	.byte	1
00000dba 00            13642 	.byte	0
00000dbb 01            13643 	.byte	1
00000dbc 01            13644 	.byte	1
00000dbd 00            13645 	.byte	0
00000dbe 01            13646 	.byte	1
                       13647 
00000dbf 00            13648 	.byte	0
                       13649 
                       13650 .LDW_4bbee00:
00000dc0 15            13651 	.byte	21
00000dc1 525f5441554a  13652 	.strz	"R_TAUJ0_CK0_Prescaler"
00000dc7 305f434b305f 
00000dcd 507265736361 
00000dd3 6c657200 
00000dd7 4a            13653 	.byte	74
00000dd8 06            13654 	.byte	6
00000dd9 18            13655 	.byte	24
00000dda 01            13656 	.byte	1

                                                                      Page 243
                                                              C:\Users\NIKHIL~1.PAT\AppData\Local\Temp\gh_000aeoo1.s
00000ddb 00            13657 	.byte	0
00000ddc 01            13658 	.byte	1
00000ddd 01            13659 	.byte	1
00000dde 00            13660 	.byte	0
00000ddf 01            13661 	.byte	1
                       13662 
00000de0 00            13663 	.byte	0
                       13664 
                       13665 .LDW_4bbee98:
00000de1 15            13666 	.byte	21
00000de2 525f5441554a  13667 	.strz	"R_TAUJ0_CDR_Update"
00000de8 305f4344525f 
00000dee 557064617465 
00000df4 00 
00000df5 4b            13668 	.byte	75
00000df6 06            13669 	.byte	6
00000df7 18            13670 	.byte	24
00000df8 01            13671 	.byte	1
00000df9 00            13672 	.byte	0
00000dfa 01            13673 	.byte	1
00000dfb 01            13674 	.byte	1
00000dfc 00            13675 	.byte	0
00000dfd 01            13676 	.byte	1
                       13677 
00000dfe 00            13678 	.byte	0
                       13679 
                       13680 .LDW_4bbefc8:
00000dff 15            13681 	.byte	21
00000e00 525f5441554a  13682 	.strz	"R_TAUJ0_Channel1_Init"
00000e06 305f4368616e 
00000e0c 6e656c315f49 
00000e12 6e697400 
00000e16 4d            13683 	.byte	77
00000e17 06            13684 	.byte	6
00000e18 18            13685 	.byte	24
00000e19 01            13686 	.byte	1
00000e1a 00            13687 	.byte	0
00000e1b 01            13688 	.byte	1
00000e1c 01            13689 	.byte	1
00000e1d 00            13690 	.byte	0
00000e1e 01            13691 	.byte	1
                       13692 
00000e1f 00            13693 	.byte	0
                       13694 
                       13695 .LDW_4bbf190:
00000e20 15            13696 	.byte	21
00000e21 525f5441554a  13697 	.strz	"R_TAUJ0_Channel_Start"
00000e27 305f4368616e 
00000e2d 6e656c5f5374 
00000e33 61727400 
00000e37 50            13698 	.byte	80
00000e38 06            13699 	.byte	6
00000e39 18            13700 	.byte	24
00000e3a 01            13701 	.byte	1
00000e3b 00            13702 	.byte	0
00000e3c 01            13703 	.byte	1
00000e3d 01            13704 	.byte	1
00000e3e 00            13705 	.byte	0
00000e3f 01            13706 	.byte	1
                       13707 
00000e40 00            13708 	.byte	0

                                                                      Page 244
                                                              C:\Users\NIKHIL~1.PAT\AppData\Local\Temp\gh_000aeoo1.s
                       13709 
                       13710 .LDW_4bbf228:
00000e41 15            13711 	.byte	21
00000e42 525f5441554a  13712 	.strz	"R_TAUJ0_Channel_Stop"
00000e48 305f4368616e 
00000e4e 6e656c5f5374 
00000e54 6f7000 
00000e57 51            13713 	.byte	81
00000e58 06            13714 	.byte	6
00000e59 18            13715 	.byte	24
00000e5a 01            13716 	.byte	1
00000e5b 00            13717 	.byte	0
00000e5c 01            13718 	.byte	1
00000e5d 01            13719 	.byte	1
00000e5e 00            13720 	.byte	0
00000e5f 01            13721 	.byte	1
                       13722 
00000e60 00            13723 	.byte	0
                       13724 
                       13725 .LDW_4bbf2c0:
00000e61 15            13726 	.byte	21
00000e62 525f5441554a  13727 	.strz	"R_TAUJ0_AssignChannel1ISR"
00000e68 305f41737369 
00000e6e 676e4368616e 
00000e74 6e656c314953 
00000e7a 5200 
00000e7c 52            13728 	.byte	82
00000e7d 06            13729 	.byte	6
00000e7e 18            13730 	.byte	24
00000e7f 01            13731 	.byte	1
00000e80 00            13732 	.byte	0
00000e81 01            13733 	.byte	1
00000e82 01            13734 	.byte	1
00000e83 00            13735 	.byte	0
00000e84 01            13736 	.byte	1
                       13737 
00000e85 00            13738 	.byte	0
                       13739 
                       13740 .LDW_4bbf358:
00000e86 15            13741 	.byte	21
00000e87 525f54415542  13742 	.strz	"R_TAUB0_CK0_Prescaler"
00000e8d 305f434b305f 
00000e93 507265736361 
00000e99 6c657200 
00000e9d 54            13743 	.byte	84
00000e9e 06            13744 	.byte	6
00000e9f 18            13745 	.byte	24
00000ea0 01            13746 	.byte	1
00000ea1 00            13747 	.byte	0
00000ea2 01            13748 	.byte	1
00000ea3 01            13749 	.byte	1
00000ea4 00            13750 	.byte	0
00000ea5 01            13751 	.byte	1
                       13752 
00000ea6 00            13753 	.byte	0
                       13754 
                       13755 .LDW_4bc0770:
00000ea7 15            13756 	.byte	21
00000ea8 525f41444341  13757 	.strz	"R_ADCA0_AssignLimitErrorCB"
00000eae 305f41737369 
00000eb4 676e4c696d69 

                                                                      Page 245
                                                              C:\Users\NIKHIL~1.PAT\AppData\Local\Temp\gh_000aeoo1.s
00000eba 744572726f72 
00000ec0 434200 
00000ec3 57            13758 	.byte	87
00000ec4 06            13759 	.byte	6
00000ec5 19            13760 	.byte	25
00000ec6 01            13761 	.byte	1
00000ec7 00            13762 	.byte	0
00000ec8 01            13763 	.byte	1
00000ec9 01            13764 	.byte	1
00000eca 00            13765 	.byte	0
00000ecb 01            13766 	.byte	1
                       13767 
00000ecc 00            13768 	.byte	0
                       13769 
                       13770 .LDW_4bc0938:
00000ecd 15            13771 	.byte	21
00000ece 525f41444341  13772 	.strz	"R_ADCA0_Init"
00000ed4 305f496e6974 
00000eda 00 
00000edb 5a            13773 	.byte	90
00000edc 06            13774 	.byte	6
00000edd 19            13775 	.byte	25
00000ede 01            13776 	.byte	1
00000edf 00            13777 	.byte	0
00000ee0 01            13778 	.byte	1
00000ee1 01            13779 	.byte	1
00000ee2 00            13780 	.byte	0
00000ee3 01            13781 	.byte	1
                       13782 
00000ee4 00            13783 	.byte	0
                       13784 
                       13785 .LDW_4bc09d0:
00000ee5 16            13786 	.byte	22
00000ee6 525f41444341  13787 	.strz	"R_ADCA0_PinRead"
00000eec 305f50696e52 
00000ef2 65616400 
00000ef6 5b            13788 	.byte	91
00000ef7 0a            13789 	.byte	10
00000ef8 19            13790 	.byte	25
00000ef9 00000000*     13791 	.word	.LDW_47f44e8
00000efd 01            13792 	.byte	1
00000efe 00            13793 	.byte	0
00000eff 01            13794 	.byte	1
00000f00 01            13795 	.byte	1
00000f01 00            13796 	.byte	0
00000f02 01            13797 	.byte	1
                       13798 
00000f03 00            13799 	.byte	0
                       13800 
                       13801 .LDW_4bc0b00:
00000f04 15            13802 	.byte	21
00000f05 525f41444341  13803 	.strz	"R_ADCA0_SetUpperLowerLimit"
00000f0b 305f53657455 
00000f11 707065724c6f 
00000f17 7765724c696d 
00000f1d 697400 
00000f20 5d            13804 	.byte	93
00000f21 06            13805 	.byte	6
00000f22 19            13806 	.byte	25
00000f23 01            13807 	.byte	1
00000f24 00            13808 	.byte	0

                                                                      Page 246
                                                              C:\Users\NIKHIL~1.PAT\AppData\Local\Temp\gh_000aeoo1.s
00000f25 01            13809 	.byte	1
00000f26 01            13810 	.byte	1
00000f27 00            13811 	.byte	0
00000f28 01            13812 	.byte	1
                       13813 
00000f29 00            13814 	.byte	0
                       13815 
                       13816 .LDW_4bc0b98:
00000f2a 15            13817 	.byte	21
00000f2b 525f41444341  13818 	.strz	"R_ADCA0_PwsaTriggerEnable"
00000f31 305f50777361 
00000f37 547269676765 
00000f3d 72456e61626c 
00000f43 6500 
00000f45 5e            13819 	.byte	94
00000f46 06            13820 	.byte	6
00000f47 19            13821 	.byte	25
00000f48 01            13822 	.byte	1
00000f49 00            13823 	.byte	0
00000f4a 01            13824 	.byte	1
00000f4b 01            13825 	.byte	1
00000f4c 00            13826 	.byte	0
00000f4d 01            13827 	.byte	1
                       13828 
00000f4e 00            13829 	.byte	0
                       13830 
                       13831 .LDW_4bc12b8:
00000f4f 15            13832 	.byte	21
00000f50 525f50574d44  13833 	.strz	"R_PWMD_DiagInit"
00000f56 5f4469616749 
00000f5c 6e697400 
00000f60 48            13834 	.byte	72
00000f61 06            13835 	.byte	6
00000f62 1a            13836 	.byte	26
00000f63 01            13837 	.byte	1
00000f64 00            13838 	.byte	0
00000f65 01            13839 	.byte	1
00000f66 01            13840 	.byte	1
00000f67 00            13841 	.byte	0
00000f68 01            13842 	.byte	1
                       13843 
00000f69 00            13844 	.byte	0
                       13845 
                       13846 .LDW_4bc1350:
00000f6a 15            13847 	.byte	21
00000f6b 525f50574d44  13848 	.strz	"R_PWMD_DiagStart"
00000f71 5f4469616753 
00000f77 7461727400 
00000f7c 49            13849 	.byte	73
00000f7d 06            13850 	.byte	6
00000f7e 1a            13851 	.byte	26
00000f7f 01            13852 	.byte	1
00000f80 00            13853 	.byte	0
00000f81 01            13854 	.byte	1
00000f82 01            13855 	.byte	1
00000f83 00            13856 	.byte	0
00000f84 01            13857 	.byte	1
                       13858 
00000f85 00            13859 	.byte	0
                       13860 
                       13861 .LDW_4bc13e8:

                                                                      Page 247
                                                              C:\Users\NIKHIL~1.PAT\AppData\Local\Temp\gh_000aeoo1.s
00000f86 15            13862 	.byte	21
00000f87 525f50574d44  13863 	.strz	"R_PWMD_DiagStop"
00000f8d 5f4469616753 
00000f93 746f7000 
00000f97 4a            13864 	.byte	74
00000f98 06            13865 	.byte	6
00000f99 1a            13866 	.byte	26
00000f9a 01            13867 	.byte	1
00000f9b 00            13868 	.byte	0
00000f9c 01            13869 	.byte	1
00000f9d 01            13870 	.byte	1
00000f9e 00            13871 	.byte	0
00000f9f 01            13872 	.byte	1
                       13873 
00000fa0 00            13874 	.byte	0
                       13875 
                       13876 .LDW_4bc16e0:
00000fa1 16            13877 	.byte	22
00000fa2 525f524c494e  13878 	.strz	"R_RLIN30_GetStatus"
00000fa8 33305f476574 
00000fae 537461747573 
00000fb4 00 
00000fb5 4d            13879 	.byte	77
00000fb6 09            13880 	.byte	9
00000fb7 1b            13881 	.byte	27
00000fb8 00000000*     13882 	.word	.LDW_4bb2ef8
00000fbc 01            13883 	.byte	1
00000fbd 00            13884 	.byte	0
00000fbe 01            13885 	.byte	1
00000fbf 01            13886 	.byte	1
00000fc0 00            13887 	.byte	0
00000fc1 01            13888 	.byte	1
                       13889 
00000fc2 00            13890 	.byte	0
                       13891 
                       13892 .LDW_48286b8:
00000fc3 13            13893 	.byte	19
00000fc4 5072696e7454  13894 	.strz	"PrintText"
00000fca 65787400 
00000fce 9d01          13895 	.byte	157,1
00000fd0 06            13896 	.byte	6
00000fd1 01            13897 	.byte	1
00000fd2 00000000*     13898 	.word	_PrintText
00000fd6 00000000*     13899 	.word	___ghs_eofn_PrintText
00000fda 0153          13900 	.byte	1,83
00000fdc 828080800a    13901 	.byte	130,128,128,128,10
00000fe1 08            13902 	.byte	8
00000fe2 02            13903 	.byte	2
00000fe3 08            13904 	.byte	8
00000fe4 00            13905 	.byte	0
00000fe5 00            13906 	.byte	0
00000fe6 00            13907 	.byte	0
00000fe7 01            13908 	.byte	1
00000fe8 01            13909 	.byte	1
00000fe9 00            13910 	.byte	0
00000fea 01            13911 	.byte	1
                       13912 
                       13913 	.section	.debug_abbrev
00000107 13            13914 	.byte	19
00000108 2e            13915 	.byte	46
00000109 01            13916 	.byte	1

                                                                      Page 248
                                                              C:\Users\NIKHIL~1.PAT\AppData\Local\Temp\gh_000aeoo1.s
0000010a 0308          13917 	.byte	3,8
0000010c 3b0f          13918 	.byte	59,15
0000010e 390f          13919 	.byte	57,15
00000110 3a0f          13920 	.byte	58,15
00000112 1101          13921 	.byte	17,1
00000114 1201          13922 	.byte	18,1
00000116 400a          13923 	.byte	64,10
00000118 8341          13924 	.byte	131,65
0000011a 0f            13925 	.byte	15
0000011b 8741          13926 	.byte	135,65
0000011d 0d            13927 	.byte	13
0000011e 8541          13928 	.byte	133,65
00000120 0f            13929 	.byte	15
00000121 8641          13930 	.byte	134,65
00000123 0d            13931 	.byte	13
00000124 9241          13932 	.byte	146,65
00000126 0f            13933 	.byte	15
00000127 3c0c          13934 	.byte	60,12
00000129 200b          13935 	.byte	32,11
0000012b 3f0c          13936 	.byte	63,12
0000012d 320b          13937 	.byte	50,11
0000012f 4c0b          13938 	.byte	76,11
00000131 270c          13939 	.byte	39,12
00000133 0000          13940 	.byte	0,0
                       13941 
                       13942 	.section	.debug_frame
                       13943 .LDW_4bb46a8:
00000090 00000000*     13944 	.word	.LDW_unq_4-.LDW_unq_3
                       13945 .LDW_unq_3:
00000094 00000000*     13946 	.word	.LDW_47a71b0
00000098 00000000*     13947 	.word	_PrintText
0000009c 00000000*     13948 	.word	___ghs_eofn_PrintText-_PrintText
000000a0 46            13949 	.byte	70
000000a1 9f            13950 	.byte	159
000000a2 04            13951 	.byte	4
000000a3 44            13952 	.byte	68
000000a4 9d            13953 	.byte	157
000000a5 00            13954 	.byte	0
000000a6 01            13955 	.byte	1
000000a7 00000000*     13956 	.word	.LDW11
000000ab 44            13957 	.byte	68
000000ac df            13958 	.byte	223
000000ad 44            13959 	.byte	68
000000ae dd            13960 	.byte	221
000000af 00            13961 	.byte	0
                       13962 .LDW_unq_4:
                       13963 	.section	.debug_line
00000402 000502        13964 	.byte	0,5,2
00000405 00000000*     13965 	.word	_PrintText
00000409 03            13966 	.byte	3
0000040a 9d01          13967 	.byte	157,1
0000040c 02            13968 	.byte	2
0000040d 00            13969 	.byte	0
0000040e 01            13970 	.byte	1
0000040f 06            13971 	.byte	6
00000410 3b            13972 	.byte	59
00000411 000502        13973 	.byte	0,5,2
00000414 00000000*     13974 	.word	.LDWlin1
00000418 0d            13975 	.byte	13
00000419 000502        13976 	.byte	0,5,2
0000041c 00000000*     13977 	.word	.LDWlin2

                                                                      Page 249
                                                              C:\Users\NIKHIL~1.PAT\AppData\Local\Temp\gh_000aeoo1.s
00000420 0c            13978 	.byte	12
00000421 02            13979 	.byte	2
00000422 0c            13980 	.byte	12
00000423 000101        13981 	.byte	0,1,1
                       13982 	.section	.debug_info
                       13983 .LDW_47f43e0:
00000feb 0f            13984 	.byte	15
00000fec 546578744172  13985 	.strz	"TextArray"
00000ff2 72617900 
00000ff6 9d01          13986 	.byte	157,1
00000ff8 18            13987 	.byte	24
00000ff9 01            13988 	.byte	1
00000ffa 00000000*     13989 	.word	.LDW_48323f0
00000ffe 00            13990 	.byte	0
00000fff 016d          13991 	.byte	1,109
                       13992 
                       13993 	.section	.debug_abbrev
00000135 0f            13994 	.byte	15
00000136 05            13995 	.byte	5
00000137 00            13996 	.byte	0
00000138 0308          13997 	.byte	3,8
0000013a 3b0f          13998 	.byte	59,15
0000013c 390f          13999 	.byte	57,15
0000013e 3a0f          14000 	.byte	58,15
00000140 4910          14001 	.byte	73,16
00000142 4b0c          14002 	.byte	75,12
00000144 020a          14003 	.byte	2,10
00000146 0000          14004 	.byte	0,0
                       14005 
                       14006 	.section	.debug_info
                       14007 .LDW_3db2600:
00001001 1d            14008 	.byte	29
00001002 00000000*     14009 	.word	.LDW01
00001006 00000000*     14010 	.word	.LDW11
                       14011 
                       14012 	.section	.debug_abbrev
00000148 1d            14013 	.byte	29
00000149 0b            14014 	.byte	11
0000014a 01            14015 	.byte	1
0000014b 1101          14016 	.byte	17,1
0000014d 1201          14017 	.byte	18,1
0000014f 0000          14018 	.byte	0,0
                       14019 
                       14020 	.section	.debug_info
0000100a 00            14021 	.byte	0
                       14022 
0000100b 00            14023 	.byte	0
                       14024 
                       14025 .LDW_4828750:
0000100c 13            14026 	.byte	19
0000100d 50776d457272  14027 	.strz	"PwmErrorCallBack"
00001013 6f7243616c6c 
00001019 4261636b00 
0000101e ac01          14028 	.byte	172,1
00001020 06            14029 	.byte	6
00001021 01            14030 	.byte	1
00001022 00000000*     14031 	.word	_PwmErrorCallBack
00001026 00000000*     14032 	.word	___ghs_eofn_PwmErrorCallBack
0000102a 0153          14033 	.byte	1,83
0000102c 828080c00b    14034 	.byte	130,128,128,192,11
00001031 10            14035 	.byte	16

                                                                      Page 250
                                                              C:\Users\NIKHIL~1.PAT\AppData\Local\Temp\gh_000aeoo1.s
00001032 02            14036 	.byte	2
00001033 10            14037 	.byte	16
00001034 00            14038 	.byte	0
00001035 00            14039 	.byte	0
00001036 00            14040 	.byte	0
00001037 01            14041 	.byte	1
00001038 01            14042 	.byte	1
00001039 00            14043 	.byte	0
0000103a 01            14044 	.byte	1
                       14045 
                       14046 	.section	.debug_frame
                       14047 .LDW_4bb47a8:
000000b0 00000000*     14048 	.word	.LDW_unq_6-.LDW_unq_5
                       14049 .LDW_unq_5:
000000b4 00000000*     14050 	.word	.LDW_47a71b0
000000b8 00000000*     14051 	.word	_PwmErrorCallBack
000000bc 00000000*     14052 	.word	___ghs_eofn_PwmErrorCallBack-_PwmErrorCallBack
000000c0 46            14053 	.byte	70
000000c1 9f            14054 	.byte	159
000000c2 0c            14055 	.byte	12
000000c3 44            14056 	.byte	68
000000c4 9b            14057 	.byte	155
000000c5 08            14058 	.byte	8
000000c6 44            14059 	.byte	68
000000c7 9c            14060 	.byte	156
000000c8 04            14061 	.byte	4
000000c9 44            14062 	.byte	68
000000ca 9d            14063 	.byte	157
000000cb 00            14064 	.byte	0
000000cc 01            14065 	.byte	1
000000cd 00000000*     14066 	.word	.LDW31
000000d1 44            14067 	.byte	68
000000d2 df            14068 	.byte	223
000000d3 44            14069 	.byte	68
000000d4 dd            14070 	.byte	221
000000d5 44            14071 	.byte	68
000000d6 dc            14072 	.byte	220
000000d7 44            14073 	.byte	68
000000d8 db            14074 	.byte	219
000000d9 00            14075 	.byte	0
000000da 00            14076 	.byte	0
000000db 00            14077 	.byte	0
                       14078 .LDW_unq_6:
                       14079 	.section	.debug_line
00000426 000502        14080 	.byte	0,5,2
00000429 00000000*     14081 	.word	_PwmErrorCallBack
0000042d 03            14082 	.byte	3
0000042e ac01          14083 	.byte	172,1
00000430 02            14084 	.byte	2
00000431 00            14085 	.byte	0
00000432 01            14086 	.byte	1
00000433 06            14087 	.byte	6
00000434 8c            14088 	.byte	140
00000435 000502        14089 	.byte	0,5,2
00000438 00000000*     14090 	.word	.LDWlin3
0000043c 0b            14091 	.byte	11
0000043d 0b            14092 	.byte	11
0000043e 000502        14093 	.byte	0,5,2
00000441 00000000*     14094 	.word	.LDWlin4
00000445 0b            14095 	.byte	11
00000446 0b            14096 	.byte	11

                                                                      Page 251
                                                              C:\Users\NIKHIL~1.PAT\AppData\Local\Temp\gh_000aeoo1.s
00000447 23            14097 	.byte	35
00000448 000502        14098 	.byte	0,5,2
0000044b 00000000*     14099 	.word	.LDWlin5
0000044f 0b            14100 	.byte	11
00000450 02            14101 	.byte	2
00000451 00            14102 	.byte	0
00000452 0b            14103 	.byte	11
00000453 02            14104 	.byte	2
00000454 00            14105 	.byte	0
00000455 0c            14106 	.byte	12
00000456 000502        14107 	.byte	0,5,2
00000459 00000000*     14108 	.word	.LDWlin6
0000045d 0b            14109 	.byte	11
0000045e 0b            14110 	.byte	11
0000045f 000502        14111 	.byte	0,5,2
00000462 00000000*     14112 	.word	.LDWlin7
00000466 0b            14113 	.byte	11
00000467 0b            14114 	.byte	11
00000468 23            14115 	.byte	35
00000469 000502        14116 	.byte	0,5,2
0000046c 00000000*     14117 	.word	.LDWlin8
00000470 0b            14118 	.byte	11
00000471 02            14119 	.byte	2
00000472 00            14120 	.byte	0
00000473 0b            14121 	.byte	11
00000474 02            14122 	.byte	2
00000475 00            14123 	.byte	0
00000476 0c            14124 	.byte	12
00000477 000502        14125 	.byte	0,5,2
0000047a 00000000*     14126 	.word	.LDWlin9
0000047e 0b            14127 	.byte	11
0000047f 0b            14128 	.byte	11
00000480 000502        14129 	.byte	0,5,2
00000483 00000000*     14130 	.word	.LDWlin10
00000487 0b            14131 	.byte	11
00000488 0b            14132 	.byte	11
00000489 23            14133 	.byte	35
0000048a 000502        14134 	.byte	0,5,2
0000048d 00000000*     14135 	.word	.LDWlin11
00000491 0b            14136 	.byte	11
00000492 02            14137 	.byte	2
00000493 00            14138 	.byte	0
00000494 0b            14139 	.byte	11
00000495 02            14140 	.byte	2
00000496 00            14141 	.byte	0
00000497 0b            14142 	.byte	11
00000498 02            14143 	.byte	2
00000499 16            14144 	.byte	22
0000049a 000101        14145 	.byte	0,1,1
                       14146 	.section	.debug_info
                       14147 .LDW_47f4490:
0000103b 0f            14148 	.byte	15
0000103c 4572726f7253  14149 	.strz	"ErrorStatus"
00001042 746174757300 
00001048 ac01          14150 	.byte	172,1
0000104a 20            14151 	.byte	32
0000104b 01            14152 	.byte	1
0000104c 00000000*     14153 	.word	.LDW_47f4438
00001050 00            14154 	.byte	0
00001051 016b          14155 	.byte	1,107
                       14156 

                                                                      Page 252
                                                              C:\Users\NIKHIL~1.PAT\AppData\Local\Temp\gh_000aeoo1.s
                       14157 .LDW_3db2660:
00001053 1d            14158 	.byte	29
00001054 00000000*     14159 	.word	.LDW21
00001058 00000000*     14160 	.word	.LDW31
                       14161 
0000105c 00            14162 	.byte	0
                       14163 
0000105d 00            14164 	.byte	0
                       14165 
                       14166 .LDW_48287e8:
0000105e 13            14167 	.byte	19
0000105f 5267624c6564  14168 	.strz	"RgbLedDiagOutput"
00001065 446961674f75 
0000106b 7470757400 
00001070 cb01          14169 	.byte	203,1
00001072 06            14170 	.byte	6
00001073 01            14171 	.byte	1
00001074 00000000*     14172 	.word	_RgbLedDiagOutput
00001078 00000000*     14173 	.word	___ghs_eofn_RgbLedDiagOutput
0000107c 0153          14174 	.byte	1,83
0000107e 828080800a    14175 	.byte	130,128,128,128,10
00001083 08            14176 	.byte	8
00001084 02            14177 	.byte	2
00001085 08            14178 	.byte	8
00001086 00            14179 	.byte	0
00001087 00            14180 	.byte	0
00001088 00            14181 	.byte	0
00001089 01            14182 	.byte	1
0000108a 01            14183 	.byte	1
0000108b 00            14184 	.byte	0
0000108c 01            14185 	.byte	1
                       14186 
                       14187 	.section	.debug_frame
                       14188 .LDW_4bb48a8:
000000dc 00000000*     14189 	.word	.LDW_unq_8-.LDW_unq_7
                       14190 .LDW_unq_7:
000000e0 00000000*     14191 	.word	.LDW_47a71b0
000000e4 00000000*     14192 	.word	_RgbLedDiagOutput
000000e8 00000000*     14193 	.word	___ghs_eofn_RgbLedDiagOutput-_RgbLedDiagOutput
000000ec 46            14194 	.byte	70
000000ed 9f            14195 	.byte	159
000000ee 04            14196 	.byte	4
000000ef 44            14197 	.byte	68
000000f0 9d            14198 	.byte	157
000000f1 00            14199 	.byte	0
000000f2 01            14200 	.byte	1
000000f3 00000000*     14201 	.word	.LDW51
000000f7 44            14202 	.byte	68
000000f8 df            14203 	.byte	223
000000f9 44            14204 	.byte	68
000000fa dd            14205 	.byte	221
000000fb 00            14206 	.byte	0
                       14207 .LDW_unq_8:
                       14208 	.section	.debug_line
0000049d 000502        14209 	.byte	0,5,2
000004a0 00000000*     14210 	.word	_RgbLedDiagOutput
000004a4 03            14211 	.byte	3
000004a5 cb01          14212 	.byte	203,1
000004a7 02            14213 	.byte	2
000004a8 00            14214 	.byte	0
000004a9 01            14215 	.byte	1

                                                                      Page 253
                                                              C:\Users\NIKHIL~1.PAT\AppData\Local\Temp\gh_000aeoo1.s
000004aa 06            14216 	.byte	6
000004ab 4b            14217 	.byte	75
000004ac 000502        14218 	.byte	0,5,2
000004af 00000000*     14219 	.word	.LDWlin12
000004b3 0b            14220 	.byte	11
000004b4 0b            14221 	.byte	11
000004b5 23            14222 	.byte	35
000004b6 000502        14223 	.byte	0,5,2
000004b9 00000000*     14224 	.word	.LDWlin13
000004bd 0b            14225 	.byte	11
000004be 02            14226 	.byte	2
000004bf 00            14227 	.byte	0
000004c0 0b            14228 	.byte	11
000004c1 000502        14229 	.byte	0,5,2
000004c4 00000000*     14230 	.word	.LDWlin14
000004c8 0b            14231 	.byte	11
000004c9 0b            14232 	.byte	11
000004ca 23            14233 	.byte	35
000004cb 000502        14234 	.byte	0,5,2
000004ce 00000000*     14235 	.word	.LDWlin15
000004d2 0b            14236 	.byte	11
000004d3 02            14237 	.byte	2
000004d4 00            14238 	.byte	0
000004d5 0b            14239 	.byte	11
000004d6 000502        14240 	.byte	0,5,2
000004d9 00000000*     14241 	.word	.LDWlin16
000004dd 0b            14242 	.byte	11
000004de 0b            14243 	.byte	11
000004df 23            14244 	.byte	35
000004e0 000502        14245 	.byte	0,5,2
000004e3 00000000*     14246 	.word	.LDWlin17
000004e7 0b            14247 	.byte	11
000004e8 02            14248 	.byte	2
000004e9 00            14249 	.byte	0
000004ea 0b            14250 	.byte	11
000004eb 02            14251 	.byte	2
000004ec 0c            14252 	.byte	12
000004ed 000101        14253 	.byte	0,1,1
                       14254 	.section	.debug_info
                       14255 .LDW_3db2690:
0000108d 1d            14256 	.byte	29
0000108e 00000000*     14257 	.word	.LDW41
00001092 00000000*     14258 	.word	.LDW51
                       14259 
00001096 00            14260 	.byte	0
                       14261 
00001097 00            14262 	.byte	0
                       14263 
                       14264 .LDW_4828880:
00001098 14            14265 	.byte	20
00001099 557070657242  14266 	.strz	"UpperByteMirror"
0000109f 7974654d6972 
000010a5 726f7200 
000010a9 e401          14267 	.byte	228,1
000010ab 0a            14268 	.byte	10
000010ac 01            14269 	.byte	1
000010ad 00000000*     14270 	.word	.LDW_47f44e8
000010b1 00000000*     14271 	.word	_UpperByteMirror
000010b5 00000000*     14272 	.word	___ghs_eofn_UpperByteMirror
000010b9 0153          14273 	.byte	1,83
000010bb 02            14274 	.byte	2

                                                                      Page 254
                                                              C:\Users\NIKHIL~1.PAT\AppData\Local\Temp\gh_000aeoo1.s
000010bc 00            14275 	.byte	0
000010bd 02            14276 	.byte	2
000010be 00            14277 	.byte	0
000010bf 00            14278 	.byte	0
000010c0 00            14279 	.byte	0
000010c1 00            14280 	.byte	0
000010c2 01            14281 	.byte	1
000010c3 01            14282 	.byte	1
000010c4 00            14283 	.byte	0
000010c5 01            14284 	.byte	1
                       14285 
                       14286 	.section	.debug_abbrev
00000151 14            14287 	.byte	20
00000152 2e            14288 	.byte	46
00000153 01            14289 	.byte	1
00000154 0308          14290 	.byte	3,8
00000156 3b0f          14291 	.byte	59,15
00000158 390f          14292 	.byte	57,15
0000015a 3a0f          14293 	.byte	58,15
0000015c 4910          14294 	.byte	73,16
0000015e 1101          14295 	.byte	17,1
00000160 1201          14296 	.byte	18,1
00000162 400a          14297 	.byte	64,10
00000164 8341          14298 	.byte	131,65
00000166 0f            14299 	.byte	15
00000167 8741          14300 	.byte	135,65
00000169 0d            14301 	.byte	13
0000016a 8541          14302 	.byte	133,65
0000016c 0f            14303 	.byte	15
0000016d 8641          14304 	.byte	134,65
0000016f 0d            14305 	.byte	13
00000170 9241          14306 	.byte	146,65
00000172 0f            14307 	.byte	15
00000173 3c0c          14308 	.byte	60,12
00000175 200b          14309 	.byte	32,11
00000177 3f0c          14310 	.byte	63,12
00000179 320b          14311 	.byte	50,11
0000017b 4c0b          14312 	.byte	76,11
0000017d 270c          14313 	.byte	39,12
0000017f 0000          14314 	.byte	0,0
                       14315 
                       14316 	.section	.debug_frame
                       14317 .LDW_4bb49a8:
000000fc 00000000*     14318 	.word	.LDW_unq_a-.LDW_unq_9
                       14319 .LDW_unq_9:
00000100 00000000*     14320 	.word	.LDW_47a71b0
00000104 00000000*     14321 	.word	_UpperByteMirror
00000108 00000000*     14322 	.word	___ghs_eofn_UpperByteMirror-_UpperByteMirror
0000010c 01            14323 	.byte	1
0000010d 00000000*     14324 	.word	.LDW71
00000111 00            14325 	.byte	0
00000112 00            14326 	.byte	0
00000113 00            14327 	.byte	0
                       14328 .LDW_unq_a:
                       14329 	.section	.debug_line
000004f0 000502        14330 	.byte	0,5,2
000004f3 00000000*     14331 	.word	_UpperByteMirror
000004f7 03            14332 	.byte	3
000004f8 e401          14333 	.byte	228,1
000004fa 02            14334 	.byte	2
000004fb 00            14335 	.byte	0

                                                                      Page 255
                                                              C:\Users\NIKHIL~1.PAT\AppData\Local\Temp\gh_000aeoo1.s
000004fc 01            14336 	.byte	1
000004fd 06            14337 	.byte	6
000004fe 1d            14338 	.byte	29
000004ff 13            14339 	.byte	19
00000500 1c            14340 	.byte	28
00000501 13            14341 	.byte	19
00000502 02            14342 	.byte	2
00000503 02            14343 	.byte	2
00000504 14            14344 	.byte	20
00000505 000502        14345 	.byte	0,5,2
00000508 00000000*     14346 	.word	.LDWlin18
0000050c 0b            14347 	.byte	11
0000050d 0b            14348 	.byte	11
0000050e 3b            14349 	.byte	59
0000050f 02            14350 	.byte	2
00000510 00            14351 	.byte	0
00000511 03            14352 	.byte	3
00000512 7b            14353 	.byte	123
00000513 02            14354 	.byte	2
00000514 00            14355 	.byte	0
00000515 01            14356 	.byte	1
00000516 02            14357 	.byte	2
00000517 04            14358 	.byte	4
00000518 000502        14359 	.byte	0,5,2
0000051b 00000000*     14360 	.word	.LDWlin19
0000051f 03            14361 	.byte	3
00000520 06            14362 	.byte	6
00000521 02            14363 	.byte	2
00000522 00            14364 	.byte	0
00000523 01            14365 	.byte	1
00000524 0c            14366 	.byte	12
00000525 13            14367 	.byte	19
00000526 02            14368 	.byte	2
00000527 02            14369 	.byte	2
00000528 000101        14370 	.byte	0,1,1
                       14371 	.section	.debug_info
                       14372 .LDW_47f4540:
000010c6 0f            14373 	.byte	15
000010c7 43757272656e  14374 	.strz	"CurrentValue"
000010cd 7456616c7565 
000010d3 00 
000010d4 e401          14375 	.byte	228,1
000010d6 23            14376 	.byte	35
000010d7 01            14377 	.byte	1
000010d8 00000000*     14378 	.word	.LDW_47f44e8
000010dc 00            14379 	.byte	0
000010dd 0163          14380 	.byte	1,99
                       14381 
                       14382 .LDW_3db26f0:
000010df 1d            14383 	.byte	29
000010e0 00000000*     14384 	.word	.LDW61
000010e4 00000000*     14385 	.word	.LDW71
                       14386 
                       14387 .LDW_47f4598:
000010e8 04            14388 	.byte	4
000010e9 6c6f635f4d69  14389 	.strz	"loc_MirroredValue"
000010ef 72726f726564 
000010f5 56616c756500 
000010fb e601          14390 	.byte	230,1
000010fd 0e            14391 	.byte	14
000010fe 01            14392 	.byte	1

                                                                      Page 256
                                                              C:\Users\NIKHIL~1.PAT\AppData\Local\Temp\gh_000aeoo1.s
000010ff 00000000*     14393 	.word	.LDW_47f44e8
00001103 00            14394 	.byte	0
00001104 00            14395 	.byte	0
00001105 0151          14396 	.byte	1,81
                       14397 
                       14398 .LDW_47f45f0:
00001107 04            14399 	.byte	4
00001108 6900          14400 	.strz	"i"
0000110a e601          14401 	.byte	230,1
0000110c 21            14402 	.byte	33
0000110d 01            14403 	.byte	1
0000110e 00000000*     14404 	.word	.LDW_47f44e8
00001112 00            14405 	.byte	0
00001113 00            14406 	.byte	0
00001114 0152          14407 	.byte	1,82
                       14408 
00001116 00            14409 	.byte	0
                       14410 
00001117 00            14411 	.byte	0
                       14412 
                       14413 .LDW_4828918:
00001118 13            14414 	.byte	19
00001119 4c6564557064  14415 	.strz	"LedUpdate"
0000111f 61746500 
00001123 fe01          14416 	.byte	254,1
00001125 06            14417 	.byte	6
00001126 01            14418 	.byte	1
00001127 00000000*     14419 	.word	_LedUpdate
0000112b 00000000*     14420 	.word	___ghs_eofn_LedUpdate
0000112f 0153          14421 	.byte	1,83
00001131 8280808008    14422 	.byte	130,128,128,128,8
00001136 04            14423 	.byte	4
00001137 02            14424 	.byte	2
00001138 04            14425 	.byte	4
00001139 00            14426 	.byte	0
0000113a 00            14427 	.byte	0
0000113b 00            14428 	.byte	0
0000113c 01            14429 	.byte	1
0000113d 01            14430 	.byte	1
0000113e 00            14431 	.byte	0
0000113f 01            14432 	.byte	1
                       14433 
                       14434 	.section	.debug_frame
                       14435 .LDW_4bb4aa8:
00000114 00000000*     14436 	.word	.LDW_unq_c-.LDW_unq_b
                       14437 .LDW_unq_b:
00000118 00000000*     14438 	.word	.LDW_47a71b0
0000011c 00000000*     14439 	.word	_LedUpdate
00000120 00000000*     14440 	.word	___ghs_eofn_LedUpdate-_LedUpdate
00000124 46            14441 	.byte	70
00000125 9f            14442 	.byte	159
00000126 00            14443 	.byte	0
00000127 01            14444 	.byte	1
00000128 00000000*     14445 	.word	.LDW91
0000012c 44            14446 	.byte	68
0000012d df            14447 	.byte	223
0000012e 00            14448 	.byte	0
0000012f 00            14449 	.byte	0
                       14450 .LDW_unq_c:
                       14451 	.section	.debug_line
0000052b 000502        14452 	.byte	0,5,2

                                                                      Page 257
                                                              C:\Users\NIKHIL~1.PAT\AppData\Local\Temp\gh_000aeoo1.s
0000052e 00000000*     14453 	.word	_LedUpdate
00000532 03            14454 	.byte	3
00000533 fe01          14455 	.byte	254,1
00000535 02            14456 	.byte	2
00000536 00            14457 	.byte	0
00000537 01            14458 	.byte	1
00000538 06            14459 	.byte	6
00000539 03            14460 	.byte	3
0000053a 0b            14461 	.byte	11
0000053b 02            14462 	.byte	2
0000053c 06            14463 	.byte	6
0000053d 01            14464 	.byte	1
0000053e 000502        14465 	.byte	0,5,2
00000541 00000000*     14466 	.word	.LDWlin20
00000545 0d            14467 	.byte	13
00000546 000502        14468 	.byte	0,5,2
00000549 00000000*     14469 	.word	.LDWlin21
0000054d 0b            14470 	.byte	11
0000054e 0b            14471 	.byte	11
0000054f 000502        14472 	.byte	0,5,2
00000552 00000000*     14473 	.word	.LDWlin22
00000556 0b            14474 	.byte	11
00000557 0b            14475 	.byte	11
00000558 43            14476 	.byte	67
00000559 000502        14477 	.byte	0,5,2
0000055c 00000000*     14478 	.word	.LDWlin23
00000560 0b            14479 	.byte	11
00000561 000502        14480 	.byte	0,5,2
00000564 00000000*     14481 	.word	.LDWlin24
00000568 0b            14482 	.byte	11
00000569 0b            14483 	.byte	11
0000056a 000502        14484 	.byte	0,5,2
0000056d 00000000*     14485 	.word	.LDWlin25
00000571 0b            14486 	.byte	11
00000572 02            14487 	.byte	2
00000573 00            14488 	.byte	0
00000574 0b            14489 	.byte	11
00000575 0c            14490 	.byte	12
00000576 0b            14491 	.byte	11
00000577 43            14492 	.byte	67
00000578 000502        14493 	.byte	0,5,2
0000057b 00000000*     14494 	.word	.LDWlin26
0000057f 0b            14495 	.byte	11
00000580 000502        14496 	.byte	0,5,2
00000583 00000000*     14497 	.word	.LDWlin27
00000587 0b            14498 	.byte	11
00000588 0b            14499 	.byte	11
00000589 2b            14500 	.byte	43
0000058a 2b            14501 	.byte	43
0000058b 02            14502 	.byte	2
0000058c 00            14503 	.byte	0
0000058d 0b            14504 	.byte	11
0000058e 02            14505 	.byte	2
0000058f 00            14506 	.byte	0
00000590 0b            14507 	.byte	11
00000591 02            14508 	.byte	2
00000592 00            14509 	.byte	0
00000593 0b            14510 	.byte	11
00000594 000502        14511 	.byte	0,5,2
00000597 00000000*     14512 	.word	.LDWlin28
0000059b 0b            14513 	.byte	11

                                                                      Page 258
                                                              C:\Users\NIKHIL~1.PAT\AppData\Local\Temp\gh_000aeoo1.s
0000059c 0b            14514 	.byte	11
0000059d 000502        14515 	.byte	0,5,2
000005a0 00000000*     14516 	.word	.LDWlin29
000005a4 0b            14517 	.byte	11
000005a5 0b            14518 	.byte	11
000005a6 43            14519 	.byte	67
000005a7 000502        14520 	.byte	0,5,2
000005aa 00000000*     14521 	.word	.LDWlin30
000005ae 0b            14522 	.byte	11
000005af 000502        14523 	.byte	0,5,2
000005b2 00000000*     14524 	.word	.LDWlin31
000005b6 0b            14525 	.byte	11
000005b7 0b            14526 	.byte	11
000005b8 000502        14527 	.byte	0,5,2
000005bb 00000000*     14528 	.word	.LDWlin32
000005bf 0b            14529 	.byte	11
000005c0 02            14530 	.byte	2
000005c1 00            14531 	.byte	0
000005c2 0b            14532 	.byte	11
000005c3 0c            14533 	.byte	12
000005c4 0b            14534 	.byte	11
000005c5 43            14535 	.byte	67
000005c6 000502        14536 	.byte	0,5,2
000005c9 00000000*     14537 	.word	.LDWlin33
000005cd 0b            14538 	.byte	11
000005ce 000502        14539 	.byte	0,5,2
000005d1 00000000*     14540 	.word	.LDWlin34
000005d5 0b            14541 	.byte	11
000005d6 0b            14542 	.byte	11
000005d7 2b            14543 	.byte	43
000005d8 23            14544 	.byte	35
000005d9 02            14545 	.byte	2
000005da 00            14546 	.byte	0
000005db 0b            14547 	.byte	11
000005dc 02            14548 	.byte	2
000005dd 00            14549 	.byte	0
000005de 0b            14550 	.byte	11
000005df 02            14551 	.byte	2
000005e0 00            14552 	.byte	0
000005e1 0d            14553 	.byte	13
000005e2 000502        14554 	.byte	0,5,2
000005e5 00000000*     14555 	.word	.LDWlin35
000005e9 0b            14556 	.byte	11
000005ea 0b            14557 	.byte	11
000005eb 33            14558 	.byte	51
000005ec 000502        14559 	.byte	0,5,2
000005ef 00000000*     14560 	.word	.LDWlin36
000005f3 0b            14561 	.byte	11
000005f4 0b            14562 	.byte	11
000005f5 3b            14563 	.byte	59
000005f6 43            14564 	.byte	67
000005f7 5b            14565 	.byte	91
000005f8 000502        14566 	.byte	0,5,2
000005fb 00000000*     14567 	.word	.LDWlin37
000005ff 0b            14568 	.byte	11
00000600 0b            14569 	.byte	11
00000601 000502        14570 	.byte	0,5,2
00000604 00000000*     14571 	.word	.LDWlin38
00000608 0b            14572 	.byte	11
00000609 02            14573 	.byte	2
0000060a 00            14574 	.byte	0

                                                                      Page 259
                                                              C:\Users\NIKHIL~1.PAT\AppData\Local\Temp\gh_000aeoo1.s
0000060b 0b            14575 	.byte	11
0000060c 0c            14576 	.byte	12
0000060d 0b            14577 	.byte	11
0000060e 000502        14578 	.byte	0,5,2
00000611 00000000*     14579 	.word	.LDWlin39
00000615 0b            14580 	.byte	11
00000616 0b            14581 	.byte	11
00000617 000502        14582 	.byte	0,5,2
0000061a 00000000*     14583 	.word	.LDWlin40
0000061e 0b            14584 	.byte	11
0000061f 0c            14585 	.byte	12
00000620 0b            14586 	.byte	11
00000621 3b            14587 	.byte	59
00000622 43            14588 	.byte	67
00000623 33            14589 	.byte	51
00000624 5b            14590 	.byte	91
00000625 02            14591 	.byte	2
00000626 00            14592 	.byte	0
00000627 0b            14593 	.byte	11
00000628 02            14594 	.byte	2
00000629 00            14595 	.byte	0
0000062a 0b            14596 	.byte	11
0000062b 02            14597 	.byte	2
0000062c 00            14598 	.byte	0
0000062d 0c            14599 	.byte	12
0000062e 3d            14600 	.byte	61
0000062f 000502        14601 	.byte	0,5,2
00000632 00000000*     14602 	.word	.LDWlin41
00000636 0b            14603 	.byte	11
00000637 0c            14604 	.byte	12
00000638 000502        14605 	.byte	0,5,2
0000063b 00000000*     14606 	.word	.LDWlin42
0000063f 0c            14607 	.byte	12
00000640 000502        14608 	.byte	0,5,2
00000643 00000000*     14609 	.word	.LDWlin43
00000647 0b            14610 	.byte	11
00000648 43            14611 	.byte	67
00000649 02            14612 	.byte	2
0000064a 00            14613 	.byte	0
0000064b 0b            14614 	.byte	11
0000064c 000502        14615 	.byte	0,5,2
0000064f 00000000*     14616 	.word	.LDWlin44
00000653 0b            14617 	.byte	11
00000654 0b            14618 	.byte	11
00000655 33            14619 	.byte	51
00000656 02            14620 	.byte	2
00000657 00            14621 	.byte	0
00000658 0b            14622 	.byte	11
00000659 5c            14623 	.byte	92
0000065a 43            14624 	.byte	67
0000065b 02            14625 	.byte	2
0000065c 08            14626 	.byte	8
0000065d 000101        14627 	.byte	0,1,1
                       14628 	.section	.debug_info
                       14629 .LDW_3db2720:
00001140 1d            14630 	.byte	29
00001141 00000000*     14631 	.word	.LDW81
00001145 00000000*     14632 	.word	.LDW91
                       14633 
                       14634 .LDW_47f4648:
00001149 04            14635 	.byte	4

                                                                      Page 260
                                                              C:\Users\NIKHIL~1.PAT\AppData\Local\Temp\gh_000aeoo1.s
0000114a 6c6f635f4c45  14636 	.strz	"loc_LED1Duty"
00001150 443144757479 
00001156 00 
00001157 8002          14637 	.byte	128,2
00001159 15            14638 	.byte	21
0000115a 01            14639 	.byte	1
0000115b 00000000*     14640 	.word	.LDW_47f4438
0000115f 00            14641 	.byte	0
00001160 00            14642 	.byte	0
00001161 0503          14643 	.byte	5,3
00001163 00000000*     14644 	.word	_loc_LED1Duty.LedUpdate.C.3A.5CUsers.5Cnikhil.2Epatil.5CDocuments.5Crenesas.5CRH850_F1L_sample.5Ctoolchain.5CGHS.5Coutput.5Cobj.5Cr_tasks..0
                       14645 
                       14646 .LDW_47f46a0:
00001167 04            14647 	.byte	4
00001168 6c6f635f4c45  14648 	.strz	"loc_LED2Duty"
0000116e 443244757479 
00001174 00 
00001175 8102          14649 	.byte	129,2
00001177 15            14650 	.byte	21
00001178 01            14651 	.byte	1
00001179 00000000*     14652 	.word	.LDW_47f4438
0000117d 00            14653 	.byte	0
0000117e 00            14654 	.byte	0
0000117f 0503          14655 	.byte	5,3
00001181 00000000*     14656 	.word	_loc_LED2Duty.LedUpdate.C.3A.5CUsers.5Cnikhil.2Epatil.5CDocuments.5Crenesas.5CRH850_F1L_sample.5Ctoolchain.5CGHS.5Coutput.5Cobj.5Cr_tasks..1
                       14657 
                       14658 .LDW_47f46f8:
00001185 04            14659 	.byte	4
00001186 6c6f635f4c45  14660 	.strz	"loc_LEDWaveDirection"
0000118c 445761766544 
00001192 697265637469 
00001198 6f6e00 
0000119b 8202          14661 	.byte	130,2
0000119d 15            14662 	.byte	21
0000119e 01            14663 	.byte	1
0000119f 00000000*     14664 	.word	.LDW_47f4438
000011a3 00            14665 	.byte	0
000011a4 00            14666 	.byte	0
000011a5 0503          14667 	.byte	5,3
000011a7 00000000*     14668 	.word	_loc_LEDWaveDirection.LedUpdate.C.3A.5CUsers.5Cnikhil.2Epatil.5CDocuments.5Crenesas.5CRH850_F1L_sample.5Ctoolchain.5CGHS.5Coutput.5Cobj.5Cr_tasks..2
                       14669 
                       14670 .LDW_47f4750:
000011ab 04            14671 	.byte	4
000011ac 6c6f635f4c45  14672 	.strz	"loc_LEDWave"
000011b2 445761766500 
000011b8 8302          14673 	.byte	131,2
000011ba 15            14674 	.byte	21
000011bb 01            14675 	.byte	1
000011bc 00000000*     14676 	.word	.LDW_47f4438
000011c0 00            14677 	.byte	0
000011c1 00            14678 	.byte	0
000011c2 0503          14679 	.byte	5,3
000011c4 00000000*     14680 	.word	_loc_LEDWave.LedUpdate.C.3A.5CUsers.5Cnikhil.2Epatil.5CDocuments.5Crenesas.5CRH850_F1L_sample.5Ctoolchain.5CGHS.5Coutput.5Cobj.5Cr_tasks..3
                       14681 
                       14682 .LDW_47f47a8:
000011c8 04            14683 	.byte	4
000011c9 6c6f635f5570  14684 	.strz	"loc_UpdateCounter"
000011cf 64617465436f 
000011d5 756e74657200 
000011db 8402          14685 	.byte	132,2
000011dd 15            14686 	.byte	21

                                                                      Page 261
                                                              C:\Users\NIKHIL~1.PAT\AppData\Local\Temp\gh_000aeoo1.s
000011de 01            14687 	.byte	1
000011df 00000000*     14688 	.word	.LDW_47f4438
000011e3 00            14689 	.byte	0
000011e4 00            14690 	.byte	0
000011e5 0503          14691 	.byte	5,3
000011e7 00000000*     14692 	.word	_loc_UpdateCounter.LedUpdate.C.3A.5CUsers.5Cnikhil.2Epatil.5CDocuments.5Crenesas.5CRH850_F1L_sample.5Ctoolchain.5CGHS.5Coutput.5Cobj.5Cr_tasks..4
                       14693 
                       14694 .LDW_47f4800:
000011eb 04            14695 	.byte	4
000011ec 6c6f635f4c45  14696 	.strz	"loc_LEDRingMask"
000011f2 4452696e674d 
000011f8 61736b00 
000011fc 8502          14697 	.byte	133,2
000011fe 15            14698 	.byte	21
000011ff 01            14699 	.byte	1
00001200 00000000*     14700 	.word	.LDW_47f4438
00001204 00            14701 	.byte	0
00001205 00            14702 	.byte	0
00001206 0503          14703 	.byte	5,3
00001208 00000000*     14704 	.word	_loc_LEDRingMask.LedUpdate.C.3A.5CUsers.5Cnikhil.2Epatil.5CDocuments.5Crenesas.5CRH850_F1L_sample.5Ctoolchain.5CGHS.5Coutput.5Cobj.5Cr_tasks..5
                       14705 
                       14706 .LDW_47f4858:
0000120c 04            14707 	.byte	4
0000120d 6c6f635f7465  14708 	.strz	"loc_temp"
00001213 6d7000 
00001216 8602          14709 	.byte	134,2
00001218 15            14710 	.byte	21
00001219 01            14711 	.byte	1
0000121a 00000000*     14712 	.word	.LDW_47f4438
0000121e 00            14713 	.byte	0
0000121f 00            14714 	.byte	0
00001220 0503          14715 	.byte	5,3
00001222 00000000*     14716 	.word	_loc_temp.LedUpdate.C.3A.5CUsers.5Cnikhil.2Epatil.5CDocuments.5Crenesas.5CRH850_F1L_sample.5Ctoolchain.5CGHS.5Coutput.5Cobj.5Cr_tasks..6
                       14717 
00001226 00            14718 	.byte	0
                       14719 
00001227 00            14720 	.byte	0
                       14721 
                       14722 .LDW_48289b0:
00001228 13            14723 	.byte	19
00001229 5072696e7453  14724 	.strz	"PrintStatus"
0000122f 746174757300 
00001235 f302          14725 	.byte	243,2
00001237 06            14726 	.byte	6
00001238 01            14727 	.byte	1
00001239 00000000*     14728 	.word	_PrintStatus
0000123d 00000000*     14729 	.word	___ghs_eofn_PrintStatus
00001241 0153          14730 	.byte	1,83
00001243 828080800b    14731 	.byte	130,128,128,128,11
00001248 0c            14732 	.byte	12
00001249 02            14733 	.byte	2
0000124a 0c            14734 	.byte	12
0000124b 00            14735 	.byte	0
0000124c 00            14736 	.byte	0
0000124d 00            14737 	.byte	0
0000124e 01            14738 	.byte	1
0000124f 01            14739 	.byte	1
00001250 00            14740 	.byte	0
00001251 01            14741 	.byte	1
                       14742 
                       14743 	.section	.debug_frame

                                                                      Page 262
                                                              C:\Users\NIKHIL~1.PAT\AppData\Local\Temp\gh_000aeoo1.s
                       14744 .LDW_4bb4ba8:
00000130 00000000*     14745 	.word	.LDW_unq_e-.LDW_unq_d
                       14746 .LDW_unq_d:
00000134 00000000*     14747 	.word	.LDW_47a71b0
00000138 00000000*     14748 	.word	_PrintStatus
0000013c 00000000*     14749 	.word	___ghs_eofn_PrintStatus-_PrintStatus
00000140 46            14750 	.byte	70
00000141 9f            14751 	.byte	159
00000142 08            14752 	.byte	8
00000143 44            14753 	.byte	68
00000144 9c            14754 	.byte	156
00000145 04            14755 	.byte	4
00000146 44            14756 	.byte	68
00000147 9d            14757 	.byte	157
00000148 00            14758 	.byte	0
00000149 01            14759 	.byte	1
0000014a 00000000*     14760 	.word	.LDW12
0000014e 44            14761 	.byte	68
0000014f df            14762 	.byte	223
00000150 44            14763 	.byte	68
00000151 dd            14764 	.byte	221
00000152 44            14765 	.byte	68
00000153 dc            14766 	.byte	220
                       14767 .LDW_unq_e:
                       14768 	.section	.debug_line
00000660 000502        14769 	.byte	0,5,2
00000663 00000000*     14770 	.word	_PrintStatus
00000667 03            14771 	.byte	3
00000668 f302          14772 	.byte	243,2
0000066a 02            14773 	.byte	2
0000066b 00            14774 	.byte	0
0000066c 01            14775 	.byte	1
0000066d 06            14776 	.byte	6
0000066e 43            14777 	.byte	67
0000066f 03            14778 	.byte	3
00000670 04            14779 	.byte	4
00000671 02            14780 	.byte	2
00000672 06            14781 	.byte	6
00000673 01            14782 	.byte	1
00000674 5c            14783 	.byte	92
00000675 000502        14784 	.byte	0,5,2
00000678 00000000*     14785 	.word	.LDWlin45
0000067c 0b            14786 	.byte	11
0000067d 0b            14787 	.byte	11
0000067e 1b            14788 	.byte	27
0000067f 02            14789 	.byte	2
00000680 00            14790 	.byte	0
00000681 0c            14791 	.byte	12
00000682 000502        14792 	.byte	0,5,2
00000685 00000000*     14793 	.word	.LDWlin46
00000689 0b            14794 	.byte	11
0000068a 000502        14795 	.byte	0,5,2
0000068d 00000000*     14796 	.word	.LDWlin47
00000691 0b            14797 	.byte	11
00000692 02            14798 	.byte	2
00000693 10            14799 	.byte	16
00000694 000101        14800 	.byte	0,1,1
                       14801 	.section	.debug_info
                       14802 .LDW_3db2750:
00001252 1d            14803 	.byte	29
00001253 00000000*     14804 	.word	.LDW02

                                                                      Page 263
                                                              C:\Users\NIKHIL~1.PAT\AppData\Local\Temp\gh_000aeoo1.s
00001257 00000000*     14805 	.word	.LDW12
                       14806 
                       14807 .LDW_47f48b0:
0000125b 04            14808 	.byte	4
0000125c 746d7000      14809 	.strz	"tmp"
00001260 f502          14810 	.byte	245,2
00001262 0d            14811 	.byte	13
00001263 01            14812 	.byte	1
00001264 00000000*     14813 	.word	.LDW_48323f0
00001268 00            14814 	.byte	0
00001269 00            14815 	.byte	0
0000126a 016c          14816 	.byte	1,108
                       14817 
                       14818 .LDW_47f4908:
0000126c 04            14819 	.byte	4
0000126d 6c6f635f7065  14820 	.strz	"loc_percentPot"
00001273 7263656e7450 
00001279 6f7400 
0000127c f602          14821 	.byte	246,2
0000127e 0e            14822 	.byte	14
0000127f 01            14823 	.byte	1
00001280 00000000*     14824 	.word	.LDW_47f4438
00001284 00            14825 	.byte	0
00001285 00            14826 	.byte	0
00001286 016d          14827 	.byte	1,109
                       14828 
00001288 00            14829 	.byte	0
                       14830 
00001289 00            14831 	.byte	0
                       14832 
                       14833 .LDW_4828a48:
0000128a 13            14834 	.byte	19
0000128b 537769746368  14835 	.strz	"SwitchRGBColor"
00001291 524742436f6c 
00001297 6f7200 
0000129a 8a03          14836 	.byte	138,3
0000129c 06            14837 	.byte	6
0000129d 01            14838 	.byte	1
0000129e 00000000*     14839 	.word	_SwitchRGBColor
000012a2 00000000*     14840 	.word	___ghs_eofn_SwitchRGBColor
000012a6 0153          14841 	.byte	1,83
000012a8 828080800b    14842 	.byte	130,128,128,128,11
000012ad 0c            14843 	.byte	12
000012ae 02            14844 	.byte	2
000012af 0c            14845 	.byte	12
000012b0 00            14846 	.byte	0
000012b1 00            14847 	.byte	0
000012b2 00            14848 	.byte	0
000012b3 01            14849 	.byte	1
000012b4 01            14850 	.byte	1
000012b5 00            14851 	.byte	0
000012b6 01            14852 	.byte	1
                       14853 
                       14854 	.section	.debug_frame
                       14855 .LDW_4bb4ca8:
00000154 00000000*     14856 	.word	.LDW_unq_10-.LDW_unq_f
                       14857 .LDW_unq_f:
00000158 00000000*     14858 	.word	.LDW_47a71b0
0000015c 00000000*     14859 	.word	_SwitchRGBColor
00000160 00000000*     14860 	.word	___ghs_eofn_SwitchRGBColor-_SwitchRGBColor
00000164 46            14861 	.byte	70

                                                                      Page 264
                                                              C:\Users\NIKHIL~1.PAT\AppData\Local\Temp\gh_000aeoo1.s
00000165 9f            14862 	.byte	159
00000166 08            14863 	.byte	8
00000167 44            14864 	.byte	68
00000168 9c            14865 	.byte	156
00000169 04            14866 	.byte	4
0000016a 44            14867 	.byte	68
0000016b 9d            14868 	.byte	157
0000016c 00            14869 	.byte	0
0000016d 01            14870 	.byte	1
0000016e 00000000*     14871 	.word	.LDW32
00000172 44            14872 	.byte	68
00000173 df            14873 	.byte	223
00000174 44            14874 	.byte	68
00000175 dd            14875 	.byte	221
00000176 44            14876 	.byte	68
00000177 dc            14877 	.byte	220
                       14878 .LDW_unq_10:
                       14879 	.section	.debug_line
00000697 000502        14880 	.byte	0,5,2
0000069a 00000000*     14881 	.word	_SwitchRGBColor
0000069e 03            14882 	.byte	3
0000069f 8a03          14883 	.byte	138,3
000006a1 02            14884 	.byte	2
000006a2 00            14885 	.byte	0
000006a3 01            14886 	.byte	1
000006a4 06            14887 	.byte	6
000006a5 73            14888 	.byte	115
000006a6 000502        14889 	.byte	0,5,2
000006a9 00000000*     14890 	.word	.LDWlin48
000006ad 0b            14891 	.byte	11
000006ae 0b            14892 	.byte	11
000006af 000502        14893 	.byte	0,5,2
000006b2 00000000*     14894 	.word	.LDWlin49
000006b6 0b            14895 	.byte	11
000006b7 0c            14896 	.byte	12
000006b8 0b            14897 	.byte	11
000006b9 33            14898 	.byte	51
000006ba 02            14899 	.byte	2
000006bb 00            14900 	.byte	0
000006bc 0b            14901 	.byte	11
000006bd 000502        14902 	.byte	0,5,2
000006c0 00000000*     14903 	.word	.LDWlin50
000006c4 0b            14904 	.byte	11
000006c5 000502        14905 	.byte	0,5,2
000006c8 00000000*     14906 	.word	.LDWlin51
000006cc 0b            14907 	.byte	11
000006cd 000502        14908 	.byte	0,5,2
000006d0 00000000*     14909 	.word	.LDWlin52
000006d4 0b            14910 	.byte	11
000006d5 02            14911 	.byte	2
000006d6 10            14912 	.byte	16
000006d7 000101        14913 	.byte	0,1,1
                       14914 	.section	.debug_info
                       14915 .LDW_3db2780:
000012b7 1d            14916 	.byte	29
000012b8 00000000*     14917 	.word	.LDW22
000012bc 00000000*     14918 	.word	.LDW32
                       14919 
000012c0 00            14920 	.byte	0
                       14921 
000012c1 00            14922 	.byte	0

                                                                      Page 265
                                                              C:\Users\NIKHIL~1.PAT\AppData\Local\Temp\gh_000aeoo1.s
                       14923 
                       14924 .LDW_4828ae0:
000012c2 13            14925 	.byte	19
000012c3 4d6f64653100  14926 	.strz	"Mode1"
000012c9 9f03          14927 	.byte	159,3
000012cb 06            14928 	.byte	6
000012cc 01            14929 	.byte	1
000012cd 00000000*     14930 	.word	_Mode1
000012d1 00000000*     14931 	.word	___ghs_eofn_Mode1
000012d5 0153          14932 	.byte	1,83
000012d7 828080fc0b    14933 	.byte	130,128,128,252,11
000012dc 20            14934 	.byte	32
000012dd 02            14935 	.byte	2
000012de 20            14936 	.byte	32
000012df 00            14937 	.byte	0
000012e0 00            14938 	.byte	0
000012e1 00            14939 	.byte	0
000012e2 01            14940 	.byte	1
000012e3 01            14941 	.byte	1
000012e4 00            14942 	.byte	0
000012e5 01            14943 	.byte	1
                       14944 
                       14945 	.section	.debug_frame
                       14946 .LDW_4617c48:
00000178 00000000*     14947 	.word	.LDW_unq_12-.LDW_unq_11
                       14948 .LDW_unq_11:
0000017c 00000000*     14949 	.word	.LDW_47a71b0
00000180 00000000*     14950 	.word	_Mode1
00000184 00000000*     14951 	.word	___ghs_eofn_Mode1-_Mode1
00000188 48            14952 	.byte	72
00000189 9f            14953 	.byte	159
0000018a 1c            14954 	.byte	28
0000018b 44            14955 	.byte	68
0000018c 9a            14956 	.byte	154
0000018d 0c            14957 	.byte	12
0000018e 44            14958 	.byte	68
0000018f 9c            14959 	.byte	156
00000190 04            14960 	.byte	4
00000191 44            14961 	.byte	68
00000192 9d            14962 	.byte	157
00000193 00            14963 	.byte	0
00000194 44            14964 	.byte	68
00000195 97            14965 	.byte	151
00000196 18            14966 	.byte	24
00000197 44            14967 	.byte	68
00000198 98            14968 	.byte	152
00000199 14            14969 	.byte	20
0000019a 44            14970 	.byte	68
0000019b 99            14971 	.byte	153
0000019c 10            14972 	.byte	16
0000019d 44            14973 	.byte	68
0000019e 9b            14974 	.byte	155
0000019f 08            14975 	.byte	8
000001a0 01            14976 	.byte	1
000001a1 00000000*     14977 	.word	.LDW52
000001a5 44            14978 	.byte	68
000001a6 df            14979 	.byte	223
000001a7 44            14980 	.byte	68
000001a8 dd            14981 	.byte	221
000001a9 44            14982 	.byte	68
000001aa dc            14983 	.byte	220

                                                                      Page 266
                                                              C:\Users\NIKHIL~1.PAT\AppData\Local\Temp\gh_000aeoo1.s
000001ab 44            14984 	.byte	68
000001ac db            14985 	.byte	219
000001ad 44            14986 	.byte	68
000001ae da            14987 	.byte	218
000001af 44            14988 	.byte	68
000001b0 d9            14989 	.byte	217
000001b1 44            14990 	.byte	68
000001b2 d8            14991 	.byte	216
000001b3 44            14992 	.byte	68
000001b4 d7            14993 	.byte	215
000001b5 00            14994 	.byte	0
000001b6 00            14995 	.byte	0
000001b7 00            14996 	.byte	0
                       14997 .LDW_unq_12:
                       14998 	.section	.debug_line
000006da 000502        14999 	.byte	0,5,2
000006dd 00000000*     15000 	.word	_Mode1
000006e1 03            15001 	.byte	3
000006e2 9f03          15002 	.byte	159,3
000006e4 02            15003 	.byte	2
000006e5 00            15004 	.byte	0
000006e6 01            15005 	.byte	1
000006e7 06            15006 	.byte	6
000006e8 03            15007 	.byte	3
000006e9 06            15008 	.byte	6
000006ea 02            15009 	.byte	2
000006eb 36            15010 	.byte	54
000006ec 01            15011 	.byte	1
000006ed 1b            15012 	.byte	27
000006ee 1d            15013 	.byte	29
000006ef 1b            15014 	.byte	27
000006f0 1b            15015 	.byte	27
000006f1 1c            15016 	.byte	28
000006f2 000502        15017 	.byte	0,5,2
000006f5 00000000*     15018 	.word	.LDWlin53
000006f9 0b            15019 	.byte	11
000006fa 000502        15020 	.byte	0,5,2
000006fd 00000000*     15021 	.word	.LDWlin54
00000701 0d            15022 	.byte	13
00000702 000502        15023 	.byte	0,5,2
00000705 00000000*     15024 	.word	.LDWlin55
00000709 0b            15025 	.byte	11
0000070a 000502        15026 	.byte	0,5,2
0000070d 00000000*     15027 	.word	.LDWlin56
00000711 0b            15028 	.byte	11
00000712 000502        15029 	.byte	0,5,2
00000715 00000000*     15030 	.word	.LDWlin57
00000719 0c            15031 	.byte	12
0000071a 000502        15032 	.byte	0,5,2
0000071d 00000000*     15033 	.word	.LDWlin58
00000721 0b            15034 	.byte	11
00000722 000502        15035 	.byte	0,5,2
00000725 00000000*     15036 	.word	.LDWlin59
00000729 0b            15037 	.byte	11
0000072a 000502        15038 	.byte	0,5,2
0000072d 00000000*     15039 	.word	.LDWlin60
00000731 0b            15040 	.byte	11
00000732 000502        15041 	.byte	0,5,2
00000735 00000000*     15042 	.word	.LDWlin61
00000739 0b            15043 	.byte	11
0000073a 000502        15044 	.byte	0,5,2

                                                                      Page 267
                                                              C:\Users\NIKHIL~1.PAT\AppData\Local\Temp\gh_000aeoo1.s
0000073d 00000000*     15045 	.word	.LDWlin62
00000741 0c            15046 	.byte	12
00000742 000502        15047 	.byte	0,5,2
00000745 00000000*     15048 	.word	.LDWlin63
00000749 0b            15049 	.byte	11
0000074a 000502        15050 	.byte	0,5,2
0000074d 00000000*     15051 	.word	.LDWlin64
00000751 0b            15052 	.byte	11
00000752 000502        15053 	.byte	0,5,2
00000755 00000000*     15054 	.word	.LDWlin65
00000759 0b            15055 	.byte	11
0000075a 000502        15056 	.byte	0,5,2
0000075d 00000000*     15057 	.word	.LDWlin66
00000761 0b            15058 	.byte	11
00000762 000502        15059 	.byte	0,5,2
00000765 00000000*     15060 	.word	.LDWlin67
00000769 0b            15061 	.byte	11
0000076a 000502        15062 	.byte	0,5,2
0000076d 00000000*     15063 	.word	.LDWlin68
00000771 0c            15064 	.byte	12
00000772 000502        15065 	.byte	0,5,2
00000775 00000000*     15066 	.word	.LDWlin69
00000779 0d            15067 	.byte	13
0000077a 000502        15068 	.byte	0,5,2
0000077d 00000000*     15069 	.word	.LDWlin70
00000781 0b            15070 	.byte	11
00000782 3c            15071 	.byte	60
00000783 000502        15072 	.byte	0,5,2
00000786 00000000*     15073 	.word	.LDWlin71
0000078a 0b            15074 	.byte	11
0000078b 0b            15075 	.byte	11
0000078c 000502        15076 	.byte	0,5,2
0000078f 00000000*     15077 	.word	.LDWlin72
00000793 0b            15078 	.byte	11
00000794 0c            15079 	.byte	12
00000795 0b            15080 	.byte	11
00000796 000502        15081 	.byte	0,5,2
00000799 00000000*     15082 	.word	.LDWlin73
0000079d 0b            15083 	.byte	11
0000079e 02            15084 	.byte	2
0000079f 00            15085 	.byte	0
000007a0 0c            15086 	.byte	12
000007a1 000502        15087 	.byte	0,5,2
000007a4 00000000*     15088 	.word	.LDWlin74
000007a8 0d            15089 	.byte	13
000007a9 000502        15090 	.byte	0,5,2
000007ac 00000000*     15091 	.word	.LDWlin75
000007b0 0d            15092 	.byte	13
000007b1 000502        15093 	.byte	0,5,2
000007b4 00000000*     15094 	.word	.LDWlin76
000007b8 0b            15095 	.byte	11
000007b9 000502        15096 	.byte	0,5,2
000007bc 00000000*     15097 	.word	.LDWlin77
000007c0 0b            15098 	.byte	11
000007c1 000502        15099 	.byte	0,5,2
000007c4 00000000*     15100 	.word	.LDWlin78
000007c8 0b            15101 	.byte	11
000007c9 0b            15102 	.byte	11
000007ca 000502        15103 	.byte	0,5,2
000007cd 00000000*     15104 	.word	.LDWlin79
000007d1 0b            15105 	.byte	11

                                                                      Page 268
                                                              C:\Users\NIKHIL~1.PAT\AppData\Local\Temp\gh_000aeoo1.s
000007d2 0c            15106 	.byte	12
000007d3 0b            15107 	.byte	11
000007d4 000502        15108 	.byte	0,5,2
000007d7 00000000*     15109 	.word	.LDWlin80
000007db 0b            15110 	.byte	11
000007dc 02            15111 	.byte	2
000007dd 00            15112 	.byte	0
000007de 0d            15113 	.byte	13
000007df 000502        15114 	.byte	0,5,2
000007e2 00000000*     15115 	.word	.LDWlin81
000007e6 0b            15116 	.byte	11
000007e7 0b            15117 	.byte	11
000007e8 1b            15118 	.byte	27
000007e9 000502        15119 	.byte	0,5,2
000007ec 00000000*     15120 	.word	.LDWlin82
000007f0 0b            15121 	.byte	11
000007f1 0b            15122 	.byte	11
000007f2 000502        15123 	.byte	0,5,2
000007f5 00000000*     15124 	.word	.LDWlin83
000007f9 0b            15125 	.byte	11
000007fa 0b            15126 	.byte	11
000007fb 000502        15127 	.byte	0,5,2
000007fe 00000000*     15128 	.word	.LDWlin84
00000802 0b            15129 	.byte	11
00000803 0c            15130 	.byte	12
00000804 0b            15131 	.byte	11
00000805 000502        15132 	.byte	0,5,2
00000808 00000000*     15133 	.word	.LDWlin85
0000080c 0b            15134 	.byte	11
0000080d 02            15135 	.byte	2
0000080e 00            15136 	.byte	0
0000080f 0b            15137 	.byte	11
00000810 0c            15138 	.byte	12
00000811 0b            15139 	.byte	11
00000812 000502        15140 	.byte	0,5,2
00000815 00000000*     15141 	.word	.LDWlin86
00000819 0b            15142 	.byte	11
0000081a 0b            15143 	.byte	11
0000081b 000502        15144 	.byte	0,5,2
0000081e 00000000*     15145 	.word	.LDWlin87
00000822 0b            15146 	.byte	11
00000823 0c            15147 	.byte	12
00000824 0b            15148 	.byte	11
00000825 43            15149 	.byte	67
00000826 02            15150 	.byte	2
00000827 00            15151 	.byte	0
00000828 0b            15152 	.byte	11
00000829 02            15153 	.byte	2
0000082a 00            15154 	.byte	0
0000082b 0b            15155 	.byte	11
0000082c 000502        15156 	.byte	0,5,2
0000082f 00000000*     15157 	.word	.LDWlin88
00000833 0b            15158 	.byte	11
00000834 0b            15159 	.byte	11
00000835 000502        15160 	.byte	0,5,2
00000838 00000000*     15161 	.word	.LDWlin89
0000083c 0b            15162 	.byte	11
0000083d 0c            15163 	.byte	12
0000083e 0b            15164 	.byte	11
0000083f 000502        15165 	.byte	0,5,2
00000842 00000000*     15166 	.word	.LDWlin90

                                                                      Page 269
                                                              C:\Users\NIKHIL~1.PAT\AppData\Local\Temp\gh_000aeoo1.s
00000846 0b            15167 	.byte	11
00000847 02            15168 	.byte	2
00000848 00            15169 	.byte	0
00000849 0b            15170 	.byte	11
0000084a 02            15171 	.byte	2
0000084b 00            15172 	.byte	0
0000084c 0b            15173 	.byte	11
0000084d 3c            15174 	.byte	60
0000084e 000502        15175 	.byte	0,5,2
00000851 00000000*     15176 	.word	.LDWlin91
00000855 03            15177 	.byte	3
00000856 04            15178 	.byte	4
00000857 02            15179 	.byte	2
00000858 00            15180 	.byte	0
00000859 01            15181 	.byte	1
0000085a 000502        15182 	.byte	0,5,2
0000085d 00000000*     15183 	.word	.LDWlin92
00000861 0d            15184 	.byte	13
00000862 000502        15185 	.byte	0,5,2
00000865 00000000*     15186 	.word	.LDWlin93
00000869 0b            15187 	.byte	11
0000086a 0b            15188 	.byte	11
0000086b 000502        15189 	.byte	0,5,2
0000086e 00000000*     15190 	.word	.LDWlin94
00000872 0d            15191 	.byte	13
00000873 000502        15192 	.byte	0,5,2
00000876 00000000*     15193 	.word	.LDWlin95
0000087a 0b            15194 	.byte	11
0000087b 0b            15195 	.byte	11
0000087c 000502        15196 	.byte	0,5,2
0000087f 00000000*     15197 	.word	.LDWlin96
00000883 0b            15198 	.byte	11
00000884 0b            15199 	.byte	11
00000885 000502        15200 	.byte	0,5,2
00000888 00000000*     15201 	.word	.LDWlin97
0000088c 0b            15202 	.byte	11
0000088d 02            15203 	.byte	2
0000088e 00            15204 	.byte	0
0000088f 0b            15205 	.byte	11
00000890 0c            15206 	.byte	12
00000891 0b            15207 	.byte	11
00000892 000502        15208 	.byte	0,5,2
00000895 00000000*     15209 	.word	.LDWlin98
00000899 0b            15210 	.byte	11
0000089a 0b            15211 	.byte	11
0000089b 1b            15212 	.byte	27
0000089c 02            15213 	.byte	2
0000089d 00            15214 	.byte	0
0000089e 0b            15215 	.byte	11
0000089f 02            15216 	.byte	2
000008a0 00            15217 	.byte	0
000008a1 0b            15218 	.byte	11
000008a2 23            15219 	.byte	35
000008a3 02            15220 	.byte	2
000008a4 00            15221 	.byte	0
000008a5 0d            15222 	.byte	13
000008a6 000502        15223 	.byte	0,5,2
000008a9 00000000*     15224 	.word	.LDWlin99
000008ad 0b            15225 	.byte	11
000008ae 000502        15226 	.byte	0,5,2
000008b1 00000000*     15227 	.word	.LDWlin100

                                                                      Page 270
                                                              C:\Users\NIKHIL~1.PAT\AppData\Local\Temp\gh_000aeoo1.s
000008b5 0b            15228 	.byte	11
000008b6 000502        15229 	.byte	0,5,2
000008b9 00000000*     15230 	.word	.LDWlin101
000008bd 0b            15231 	.byte	11
000008be 0b            15232 	.byte	11
000008bf 000502        15233 	.byte	0,5,2
000008c2 00000000*     15234 	.word	.LDWlin102
000008c6 0b            15235 	.byte	11
000008c7 23            15236 	.byte	35
000008c8 23            15237 	.byte	35
000008c9 02            15238 	.byte	2
000008ca 00            15239 	.byte	0
000008cb 0c            15240 	.byte	12
000008cc 000502        15241 	.byte	0,5,2
000008cf 00000000*     15242 	.word	.LDWlin103
000008d3 0b            15243 	.byte	11
000008d4 0c            15244 	.byte	12
000008d5 1b            15245 	.byte	27
000008d6 000502        15246 	.byte	0,5,2
000008d9 00000000*     15247 	.word	.LDWlin104
000008dd 0b            15248 	.byte	11
000008de 02            15249 	.byte	2
000008df 00            15250 	.byte	0
000008e0 0c            15251 	.byte	12
000008e1 000502        15252 	.byte	0,5,2
000008e4 00000000*     15253 	.word	.LDWlin105
000008e8 0b            15254 	.byte	11
000008e9 0b            15255 	.byte	11
000008ea 000502        15256 	.byte	0,5,2
000008ed 00000000*     15257 	.word	.LDWlin106
000008f1 0b            15258 	.byte	11
000008f2 23            15259 	.byte	35
000008f3 23            15260 	.byte	35
000008f4 02            15261 	.byte	2
000008f5 00            15262 	.byte	0
000008f6 0d            15263 	.byte	13
000008f7 000502        15264 	.byte	0,5,2
000008fa 00000000*     15265 	.word	.LDWlin107
000008fe 0b            15266 	.byte	11
000008ff 0b            15267 	.byte	11
00000900 000502        15268 	.byte	0,5,2
00000903 00000000*     15269 	.word	.LDWlin108
00000907 0b            15270 	.byte	11
00000908 02            15271 	.byte	2
00000909 00            15272 	.byte	0
0000090a 000502        15273 	.byte	0,5,2
0000090d 00000000*     15274 	.word	.LDWlin109
00000911 02            15275 	.byte	2
00000912 00            15276 	.byte	0
00000913 0b            15277 	.byte	11
00000914 23            15278 	.byte	35
00000915 23            15279 	.byte	35
00000916 02            15280 	.byte	2
00000917 00            15281 	.byte	0
00000918 0d            15282 	.byte	13
00000919 000502        15283 	.byte	0,5,2
0000091c 00000000*     15284 	.word	.LDWlin110
00000920 0c            15285 	.byte	12
00000921 33            15286 	.byte	51
00000922 03            15287 	.byte	3
00000923 8b7f          15288 	.byte	139,127

                                                                      Page 271
                                                              C:\Users\NIKHIL~1.PAT\AppData\Local\Temp\gh_000aeoo1.s
00000925 02            15289 	.byte	2
00000926 0a            15290 	.byte	10
00000927 01            15291 	.byte	1
00000928 000502        15292 	.byte	0,5,2
0000092b 00000000*     15293 	.word	.LDWlin111
0000092f 03            15294 	.byte	3
00000930 f600          15295 	.byte	246,0
00000932 02            15296 	.byte	2
00000933 00            15297 	.byte	0
00000934 01            15298 	.byte	1
00000935 03            15299 	.byte	3
00000936 04            15300 	.byte	4
00000937 02            15301 	.byte	2
00000938 00            15302 	.byte	0
00000939 01            15303 	.byte	1
0000093a 000502        15304 	.byte	0,5,2
0000093d 00000000*     15305 	.word	.LDWlin112
00000941 0b            15306 	.byte	11
00000942 000502        15307 	.byte	0,5,2
00000945 00000000*     15308 	.word	.LDWlin113
00000949 0b            15309 	.byte	11
0000094a 000502        15310 	.byte	0,5,2
0000094d 00000000*     15311 	.word	.LDWlin114
00000951 0b            15312 	.byte	11
00000952 000502        15313 	.byte	0,5,2
00000955 00000000*     15314 	.word	.LDWlin115
00000959 0b            15315 	.byte	11
0000095a 000502        15316 	.byte	0,5,2
0000095d 00000000*     15317 	.word	.LDWlin116
00000961 0b            15318 	.byte	11
00000962 000502        15319 	.byte	0,5,2
00000965 00000000*     15320 	.word	.LDWlin117
00000969 0d            15321 	.byte	13
0000096a 02            15322 	.byte	2
0000096b 02            15323 	.byte	2
0000096c 14            15324 	.byte	20
0000096d 000502        15325 	.byte	0,5,2
00000970 00000000*     15326 	.word	.LDWlin118
00000974 03            15327 	.byte	3
00000975 7e            15328 	.byte	126
00000976 02            15329 	.byte	2
00000977 00            15330 	.byte	0
00000978 01            15331 	.byte	1
00000979 02            15332 	.byte	2
0000097a 02            15333 	.byte	2
0000097b 000502        15334 	.byte	0,5,2
0000097e 00000000*     15335 	.word	.LDWlin119
00000982 0d            15336 	.byte	13
00000983 0b            15337 	.byte	11
00000984 000502        15338 	.byte	0,5,2
00000987 00000000*     15339 	.word	.LDWlin120
0000098b 0b            15340 	.byte	11
0000098c 02            15341 	.byte	2
0000098d 26            15342 	.byte	38
0000098e 000101        15343 	.byte	0,1,1
                       15344 	.section	.debug_info
                       15345 .LDW_3db27b0:
000012e6 1d            15346 	.byte	29
000012e7 00000000*     15347 	.word	.LDW42
000012eb 00000000*     15348 	.word	.LDW52
                       15349 

                                                                      Page 272
                                                              C:\Users\NIKHIL~1.PAT\AppData\Local\Temp\gh_000aeoo1.s
                       15350 .LDW_3db0038:
000012ef 04            15351 	.byte	4
000012f0 6c6f635f4275  15352 	.strz	"loc_ButtonS1State"
000012f6 74746f6e5331 
000012fc 537461746500 
00001302 a103          15353 	.byte	161,3
00001304 10            15354 	.byte	16
00001305 01            15355 	.byte	1
00001306 00000000*     15356 	.word	.LDW_47f4960
0000130a 00            15357 	.byte	0
0000130b 00            15358 	.byte	0
0000130c 0168          15359 	.byte	1,104
                       15360 
                       15361 .LDW_3db0090:
0000130e 04            15362 	.byte	4
0000130f 6c6f635f4275  15363 	.strz	"loc_ButtonEnc1State"
00001315 74746f6e456e 
0000131b 633153746174 
00001321 6500 
00001323 a103          15364 	.byte	161,3
00001325 23            15365 	.byte	35
00001326 01            15366 	.byte	1
00001327 00000000*     15367 	.word	.LDW_47f4960
0000132b 00            15368 	.byte	0
0000132c 00            15369 	.byte	0
0000132d 0167          15370 	.byte	1,103
                       15371 
                       15372 .LDW_3db00e8:
0000132f 04            15373 	.byte	4
00001330 6c6f635f746d  15374 	.strz	"loc_tmpPot1"
00001336 70506f743100 
0000133c a303          15375 	.byte	163,3
0000133e 0e            15376 	.byte	14
0000133f 01            15377 	.byte	1
00001340 00000000*     15378 	.word	.LDW_47f44e8
00001344 00            15379 	.byte	0
00001345 00            15380 	.byte	0
00001346 0169          15381 	.byte	1,105
                       15382 
                       15383 .LDW_3db0140:
00001348 04            15384 	.byte	4
00001349 6c6f635f6900  15385 	.strz	"loc_i"
0000134f a403          15386 	.byte	164,3
00001351 0e            15387 	.byte	14
00001352 01            15388 	.byte	1
00001353 00000000*     15389 	.word	.LDW_47f4438
00001357 00            15390 	.byte	0
00001358 00            15391 	.byte	0
00001359 016b          15392 	.byte	1,107
                       15393 
                       15394 .LDW_3db0198:
0000135b 04            15395 	.byte	4
0000135c 6c6f635f5061  15396 	.strz	"loc_PatternNr"
00001362 747465726e4e 
00001368 7200 
0000136a a203          15397 	.byte	162,3
0000136c 15            15398 	.byte	21
0000136d 01            15399 	.byte	1
0000136e 00000000*     15400 	.word	.LDW_47f44e8
00001372 00            15401 	.byte	0
00001373 00            15402 	.byte	0

                                                                      Page 273
                                                              C:\Users\NIKHIL~1.PAT\AppData\Local\Temp\gh_000aeoo1.s
00001374 0503          15403 	.byte	5,3
00001376 00000000*     15404 	.word	_loc_PatternNr.Mode1.C.3A.5CUsers.5Cnikhil.2Epatil.5CDocuments.5Crenesas.5CRH850_F1L_sample.5Ctoolchain.5CGHS.5Coutput.5Cobj.5Cr_tasks..7
                       15405 
0000137a 00            15406 	.byte	0
                       15407 
0000137b 00            15408 	.byte	0
                       15409 
                       15410 .LDW_4828b78:
0000137c 13            15411 	.byte	19
0000137d 4d6f64653200  15412 	.strz	"Mode2"
00001383 e404          15413 	.byte	228,4
00001385 06            15414 	.byte	6
00001386 01            15415 	.byte	1
00001387 00000000*     15416 	.word	_Mode2
0000138b 00000000*     15417 	.word	___ghs_eofn_Mode2
0000138f 0153          15418 	.byte	1,83
00001391 828080f80b    15419 	.byte	130,128,128,248,11
00001396 1c            15420 	.byte	28
00001397 02            15421 	.byte	2
00001398 1c            15422 	.byte	28
00001399 00            15423 	.byte	0
0000139a 00            15424 	.byte	0
0000139b 00            15425 	.byte	0
0000139c 01            15426 	.byte	1
0000139d 01            15427 	.byte	1
0000139e 00            15428 	.byte	0
0000139f 01            15429 	.byte	1
                       15430 
                       15431 	.section	.debug_frame
                       15432 .LDW_4617d48:
000001b8 00000000*     15433 	.word	.LDW_unq_14-.LDW_unq_13
                       15434 .LDW_unq_13:
000001bc 00000000*     15435 	.word	.LDW_47a71b0
000001c0 00000000*     15436 	.word	_Mode2
000001c4 00000000*     15437 	.word	___ghs_eofn_Mode2-_Mode2
000001c8 48            15438 	.byte	72
000001c9 9f            15439 	.byte	159
000001ca 18            15440 	.byte	24
000001cb 44            15441 	.byte	68
000001cc 9b            15442 	.byte	155
000001cd 08            15443 	.byte	8
000001ce 44            15444 	.byte	68
000001cf 9d            15445 	.byte	157
000001d0 00            15446 	.byte	0
000001d1 44            15447 	.byte	68
000001d2 98            15448 	.byte	152
000001d3 14            15449 	.byte	20
000001d4 44            15450 	.byte	68
000001d5 99            15451 	.byte	153
000001d6 10            15452 	.byte	16
000001d7 44            15453 	.byte	68
000001d8 9a            15454 	.byte	154
000001d9 0c            15455 	.byte	12
000001da 44            15456 	.byte	68
000001db 9c            15457 	.byte	156
000001dc 04            15458 	.byte	4
000001dd 01            15459 	.byte	1
000001de 00000000*     15460 	.word	.LDW72
000001e2 44            15461 	.byte	68
000001e3 df            15462 	.byte	223
000001e4 44            15463 	.byte	68

                                                                      Page 274
                                                              C:\Users\NIKHIL~1.PAT\AppData\Local\Temp\gh_000aeoo1.s
000001e5 dd            15464 	.byte	221
000001e6 44            15465 	.byte	68
000001e7 dc            15466 	.byte	220
000001e8 44            15467 	.byte	68
000001e9 db            15468 	.byte	219
000001ea 44            15469 	.byte	68
000001eb da            15470 	.byte	218
000001ec 44            15471 	.byte	68
000001ed d9            15472 	.byte	217
000001ee 44            15473 	.byte	68
000001ef d8            15474 	.byte	216
                       15475 .LDW_unq_14:
                       15476 	.section	.debug_line
00000991 000502        15477 	.byte	0,5,2
00000994 00000000*     15478 	.word	_Mode2
00000998 03            15479 	.byte	3
00000999 e404          15480 	.byte	228,4
0000099b 02            15481 	.byte	2
0000099c 00            15482 	.byte	0
0000099d 01            15483 	.byte	1
0000099e 06            15484 	.byte	6
0000099f 03            15485 	.byte	3
000009a0 06            15486 	.byte	6
000009a1 02            15487 	.byte	2
000009a2 2c            15488 	.byte	44
000009a3 01            15489 	.byte	1
000009a4 1b            15490 	.byte	27
000009a5 1d            15491 	.byte	29
000009a6 1b            15492 	.byte	27
000009a7 1b            15493 	.byte	27
000009a8 1c            15494 	.byte	28
000009a9 000502        15495 	.byte	0,5,2
000009ac 00000000*     15496 	.word	.LDWlin121
000009b0 0d            15497 	.byte	13
000009b1 000502        15498 	.byte	0,5,2
000009b4 00000000*     15499 	.word	.LDWlin122
000009b8 0b            15500 	.byte	11
000009b9 000502        15501 	.byte	0,5,2
000009bc 00000000*     15502 	.word	.LDWlin123
000009c0 0b            15503 	.byte	11
000009c1 000502        15504 	.byte	0,5,2
000009c4 00000000*     15505 	.word	.LDWlin124
000009c8 0c            15506 	.byte	12
000009c9 000502        15507 	.byte	0,5,2
000009cc 00000000*     15508 	.word	.LDWlin125
000009d0 0b            15509 	.byte	11
000009d1 000502        15510 	.byte	0,5,2
000009d4 00000000*     15511 	.word	.LDWlin126
000009d8 0b            15512 	.byte	11
000009d9 000502        15513 	.byte	0,5,2
000009dc 00000000*     15514 	.word	.LDWlin127
000009e0 0b            15515 	.byte	11
000009e1 000502        15516 	.byte	0,5,2
000009e4 00000000*     15517 	.word	.LDWlin128
000009e8 0b            15518 	.byte	11
000009e9 000502        15519 	.byte	0,5,2
000009ec 00000000*     15520 	.word	.LDWlin129
000009f0 0c            15521 	.byte	12
000009f1 000502        15522 	.byte	0,5,2
000009f4 00000000*     15523 	.word	.LDWlin130
000009f8 0b            15524 	.byte	11

                                                                      Page 275
                                                              C:\Users\NIKHIL~1.PAT\AppData\Local\Temp\gh_000aeoo1.s
000009f9 000502        15525 	.byte	0,5,2
000009fc 00000000*     15526 	.word	.LDWlin131
00000a00 0b            15527 	.byte	11
00000a01 000502        15528 	.byte	0,5,2
00000a04 00000000*     15529 	.word	.LDWlin132
00000a08 0b            15530 	.byte	11
00000a09 000502        15531 	.byte	0,5,2
00000a0c 00000000*     15532 	.word	.LDWlin133
00000a10 0b            15533 	.byte	11
00000a11 000502        15534 	.byte	0,5,2
00000a14 00000000*     15535 	.word	.LDWlin134
00000a18 0b            15536 	.byte	11
00000a19 000502        15537 	.byte	0,5,2
00000a1c 00000000*     15538 	.word	.LDWlin135
00000a20 0c            15539 	.byte	12
00000a21 000502        15540 	.byte	0,5,2
00000a24 00000000*     15541 	.word	.LDWlin136
00000a28 0b            15542 	.byte	11
00000a29 000502        15543 	.byte	0,5,2
00000a2c 00000000*     15544 	.word	.LDWlin137
00000a30 0c            15545 	.byte	12
00000a31 000502        15546 	.byte	0,5,2
00000a34 00000000*     15547 	.word	.LDWlin138
00000a38 0b            15548 	.byte	11
00000a39 000502        15549 	.byte	0,5,2
00000a3c 00000000*     15550 	.word	.LDWlin139
00000a40 0b            15551 	.byte	11
00000a41 3c            15552 	.byte	60
00000a42 000502        15553 	.byte	0,5,2
00000a45 00000000*     15554 	.word	.LDWlin140
00000a49 0b            15555 	.byte	11
00000a4a 000502        15556 	.byte	0,5,2
00000a4d 00000000*     15557 	.word	.LDWlin141
00000a51 0b            15558 	.byte	11
00000a52 000502        15559 	.byte	0,5,2
00000a55 00000000*     15560 	.word	.LDWlin142
00000a59 0c            15561 	.byte	12
00000a5a 000502        15562 	.byte	0,5,2
00000a5d 00000000*     15563 	.word	.LDWlin143
00000a61 0d            15564 	.byte	13
00000a62 000502        15565 	.byte	0,5,2
00000a65 00000000*     15566 	.word	.LDWlin144
00000a69 0c            15567 	.byte	12
00000a6a 000502        15568 	.byte	0,5,2
00000a6d 00000000*     15569 	.word	.LDWlin145
00000a71 0c            15570 	.byte	12
00000a72 000502        15571 	.byte	0,5,2
00000a75 00000000*     15572 	.word	.LDWlin146
00000a79 0d            15573 	.byte	13
00000a7a 000502        15574 	.byte	0,5,2
00000a7d 00000000*     15575 	.word	.LDWlin147
00000a81 0b            15576 	.byte	11
00000a82 0b            15577 	.byte	11
00000a83 000502        15578 	.byte	0,5,2
00000a86 00000000*     15579 	.word	.LDWlin148
00000a8a 0d            15580 	.byte	13
00000a8b 000502        15581 	.byte	0,5,2
00000a8e 00000000*     15582 	.word	.LDWlin149
00000a92 0b            15583 	.byte	11
00000a93 0b            15584 	.byte	11
00000a94 000502        15585 	.byte	0,5,2

                                                                      Page 276
                                                              C:\Users\NIKHIL~1.PAT\AppData\Local\Temp\gh_000aeoo1.s
00000a97 00000000*     15586 	.word	.LDWlin150
00000a9b 0b            15587 	.byte	11
00000a9c 0b            15588 	.byte	11
00000a9d 000502        15589 	.byte	0,5,2
00000aa0 00000000*     15590 	.word	.LDWlin151
00000aa4 0b            15591 	.byte	11
00000aa5 02            15592 	.byte	2
00000aa6 00            15593 	.byte	0
00000aa7 0b            15594 	.byte	11
00000aa8 0c            15595 	.byte	12
00000aa9 0b            15596 	.byte	11
00000aaa 000502        15597 	.byte	0,5,2
00000aad 00000000*     15598 	.word	.LDWlin152
00000ab1 0b            15599 	.byte	11
00000ab2 0b            15600 	.byte	11
00000ab3 1b            15601 	.byte	27
00000ab4 02            15602 	.byte	2
00000ab5 00            15603 	.byte	0
00000ab6 0b            15604 	.byte	11
00000ab7 02            15605 	.byte	2
00000ab8 00            15606 	.byte	0
00000ab9 0b            15607 	.byte	11
00000aba 23            15608 	.byte	35
00000abb 02            15609 	.byte	2
00000abc 00            15610 	.byte	0
00000abd 0d            15611 	.byte	13
00000abe 000502        15612 	.byte	0,5,2
00000ac1 00000000*     15613 	.word	.LDWlin153
00000ac5 0d            15614 	.byte	13
00000ac6 000502        15615 	.byte	0,5,2
00000ac9 00000000*     15616 	.word	.LDWlin154
00000acd 0b            15617 	.byte	11
00000ace 000502        15618 	.byte	0,5,2
00000ad1 00000000*     15619 	.word	.LDWlin155
00000ad5 0b            15620 	.byte	11
00000ad6 000502        15621 	.byte	0,5,2
00000ad9 00000000*     15622 	.word	.LDWlin156
00000add 0b            15623 	.byte	11
00000ade 0b            15624 	.byte	11
00000adf 000502        15625 	.byte	0,5,2
00000ae2 00000000*     15626 	.word	.LDWlin157
00000ae6 0b            15627 	.byte	11
00000ae7 23            15628 	.byte	35
00000ae8 23            15629 	.byte	35
00000ae9 02            15630 	.byte	2
00000aea 00            15631 	.byte	0
00000aeb 0c            15632 	.byte	12
00000aec 000502        15633 	.byte	0,5,2
00000aef 00000000*     15634 	.word	.LDWlin158
00000af3 0b            15635 	.byte	11
00000af4 0b            15636 	.byte	11
00000af5 1b            15637 	.byte	27
00000af6 000502        15638 	.byte	0,5,2
00000af9 00000000*     15639 	.word	.LDWlin159
00000afd 0b            15640 	.byte	11
00000afe 02            15641 	.byte	2
00000aff 00            15642 	.byte	0
00000b00 0c            15643 	.byte	12
00000b01 000502        15644 	.byte	0,5,2
00000b04 00000000*     15645 	.word	.LDWlin160
00000b08 0b            15646 	.byte	11

                                                                      Page 277
                                                              C:\Users\NIKHIL~1.PAT\AppData\Local\Temp\gh_000aeoo1.s
00000b09 0b            15647 	.byte	11
00000b0a 000502        15648 	.byte	0,5,2
00000b0d 00000000*     15649 	.word	.LDWlin161
00000b11 0b            15650 	.byte	11
00000b12 23            15651 	.byte	35
00000b13 23            15652 	.byte	35
00000b14 02            15653 	.byte	2
00000b15 00            15654 	.byte	0
00000b16 0c            15655 	.byte	12
00000b17 000502        15656 	.byte	0,5,2
00000b1a 00000000*     15657 	.word	.LDWlin162
00000b1e 0b            15658 	.byte	11
00000b1f 0b            15659 	.byte	11
00000b20 000502        15660 	.byte	0,5,2
00000b23 00000000*     15661 	.word	.LDWlin163
00000b27 0b            15662 	.byte	11
00000b28 02            15663 	.byte	2
00000b29 00            15664 	.byte	0
00000b2a 000502        15665 	.byte	0,5,2
00000b2d 00000000*     15666 	.word	.LDWlin164
00000b31 02            15667 	.byte	2
00000b32 00            15668 	.byte	0
00000b33 0b            15669 	.byte	11
00000b34 23            15670 	.byte	35
00000b35 23            15671 	.byte	35
00000b36 02            15672 	.byte	2
00000b37 00            15673 	.byte	0
00000b38 0d            15674 	.byte	13
00000b39 000502        15675 	.byte	0,5,2
00000b3c 00000000*     15676 	.word	.LDWlin165
00000b40 0c            15677 	.byte	12
00000b41 33            15678 	.byte	51
00000b42 03            15679 	.byte	3
00000b43 bd7f          15680 	.byte	189,127
00000b45 02            15681 	.byte	2
00000b46 0a            15682 	.byte	10
00000b47 01            15683 	.byte	1
00000b48 000502        15684 	.byte	0,5,2
00000b4b 00000000*     15685 	.word	.LDWlin166
00000b4f 03            15686 	.byte	3
00000b50 c400          15687 	.byte	196,0
00000b52 02            15688 	.byte	2
00000b53 00            15689 	.byte	0
00000b54 01            15690 	.byte	1
00000b55 0c            15691 	.byte	12
00000b56 000502        15692 	.byte	0,5,2
00000b59 00000000*     15693 	.word	.LDWlin167
00000b5d 0b            15694 	.byte	11
00000b5e 000502        15695 	.byte	0,5,2
00000b61 00000000*     15696 	.word	.LDWlin168
00000b65 0b            15697 	.byte	11
00000b66 000502        15698 	.byte	0,5,2
00000b69 00000000*     15699 	.word	.LDWlin169
00000b6d 0c            15700 	.byte	12
00000b6e 000502        15701 	.byte	0,5,2
00000b71 00000000*     15702 	.word	.LDWlin170
00000b75 0b            15703 	.byte	11
00000b76 000502        15704 	.byte	0,5,2
00000b79 00000000*     15705 	.word	.LDWlin171
00000b7d 0b            15706 	.byte	11
00000b7e 000502        15707 	.byte	0,5,2

                                                                      Page 278
                                                              C:\Users\NIKHIL~1.PAT\AppData\Local\Temp\gh_000aeoo1.s
00000b81 00000000*     15708 	.word	.LDWlin172
00000b85 0b            15709 	.byte	11
00000b86 000502        15710 	.byte	0,5,2
00000b89 00000000*     15711 	.word	.LDWlin173
00000b8d 0b            15712 	.byte	11
00000b8e 000502        15713 	.byte	0,5,2
00000b91 00000000*     15714 	.word	.LDWlin174
00000b95 0b            15715 	.byte	11
00000b96 000502        15716 	.byte	0,5,2
00000b99 00000000*     15717 	.word	.LDWlin175
00000b9d 0d            15718 	.byte	13
00000b9e 02            15719 	.byte	2
00000b9f 02            15720 	.byte	2
00000ba0 14            15721 	.byte	20
00000ba1 000502        15722 	.byte	0,5,2
00000ba4 00000000*     15723 	.word	.LDWlin176
00000ba8 03            15724 	.byte	3
00000ba9 7e            15725 	.byte	126
00000baa 02            15726 	.byte	2
00000bab 00            15727 	.byte	0
00000bac 01            15728 	.byte	1
00000bad 02            15729 	.byte	2
00000bae 02            15730 	.byte	2
00000baf 000502        15731 	.byte	0,5,2
00000bb2 00000000*     15732 	.word	.LDWlin177
00000bb6 0d            15733 	.byte	13
00000bb7 0c            15734 	.byte	12
00000bb8 02            15735 	.byte	2
00000bb9 22            15736 	.byte	34
00000bba 000101        15737 	.byte	0,1,1
                       15738 	.section	.debug_info
                       15739 .LDW_3db27e0:
000013a0 1d            15740 	.byte	29
000013a1 00000000*     15741 	.word	.LDW62
000013a5 00000000*     15742 	.word	.LDW72
                       15743 
                       15744 .LDW_3db01f0:
000013a9 04            15745 	.byte	4
000013aa 6c6f635f4275  15746 	.strz	"loc_ButtonS1State"
000013b0 74746f6e5331 
000013b6 537461746500 
000013bc e704          15747 	.byte	231,4
000013be 10            15748 	.byte	16
000013bf 01            15749 	.byte	1
000013c0 00000000*     15750 	.word	.LDW_47f4960
000013c4 00            15751 	.byte	0
000013c5 00            15752 	.byte	0
000013c6 0169          15753 	.byte	1,105
                       15754 
                       15755 .LDW_3db0248:
000013c8 04            15756 	.byte	4
000013c9 6c6f635f4275  15757 	.strz	"loc_ButtonEnc1State"
000013cf 74746f6e456e 
000013d5 633153746174 
000013db 6500 
000013dd e704          15758 	.byte	231,4
000013df 23            15759 	.byte	35
000013e0 01            15760 	.byte	1
000013e1 00000000*     15761 	.word	.LDW_47f4960
000013e5 00            15762 	.byte	0
000013e6 00            15763 	.byte	0

                                                                      Page 279
                                                              C:\Users\NIKHIL~1.PAT\AppData\Local\Temp\gh_000aeoo1.s
000013e7 0168          15764 	.byte	1,104
                       15765 
                       15766 .LDW_3db02a0:
000013e9 04            15767 	.byte	4
000013ea 6c6f635f746d  15768 	.strz	"loc_tmpPot1"
000013f0 70506f743100 
000013f6 e804          15769 	.byte	232,4
000013f8 0e            15770 	.byte	14
000013f9 01            15771 	.byte	1
000013fa 00000000*     15772 	.word	.LDW_47f44e8
000013fe 00            15773 	.byte	0
000013ff 00            15774 	.byte	0
00001400 016a          15775 	.byte	1,106
                       15776 
                       15777 .LDW_3db02f8:
00001402 04            15778 	.byte	4
00001403 6c6f635f6900  15779 	.strz	"loc_i"
00001409 e904          15780 	.byte	233,4
0000140b 0e            15781 	.byte	14
0000140c 01            15782 	.byte	1
0000140d 00000000*     15783 	.word	.LDW_47f4438
00001411 00            15784 	.byte	0
00001412 00            15785 	.byte	0
00001413 016c          15786 	.byte	1,108
                       15787 
00001415 00            15788 	.byte	0
                       15789 
00001416 00            15790 	.byte	0
                       15791 
                       15792 .LDW_4828c10:
00001417 13            15793 	.byte	19
00001418 446565705354  15794 	.strz	"DeepSTOP"
0000141e 4f5000 
00001421 f405          15795 	.byte	244,5
00001423 06            15796 	.byte	6
00001424 01            15797 	.byte	1
00001425 00000000*     15798 	.word	_DeepSTOP
00001429 00000000*     15799 	.word	___ghs_eofn_DeepSTOP
0000142d 0153          15800 	.byte	1,83
0000142f 8280808008    15801 	.byte	130,128,128,128,8
00001434 04            15802 	.byte	4
00001435 02            15803 	.byte	2
00001436 04            15804 	.byte	4
00001437 00            15805 	.byte	0
00001438 00            15806 	.byte	0
00001439 00            15807 	.byte	0
0000143a 01            15808 	.byte	1
0000143b 01            15809 	.byte	1
0000143c 00            15810 	.byte	0
0000143d 01            15811 	.byte	1
                       15812 
                       15813 	.section	.debug_frame
                       15814 .LDW_4617e48:
000001f0 00000000*     15815 	.word	.LDW_unq_16-.LDW_unq_15
                       15816 .LDW_unq_15:
000001f4 00000000*     15817 	.word	.LDW_47a71b0
000001f8 00000000*     15818 	.word	_DeepSTOP
000001fc 00000000*     15819 	.word	___ghs_eofn_DeepSTOP-_DeepSTOP
00000200 46            15820 	.byte	70
00000201 9f            15821 	.byte	159
00000202 00            15822 	.byte	0

                                                                      Page 280
                                                              C:\Users\NIKHIL~1.PAT\AppData\Local\Temp\gh_000aeoo1.s
00000203 01            15823 	.byte	1
00000204 00000000*     15824 	.word	.LDW92
00000208 44            15825 	.byte	68
00000209 df            15826 	.byte	223
0000020a 00            15827 	.byte	0
0000020b 00            15828 	.byte	0
                       15829 .LDW_unq_16:
                       15830 	.section	.debug_line
00000bbd 000502        15831 	.byte	0,5,2
00000bc0 00000000*     15832 	.word	_DeepSTOP
00000bc4 03            15833 	.byte	3
00000bc5 f405          15834 	.byte	244,5
00000bc7 02            15835 	.byte	2
00000bc8 00            15836 	.byte	0
00000bc9 01            15837 	.byte	1
00000bca 06            15838 	.byte	6
00000bcb 24            15839 	.byte	36
00000bcc 02            15840 	.byte	2
00000bcd 00            15841 	.byte	0
00000bce 000502        15842 	.byte	0,5,2
00000bd1 00000000*     15843 	.word	.LDWlin178
00000bd5 02            15844 	.byte	2
00000bd6 00            15845 	.byte	0
00000bd7 0c            15846 	.byte	12
00000bd8 000502        15847 	.byte	0,5,2
00000bdb 00000000*     15848 	.word	.LDWlin179
00000bdf 0b            15849 	.byte	11
00000be0 000502        15850 	.byte	0,5,2
00000be3 00000000*     15851 	.word	.LDWlin180
00000be7 0c            15852 	.byte	12
00000be8 000502        15853 	.byte	0,5,2
00000beb 00000000*     15854 	.word	.LDWlin181
00000bef 0b            15855 	.byte	11
00000bf0 000502        15856 	.byte	0,5,2
00000bf3 00000000*     15857 	.word	.LDWlin182
00000bf7 0b            15858 	.byte	11
00000bf8 02            15859 	.byte	2
00000bf9 08            15860 	.byte	8
00000bfa 000101        15861 	.byte	0,1,1
                       15862 	.section	.debug_info
                       15863 .LDW_3db2810:
0000143e 1d            15864 	.byte	29
0000143f 00000000*     15865 	.word	.LDW82
00001443 00000000*     15866 	.word	.LDW92
                       15867 
00001447 00            15868 	.byte	0
                       15869 
00001448 00            15870 	.byte	0
                       15871 
                       15872 .LDW_4828ca8:
00001449 13            15873 	.byte	19
0000144a 426f61726443  15874 	.strz	"BoardCheck"
00001450 6865636b00 
00001455 8806          15875 	.byte	136,6
00001457 06            15876 	.byte	6
00001458 01            15877 	.byte	1
00001459 00000000*     15878 	.word	_BoardCheck
0000145d 00000000*     15879 	.word	___ghs_eofn_BoardCheck
00001461 0153          15880 	.byte	1,83
00001463 828080e00b    15881 	.byte	130,128,128,224,11
00001468 14            15882 	.byte	20

                                                                      Page 281
                                                              C:\Users\NIKHIL~1.PAT\AppData\Local\Temp\gh_000aeoo1.s
00001469 02            15883 	.byte	2
0000146a 18            15884 	.byte	24
0000146b 00            15885 	.byte	0
0000146c 00            15886 	.byte	0
0000146d 00            15887 	.byte	0
0000146e 01            15888 	.byte	1
0000146f 01            15889 	.byte	1
00001470 00            15890 	.byte	0
00001471 01            15891 	.byte	1
                       15892 
                       15893 	.section	.debug_frame
                       15894 .LDW_4617f48:
0000020c 00000000*     15895 	.word	.LDW_unq_18-.LDW_unq_17
                       15896 .LDW_unq_17:
00000210 00000000*     15897 	.word	.LDW_47a71b0
00000214 00000000*     15898 	.word	_BoardCheck
00000218 00000000*     15899 	.word	___ghs_eofn_BoardCheck-_BoardCheck
0000021c 48            15900 	.byte	72
0000021d 9f            15901 	.byte	159
0000021e 14            15902 	.byte	20
0000021f 44            15903 	.byte	68
00000220 9a            15904 	.byte	154
00000221 10            15905 	.byte	16
00000222 44            15906 	.byte	68
00000223 9b            15907 	.byte	155
00000224 0c            15908 	.byte	12
00000225 44            15909 	.byte	68
00000226 9c            15910 	.byte	156
00000227 08            15911 	.byte	8
00000228 44            15912 	.byte	68
00000229 9d            15913 	.byte	157
0000022a 04            15914 	.byte	4
0000022b 01            15915 	.byte	1
0000022c 00000000*     15916 	.word	.LDW13
00000230 44            15917 	.byte	68
00000231 df            15918 	.byte	223
00000232 44            15919 	.byte	68
00000233 dd            15920 	.byte	221
00000234 44            15921 	.byte	68
00000235 dc            15922 	.byte	220
00000236 44            15923 	.byte	68
00000237 db            15924 	.byte	219
00000238 44            15925 	.byte	68
00000239 da            15926 	.byte	218
0000023a 00            15927 	.byte	0
0000023b 00            15928 	.byte	0
                       15929 .LDW_unq_18:
                       15930 	.section	.debug_line
00000bfd 000502        15931 	.byte	0,5,2
00000c00 00000000*     15932 	.word	_BoardCheck
00000c04 03            15933 	.byte	3
00000c05 8806          15934 	.byte	136,6
00000c07 02            15935 	.byte	2
00000c08 00            15936 	.byte	0
00000c09 01            15937 	.byte	1
00000c0a 06            15938 	.byte	6
00000c0b 9c            15939 	.byte	156
00000c0c 14            15940 	.byte	20
00000c0d 000502        15941 	.byte	0,5,2
00000c10 00000000*     15942 	.word	.LDWlin183
00000c14 0b            15943 	.byte	11

                                                                      Page 282
                                                              C:\Users\NIKHIL~1.PAT\AppData\Local\Temp\gh_000aeoo1.s
00000c15 000502        15944 	.byte	0,5,2
00000c18 00000000*     15945 	.word	.LDWlin184
00000c1c 0b            15946 	.byte	11
00000c1d 000502        15947 	.byte	0,5,2
00000c20 00000000*     15948 	.word	.LDWlin185
00000c24 0d            15949 	.byte	13
00000c25 000502        15950 	.byte	0,5,2
00000c28 00000000*     15951 	.word	.LDWlin186
00000c2c 0b            15952 	.byte	11
00000c2d 000502        15953 	.byte	0,5,2
00000c30 00000000*     15954 	.word	.LDWlin187
00000c34 0b            15955 	.byte	11
00000c35 000502        15956 	.byte	0,5,2
00000c38 00000000*     15957 	.word	.LDWlin188
00000c3c 0b            15958 	.byte	11
00000c3d 000502        15959 	.byte	0,5,2
00000c40 00000000*     15960 	.word	.LDWlin189
00000c44 0b            15961 	.byte	11
00000c45 000502        15962 	.byte	0,5,2
00000c48 00000000*     15963 	.word	.LDWlin190
00000c4c 0d            15964 	.byte	13
00000c4d 000502        15965 	.byte	0,5,2
00000c50 00000000*     15966 	.word	.LDWlin191
00000c54 0b            15967 	.byte	11
00000c55 0b            15968 	.byte	11
00000c56 000502        15969 	.byte	0,5,2
00000c59 00000000*     15970 	.word	.LDWlin192
00000c5d 0b            15971 	.byte	11
00000c5e 0c            15972 	.byte	12
00000c5f 0b            15973 	.byte	11
00000c60 000502        15974 	.byte	0,5,2
00000c63 00000000*     15975 	.word	.LDWlin193
00000c67 0b            15976 	.byte	11
00000c68 02            15977 	.byte	2
00000c69 00            15978 	.byte	0
00000c6a 0d            15979 	.byte	13
00000c6b 000502        15980 	.byte	0,5,2
00000c6e 00000000*     15981 	.word	.LDWlin194
00000c72 0b            15982 	.byte	11
00000c73 0b            15983 	.byte	11
00000c74 000502        15984 	.byte	0,5,2
00000c77 00000000*     15985 	.word	.LDWlin195
00000c7b 0b            15986 	.byte	11
00000c7c 0c            15987 	.byte	12
00000c7d 0b            15988 	.byte	11
00000c7e 000502        15989 	.byte	0,5,2
00000c81 00000000*     15990 	.word	.LDWlin196
00000c85 0b            15991 	.byte	11
00000c86 02            15992 	.byte	2
00000c87 00            15993 	.byte	0
00000c88 03            15994 	.byte	3
00000c89 04            15995 	.byte	4
00000c8a 02            15996 	.byte	2
00000c8b 00            15997 	.byte	0
00000c8c 01            15998 	.byte	1
00000c8d 000502        15999 	.byte	0,5,2
00000c90 00000000*     16000 	.word	.LDWlin197
00000c94 0b            16001 	.byte	11
00000c95 000502        16002 	.byte	0,5,2
00000c98 00000000*     16003 	.word	.LDWlin198
00000c9c 0d            16004 	.byte	13

                                                                      Page 283
                                                              C:\Users\NIKHIL~1.PAT\AppData\Local\Temp\gh_000aeoo1.s
00000c9d 000502        16005 	.byte	0,5,2
00000ca0 00000000*     16006 	.word	.LDWlin199
00000ca4 0d            16007 	.byte	13
00000ca5 000502        16008 	.byte	0,5,2
00000ca8 00000000*     16009 	.word	.LDWlin200
00000cac 0b            16010 	.byte	11
00000cad 000502        16011 	.byte	0,5,2
00000cb0 00000000*     16012 	.word	.LDWlin201
00000cb4 0b            16013 	.byte	11
00000cb5 000502        16014 	.byte	0,5,2
00000cb8 00000000*     16015 	.word	.LDWlin202
00000cbc 0b            16016 	.byte	11
00000cbd 000502        16017 	.byte	0,5,2
00000cc0 00000000*     16018 	.word	.LDWlin203
00000cc4 0b            16019 	.byte	11
00000cc5 000502        16020 	.byte	0,5,2
00000cc8 00000000*     16021 	.word	.LDWlin204
00000ccc 0b            16022 	.byte	11
00000ccd 000502        16023 	.byte	0,5,2
00000cd0 00000000*     16024 	.word	.LDWlin205
00000cd4 0b            16025 	.byte	11
00000cd5 000502        16026 	.byte	0,5,2
00000cd8 00000000*     16027 	.word	.LDWlin206
00000cdc 0b            16028 	.byte	11
00000cdd 000502        16029 	.byte	0,5,2
00000ce0 00000000*     16030 	.word	.LDWlin207
00000ce4 0b            16031 	.byte	11
00000ce5 000502        16032 	.byte	0,5,2
00000ce8 00000000*     16033 	.word	.LDWlin208
00000cec 0b            16034 	.byte	11
00000ced 000502        16035 	.byte	0,5,2
00000cf0 00000000*     16036 	.word	.LDWlin209
00000cf4 0b            16037 	.byte	11
00000cf5 000502        16038 	.byte	0,5,2
00000cf8 00000000*     16039 	.word	.LDWlin210
00000cfc 0c            16040 	.byte	12
00000cfd 000502        16041 	.byte	0,5,2
00000d00 00000000*     16042 	.word	.LDWlin211
00000d04 0d            16043 	.byte	13
00000d05 1b            16044 	.byte	27
00000d06 1b            16045 	.byte	27
00000d07 1b            16046 	.byte	27
00000d08 000502        16047 	.byte	0,5,2
00000d0b 00000000*     16048 	.word	.LDWlin212
00000d0f 0b            16049 	.byte	11
00000d10 000502        16050 	.byte	0,5,2
00000d13 00000000*     16051 	.word	.LDWlin213
00000d17 0b            16052 	.byte	11
00000d18 000502        16053 	.byte	0,5,2
00000d1b 00000000*     16054 	.word	.LDWlin214
00000d1f 0b            16055 	.byte	11
00000d20 000502        16056 	.byte	0,5,2
00000d23 00000000*     16057 	.word	.LDWlin215
00000d27 0b            16058 	.byte	11
00000d28 000502        16059 	.byte	0,5,2
00000d2b 00000000*     16060 	.word	.LDWlin216
00000d2f 0b            16061 	.byte	11
00000d30 000502        16062 	.byte	0,5,2
00000d33 00000000*     16063 	.word	.LDWlin217
00000d37 0d            16064 	.byte	13
00000d38 02            16065 	.byte	2

                                                                      Page 284
                                                              C:\Users\NIKHIL~1.PAT\AppData\Local\Temp\gh_000aeoo1.s
00000d39 02            16066 	.byte	2
00000d3a 14            16067 	.byte	20
00000d3b 000502        16068 	.byte	0,5,2
00000d3e 00000000*     16069 	.word	.LDWlin218
00000d42 0c            16070 	.byte	12
00000d43 000502        16071 	.byte	0,5,2
00000d46 00000000*     16072 	.word	.LDWlin219
00000d4a 0b            16073 	.byte	11
00000d4b 0b            16074 	.byte	11
00000d4c 000502        16075 	.byte	0,5,2
00000d4f 00000000*     16076 	.word	.LDWlin220
00000d53 0b            16077 	.byte	11
00000d54 02            16078 	.byte	2
00000d55 00            16079 	.byte	0
00000d56 0b            16080 	.byte	11
00000d57 000502        16081 	.byte	0,5,2
00000d5a 00000000*     16082 	.word	.LDWlin221
00000d5e 0b            16083 	.byte	11
00000d5f 000502        16084 	.byte	0,5,2
00000d62 00000000*     16085 	.word	.LDWlin222
00000d66 03            16086 	.byte	3
00000d67 77            16087 	.byte	119
00000d68 02            16088 	.byte	2
00000d69 00            16089 	.byte	0
00000d6a 01            16090 	.byte	1
00000d6b 02            16091 	.byte	2
00000d6c 02            16092 	.byte	2
00000d6d 000502        16093 	.byte	0,5,2
00000d70 00000000*     16094 	.word	.LDWlin223
00000d74 03            16095 	.byte	3
00000d75 0a            16096 	.byte	10
00000d76 02            16097 	.byte	2
00000d77 00            16098 	.byte	0
00000d78 01            16099 	.byte	1
00000d79 0c            16100 	.byte	12
00000d7a 02            16101 	.byte	2
00000d7b 02            16102 	.byte	2
00000d7c 14            16103 	.byte	20
00000d7d 000502        16104 	.byte	0,5,2
00000d80 00000000*     16105 	.word	.LDWlin224
00000d84 0c            16106 	.byte	12
00000d85 000502        16107 	.byte	0,5,2
00000d88 00000000*     16108 	.word	.LDWlin225
00000d8c 0b            16109 	.byte	11
00000d8d 0b            16110 	.byte	11
00000d8e 000502        16111 	.byte	0,5,2
00000d91 00000000*     16112 	.word	.LDWlin226
00000d95 0b            16113 	.byte	11
00000d96 02            16114 	.byte	2
00000d97 00            16115 	.byte	0
00000d98 0b            16116 	.byte	11
00000d99 000502        16117 	.byte	0,5,2
00000d9c 00000000*     16118 	.word	.LDWlin227
00000da0 0b            16119 	.byte	11
00000da1 000502        16120 	.byte	0,5,2
00000da4 00000000*     16121 	.word	.LDWlin228
00000da8 03            16122 	.byte	3
00000da9 77            16123 	.byte	119
00000daa 02            16124 	.byte	2
00000dab 00            16125 	.byte	0
00000dac 01            16126 	.byte	1

                                                                      Page 285
                                                              C:\Users\NIKHIL~1.PAT\AppData\Local\Temp\gh_000aeoo1.s
00000dad 02            16127 	.byte	2
00000dae 02            16128 	.byte	2
00000daf 000502        16129 	.byte	0,5,2
00000db2 00000000*     16130 	.word	.LDWlin229
00000db6 03            16131 	.byte	3
00000db7 0a            16132 	.byte	10
00000db8 02            16133 	.byte	2
00000db9 00            16134 	.byte	0
00000dba 01            16135 	.byte	1
00000dbb 0c            16136 	.byte	12
00000dbc 02            16137 	.byte	2
00000dbd 02            16138 	.byte	2
00000dbe 14            16139 	.byte	20
00000dbf 000502        16140 	.byte	0,5,2
00000dc2 00000000*     16141 	.word	.LDWlin230
00000dc6 0c            16142 	.byte	12
00000dc7 000502        16143 	.byte	0,5,2
00000dca 00000000*     16144 	.word	.LDWlin231
00000dce 0b            16145 	.byte	11
00000dcf 0b            16146 	.byte	11
00000dd0 000502        16147 	.byte	0,5,2
00000dd3 00000000*     16148 	.word	.LDWlin232
00000dd7 0b            16149 	.byte	11
00000dd8 02            16150 	.byte	2
00000dd9 00            16151 	.byte	0
00000dda 0b            16152 	.byte	11
00000ddb 000502        16153 	.byte	0,5,2
00000dde 00000000*     16154 	.word	.LDWlin233
00000de2 0b            16155 	.byte	11
00000de3 000502        16156 	.byte	0,5,2
00000de6 00000000*     16157 	.word	.LDWlin234
00000dea 03            16158 	.byte	3
00000deb 77            16159 	.byte	119
00000dec 02            16160 	.byte	2
00000ded 00            16161 	.byte	0
00000dee 01            16162 	.byte	1
00000def 02            16163 	.byte	2
00000df0 02            16164 	.byte	2
00000df1 000502        16165 	.byte	0,5,2
00000df4 00000000*     16166 	.word	.LDWlin235
00000df8 03            16167 	.byte	3
00000df9 0a            16168 	.byte	10
00000dfa 02            16169 	.byte	2
00000dfb 00            16170 	.byte	0
00000dfc 01            16171 	.byte	1
00000dfd 0c            16172 	.byte	12
00000dfe 02            16173 	.byte	2
00000dff 02            16174 	.byte	2
00000e00 14            16175 	.byte	20
00000e01 000502        16176 	.byte	0,5,2
00000e04 00000000*     16177 	.word	.LDWlin236
00000e08 0c            16178 	.byte	12
00000e09 000502        16179 	.byte	0,5,2
00000e0c 00000000*     16180 	.word	.LDWlin237
00000e10 0b            16181 	.byte	11
00000e11 0b            16182 	.byte	11
00000e12 000502        16183 	.byte	0,5,2
00000e15 00000000*     16184 	.word	.LDWlin238
00000e19 0b            16185 	.byte	11
00000e1a 02            16186 	.byte	2
00000e1b 00            16187 	.byte	0

                                                                      Page 286
                                                              C:\Users\NIKHIL~1.PAT\AppData\Local\Temp\gh_000aeoo1.s
00000e1c 0b            16188 	.byte	11
00000e1d 000502        16189 	.byte	0,5,2
00000e20 00000000*     16190 	.word	.LDWlin239
00000e24 0b            16191 	.byte	11
00000e25 000502        16192 	.byte	0,5,2
00000e28 00000000*     16193 	.word	.LDWlin240
00000e2c 03            16194 	.byte	3
00000e2d 77            16195 	.byte	119
00000e2e 02            16196 	.byte	2
00000e2f 00            16197 	.byte	0
00000e30 01            16198 	.byte	1
00000e31 02            16199 	.byte	2
00000e32 02            16200 	.byte	2
00000e33 000502        16201 	.byte	0,5,2
00000e36 00000000*     16202 	.word	.LDWlin241
00000e3a 03            16203 	.byte	3
00000e3b 0a            16204 	.byte	10
00000e3c 02            16205 	.byte	2
00000e3d 00            16206 	.byte	0
00000e3e 01            16207 	.byte	1
00000e3f 0c            16208 	.byte	12
00000e40 14            16209 	.byte	20
00000e41 02            16210 	.byte	2
00000e42 02            16211 	.byte	2
00000e43 14            16212 	.byte	20
00000e44 000502        16213 	.byte	0,5,2
00000e47 00000000*     16214 	.word	.LDWlin242
00000e4b 0c            16215 	.byte	12
00000e4c 000502        16216 	.byte	0,5,2
00000e4f 00000000*     16217 	.word	.LDWlin243
00000e53 0b            16218 	.byte	11
00000e54 0b            16219 	.byte	11
00000e55 000502        16220 	.byte	0,5,2
00000e58 00000000*     16221 	.word	.LDWlin244
00000e5c 0b            16222 	.byte	11
00000e5d 02            16223 	.byte	2
00000e5e 00            16224 	.byte	0
00000e5f 0b            16225 	.byte	11
00000e60 000502        16226 	.byte	0,5,2
00000e63 00000000*     16227 	.word	.LDWlin245
00000e67 0b            16228 	.byte	11
00000e68 000502        16229 	.byte	0,5,2
00000e6b 00000000*     16230 	.word	.LDWlin246
00000e6f 03            16231 	.byte	3
00000e70 77            16232 	.byte	119
00000e71 02            16233 	.byte	2
00000e72 00            16234 	.byte	0
00000e73 01            16235 	.byte	1
00000e74 02            16236 	.byte	2
00000e75 02            16237 	.byte	2
00000e76 000502        16238 	.byte	0,5,2
00000e79 00000000*     16239 	.word	.LDWlin247
00000e7d 03            16240 	.byte	3
00000e7e 0a            16241 	.byte	10
00000e7f 02            16242 	.byte	2
00000e80 00            16243 	.byte	0
00000e81 01            16244 	.byte	1
00000e82 0c            16245 	.byte	12
00000e83 02            16246 	.byte	2
00000e84 02            16247 	.byte	2
00000e85 14            16248 	.byte	20

                                                                      Page 287
                                                              C:\Users\NIKHIL~1.PAT\AppData\Local\Temp\gh_000aeoo1.s
00000e86 000502        16249 	.byte	0,5,2
00000e89 00000000*     16250 	.word	.LDWlin248
00000e8d 0b            16251 	.byte	11
00000e8e 000502        16252 	.byte	0,5,2
00000e91 00000000*     16253 	.word	.LDWlin249
00000e95 0b            16254 	.byte	11
00000e96 0b            16255 	.byte	11
00000e97 000502        16256 	.byte	0,5,2
00000e9a 00000000*     16257 	.word	.LDWlin250
00000e9e 0b            16258 	.byte	11
00000e9f 02            16259 	.byte	2
00000ea0 00            16260 	.byte	0
00000ea1 0b            16261 	.byte	11
00000ea2 000502        16262 	.byte	0,5,2
00000ea5 00000000*     16263 	.word	.LDWlin251
00000ea9 0b            16264 	.byte	11
00000eaa 000502        16265 	.byte	0,5,2
00000ead 00000000*     16266 	.word	.LDWlin252
00000eb1 03            16267 	.byte	3
00000eb2 78            16268 	.byte	120
00000eb3 02            16269 	.byte	2
00000eb4 00            16270 	.byte	0
00000eb5 01            16271 	.byte	1
00000eb6 02            16272 	.byte	2
00000eb7 02            16273 	.byte	2
00000eb8 000502        16274 	.byte	0,5,2
00000ebb 00000000*     16275 	.word	.LDWlin253
00000ebf 03            16276 	.byte	3
00000ec0 09            16277 	.byte	9
00000ec1 02            16278 	.byte	2
00000ec2 00            16279 	.byte	0
00000ec3 01            16280 	.byte	1
00000ec4 0c            16281 	.byte	12
00000ec5 02            16282 	.byte	2
00000ec6 02            16283 	.byte	2
00000ec7 14            16284 	.byte	20
00000ec8 000502        16285 	.byte	0,5,2
00000ecb 00000000*     16286 	.word	.LDWlin254
00000ecf 0c            16287 	.byte	12
00000ed0 000502        16288 	.byte	0,5,2
00000ed3 00000000*     16289 	.word	.LDWlin255
00000ed7 0b            16290 	.byte	11
00000ed8 0b            16291 	.byte	11
00000ed9 000502        16292 	.byte	0,5,2
00000edc 00000000*     16293 	.word	.LDWlin256
00000ee0 0b            16294 	.byte	11
00000ee1 02            16295 	.byte	2
00000ee2 00            16296 	.byte	0
00000ee3 0b            16297 	.byte	11
00000ee4 000502        16298 	.byte	0,5,2
00000ee7 00000000*     16299 	.word	.LDWlin257
00000eeb 0b            16300 	.byte	11
00000eec 000502        16301 	.byte	0,5,2
00000eef 00000000*     16302 	.word	.LDWlin258
00000ef3 03            16303 	.byte	3
00000ef4 77            16304 	.byte	119
00000ef5 02            16305 	.byte	2
00000ef6 00            16306 	.byte	0
00000ef7 01            16307 	.byte	1
00000ef8 02            16308 	.byte	2
00000ef9 02            16309 	.byte	2

                                                                      Page 288
                                                              C:\Users\NIKHIL~1.PAT\AppData\Local\Temp\gh_000aeoo1.s
00000efa 000502        16310 	.byte	0,5,2
00000efd 00000000*     16311 	.word	.LDWlin259
00000f01 03            16312 	.byte	3
00000f02 0a            16313 	.byte	10
00000f03 02            16314 	.byte	2
00000f04 00            16315 	.byte	0
00000f05 01            16316 	.byte	1
00000f06 0c            16317 	.byte	12
00000f07 02            16318 	.byte	2
00000f08 02            16319 	.byte	2
00000f09 14            16320 	.byte	20
00000f0a 000502        16321 	.byte	0,5,2
00000f0d 00000000*     16322 	.word	.LDWlin260
00000f11 0b            16323 	.byte	11
00000f12 000502        16324 	.byte	0,5,2
00000f15 00000000*     16325 	.word	.LDWlin261
00000f19 0b            16326 	.byte	11
00000f1a 000502        16327 	.byte	0,5,2
00000f1d 00000000*     16328 	.word	.LDWlin262
00000f21 0b            16329 	.byte	11
00000f22 000502        16330 	.byte	0,5,2
00000f25 00000000*     16331 	.word	.LDWlin263
00000f29 0b            16332 	.byte	11
00000f2a 0b            16333 	.byte	11
00000f2b 000502        16334 	.byte	0,5,2
00000f2e 00000000*     16335 	.word	.LDWlin264
00000f32 0b            16336 	.byte	11
00000f33 02            16337 	.byte	2
00000f34 00            16338 	.byte	0
00000f35 0b            16339 	.byte	11
00000f36 000502        16340 	.byte	0,5,2
00000f39 00000000*     16341 	.word	.LDWlin265
00000f3d 0b            16342 	.byte	11
00000f3e 000502        16343 	.byte	0,5,2
00000f41 00000000*     16344 	.word	.LDWlin266
00000f45 03            16345 	.byte	3
00000f46 76            16346 	.byte	118
00000f47 02            16347 	.byte	2
00000f48 00            16348 	.byte	0
00000f49 01            16349 	.byte	1
00000f4a 02            16350 	.byte	2
00000f4b 02            16351 	.byte	2
00000f4c 000502        16352 	.byte	0,5,2
00000f4f 00000000*     16353 	.word	.LDWlin267
00000f53 03            16354 	.byte	3
00000f54 0b            16355 	.byte	11
00000f55 02            16356 	.byte	2
00000f56 00            16357 	.byte	0
00000f57 01            16358 	.byte	1
00000f58 0c            16359 	.byte	12
00000f59 02            16360 	.byte	2
00000f5a 02            16361 	.byte	2
00000f5b 14            16362 	.byte	20
00000f5c 000502        16363 	.byte	0,5,2
00000f5f 00000000*     16364 	.word	.LDWlin268
00000f63 03            16365 	.byte	3
00000f64 7e            16366 	.byte	126
00000f65 02            16367 	.byte	2
00000f66 00            16368 	.byte	0
00000f67 01            16369 	.byte	1
00000f68 02            16370 	.byte	2

                                                                      Page 289
                                                              C:\Users\NIKHIL~1.PAT\AppData\Local\Temp\gh_000aeoo1.s
00000f69 02            16371 	.byte	2
00000f6a 000502        16372 	.byte	0,5,2
00000f6d 00000000*     16373 	.word	.LDWlin269
00000f71 0d            16374 	.byte	13
00000f72 03            16375 	.byte	3
00000f73 04            16376 	.byte	4
00000f74 02            16377 	.byte	2
00000f75 00            16378 	.byte	0
00000f76 01            16379 	.byte	1
00000f77 000502        16380 	.byte	0,5,2
00000f7a 00000000*     16381 	.word	.LDWlin270
00000f7e 0b            16382 	.byte	11
00000f7f 000502        16383 	.byte	0,5,2
00000f82 00000000*     16384 	.word	.LDWlin271
00000f86 0b            16385 	.byte	11
00000f87 000502        16386 	.byte	0,5,2
00000f8a 00000000*     16387 	.word	.LDWlin272
00000f8e 0b            16388 	.byte	11
00000f8f 000502        16389 	.byte	0,5,2
00000f92 00000000*     16390 	.word	.LDWlin273
00000f96 03            16391 	.byte	3
00000f97 04            16392 	.byte	4
00000f98 02            16393 	.byte	2
00000f99 00            16394 	.byte	0
00000f9a 01            16395 	.byte	1
00000f9b 000502        16396 	.byte	0,5,2
00000f9e 00000000*     16397 	.word	.LDWlin274
00000fa2 0b            16398 	.byte	11
00000fa3 0b            16399 	.byte	11
00000fa4 000502        16400 	.byte	0,5,2
00000fa7 00000000*     16401 	.word	.LDWlin275
00000fab 0b            16402 	.byte	11
00000fac 0c            16403 	.byte	12
00000fad 0b            16404 	.byte	11
00000fae 000502        16405 	.byte	0,5,2
00000fb1 00000000*     16406 	.word	.LDWlin276
00000fb5 0b            16407 	.byte	11
00000fb6 02            16408 	.byte	2
00000fb7 00            16409 	.byte	0
00000fb8 0d            16410 	.byte	13
00000fb9 000502        16411 	.byte	0,5,2
00000fbc 00000000*     16412 	.word	.LDWlin277
00000fc0 0b            16413 	.byte	11
00000fc1 0b            16414 	.byte	11
00000fc2 000502        16415 	.byte	0,5,2
00000fc5 00000000*     16416 	.word	.LDWlin278
00000fc9 0b            16417 	.byte	11
00000fca 02            16418 	.byte	2
00000fcb 00            16419 	.byte	0
00000fcc 0b            16420 	.byte	11
00000fcd 000502        16421 	.byte	0,5,2
00000fd0 00000000*     16422 	.word	.LDWlin279
00000fd4 0b            16423 	.byte	11
00000fd5 0b            16424 	.byte	11
00000fd6 000502        16425 	.byte	0,5,2
00000fd9 00000000*     16426 	.word	.LDWlin280
00000fdd 0b            16427 	.byte	11
00000fde 02            16428 	.byte	2
00000fdf 00            16429 	.byte	0
00000fe0 0b            16430 	.byte	11
00000fe1 000502        16431 	.byte	0,5,2

                                                                      Page 290
                                                              C:\Users\NIKHIL~1.PAT\AppData\Local\Temp\gh_000aeoo1.s
00000fe4 00000000*     16432 	.word	.LDWlin281
00000fe8 0b            16433 	.byte	11
00000fe9 0b            16434 	.byte	11
00000fea 000502        16435 	.byte	0,5,2
00000fed 00000000*     16436 	.word	.LDWlin282
00000ff1 0b            16437 	.byte	11
00000ff2 02            16438 	.byte	2
00000ff3 00            16439 	.byte	0
00000ff4 03            16440 	.byte	3
00000ff5 06            16441 	.byte	6
00000ff6 02            16442 	.byte	2
00000ff7 00            16443 	.byte	0
00000ff8 01            16444 	.byte	1
00000ff9 000502        16445 	.byte	0,5,2
00000ffc 00000000*     16446 	.word	.LDWlin283
00001000 0b            16447 	.byte	11
00001001 0b            16448 	.byte	11
00001002 000502        16449 	.byte	0,5,2
00001005 00000000*     16450 	.word	.LDWlin284
00001009 0b            16451 	.byte	11
0000100a 000502        16452 	.byte	0,5,2
0000100d 00000000*     16453 	.word	.LDWlin285
00001011 0b            16454 	.byte	11
00001012 000502        16455 	.byte	0,5,2
00001015 00000000*     16456 	.word	.LDWlin286
00001019 0b            16457 	.byte	11
0000101a 0c            16458 	.byte	12
0000101b 0c            16459 	.byte	12
0000101c 000502        16460 	.byte	0,5,2
0000101f 00000000*     16461 	.word	.LDWlin287
00001023 0b            16462 	.byte	11
00001024 1b            16463 	.byte	27
00001025 02            16464 	.byte	2
00001026 00            16465 	.byte	0
00001027 0d            16466 	.byte	13
00001028 02            16467 	.byte	2
00001029 02            16468 	.byte	2
0000102a 14            16469 	.byte	20
0000102b 000502        16470 	.byte	0,5,2
0000102e 00000000*     16471 	.word	.LDWlin288
00001032 03            16472 	.byte	3
00001033 7e            16473 	.byte	126
00001034 02            16474 	.byte	2
00001035 00            16475 	.byte	0
00001036 01            16476 	.byte	1
00001037 02            16477 	.byte	2
00001038 02            16478 	.byte	2
00001039 000502        16479 	.byte	0,5,2
0000103c 00000000*     16480 	.word	.LDWlin289
00001040 0d            16481 	.byte	13
00001041 0c            16482 	.byte	12
00001042 000502        16483 	.byte	0,5,2
00001045 00000000*     16484 	.word	.LDWlin290
00001049 0b            16485 	.byte	11
0000104a 000502        16486 	.byte	0,5,2
0000104d 00000000*     16487 	.word	.LDWlin291
00001051 0d            16488 	.byte	13
00001052 000502        16489 	.byte	0,5,2
00001055 00000000*     16490 	.word	.LDWlin292
00001059 0b            16491 	.byte	11
0000105a 000502        16492 	.byte	0,5,2

                                                                      Page 291
                                                              C:\Users\NIKHIL~1.PAT\AppData\Local\Temp\gh_000aeoo1.s
0000105d 00000000*     16493 	.word	.LDWlin293
00001061 0b            16494 	.byte	11
00001062 000502        16495 	.byte	0,5,2
00001065 00000000*     16496 	.word	.LDWlin294
00001069 0b            16497 	.byte	11
0000106a 000502        16498 	.byte	0,5,2
0000106d 00000000*     16499 	.word	.LDWlin295
00001071 0b            16500 	.byte	11
00001072 000502        16501 	.byte	0,5,2
00001075 00000000*     16502 	.word	.LDWlin296
00001079 0b            16503 	.byte	11
0000107a 000502        16504 	.byte	0,5,2
0000107d 00000000*     16505 	.word	.LDWlin297
00001081 0b            16506 	.byte	11
00001082 000502        16507 	.byte	0,5,2
00001085 00000000*     16508 	.word	.LDWlin298
00001089 0b            16509 	.byte	11
0000108a 000502        16510 	.byte	0,5,2
0000108d 00000000*     16511 	.word	.LDWlin299
00001091 0b            16512 	.byte	11
00001092 000502        16513 	.byte	0,5,2
00001095 00000000*     16514 	.word	.LDWlin300
00001099 0b            16515 	.byte	11
0000109a 000502        16516 	.byte	0,5,2
0000109d 00000000*     16517 	.word	.LDWlin301
000010a1 0b            16518 	.byte	11
000010a2 000502        16519 	.byte	0,5,2
000010a5 00000000*     16520 	.word	.LDWlin302
000010a9 0d            16521 	.byte	13
000010aa 02            16522 	.byte	2
000010ab 02            16523 	.byte	2
000010ac 14            16524 	.byte	20
000010ad 000502        16525 	.byte	0,5,2
000010b0 00000000*     16526 	.word	.LDWlin303
000010b4 03            16527 	.byte	3
000010b5 7e            16528 	.byte	126
000010b6 02            16529 	.byte	2
000010b7 00            16530 	.byte	0
000010b8 01            16531 	.byte	1
000010b9 02            16532 	.byte	2
000010ba 02            16533 	.byte	2
000010bb 000502        16534 	.byte	0,5,2
000010be 00000000*     16535 	.word	.LDWlin304
000010c2 0d            16536 	.byte	13
000010c3 0b            16537 	.byte	11
000010c4 02            16538 	.byte	2
000010c5 1a            16539 	.byte	26
000010c6 000101        16540 	.byte	0,1,1
                       16541 	.section	.debug_info
                       16542 .LDW_3db2840:
00001472 1d            16543 	.byte	29
00001473 00000000*     16544 	.word	.LDW03
00001477 00000000*     16545 	.word	.LDW13
                       16546 
                       16547 .LDW_3db0350:
0000147b 04            16548 	.byte	4
0000147c 6900          16549 	.strz	"i"
0000147e 8a06          16550 	.byte	138,6
00001480 11            16551 	.byte	17
00001481 01            16552 	.byte	1
00001482 00000000*     16553 	.word	.LDW_47f4438

                                                                      Page 292
                                                              C:\Users\NIKHIL~1.PAT\AppData\Local\Temp\gh_000aeoo1.s
00001486 00            16554 	.byte	0
00001487 00            16555 	.byte	0
00001488 016d          16556 	.byte	1,109
                       16557 
                       16558 .LDW_3db03a8:
0000148a 04            16559 	.byte	4
0000148b 6a00          16560 	.strz	"j"
0000148d 8b06          16561 	.byte	139,6
0000148f 11            16562 	.byte	17
00001490 01            16563 	.byte	1
00001491 00000000*     16564 	.word	.LDW_47f4438
00001495 00            16565 	.byte	0
00001496 00            16566 	.byte	0
00001497 016c          16567 	.byte	1,108
                       16568 
00001499 00            16569 	.byte	0
                       16570 
0000149a 00            16571 	.byte	0
                       16572 
                       16573 .LDW_4828d40:
0000149b 13            16574 	.byte	19
0000149c 525f5441534b  16575 	.strz	"R_TASKS_Start"
000014a2 535f53746172 
000014a8 7400 
000014aa 8b08          16576 	.byte	139,8
000014ac 06            16577 	.byte	6
000014ad 01            16578 	.byte	1
000014ae 00000000*     16579 	.word	_R_TASKS_Start
000014b2 00000000*     16580 	.word	___ghs_eofn_R_TASKS_Start
000014b6 0153          16581 	.byte	1,83
000014b8 828080800b    16582 	.byte	130,128,128,128,11
000014bd 0c            16583 	.byte	12
000014be 02            16584 	.byte	2
000014bf 0c            16585 	.byte	12
000014c0 00            16586 	.byte	0
000014c1 00            16587 	.byte	0
000014c2 00            16588 	.byte	0
000014c3 01            16589 	.byte	1
000014c4 01            16590 	.byte	1
000014c5 00            16591 	.byte	0
000014c6 01            16592 	.byte	1
                       16593 
                       16594 	.section	.debug_frame
                       16595 .LDW_4618048:
0000023c 00000000*     16596 	.word	.LDW_unq_1a-.LDW_unq_19
                       16597 .LDW_unq_19:
00000240 00000000*     16598 	.word	.LDW_47a71b0
00000244 00000000*     16599 	.word	_R_TASKS_Start
00000248 00000000*     16600 	.word	___ghs_eofn_R_TASKS_Start-_R_TASKS_Start
0000024c 46            16601 	.byte	70
0000024d 9f            16602 	.byte	159
0000024e 08            16603 	.byte	8
0000024f 44            16604 	.byte	68
00000250 9d            16605 	.byte	157
00000251 00            16606 	.byte	0
00000252 44            16607 	.byte	68
00000253 9c            16608 	.byte	156
00000254 04            16609 	.byte	4
00000255 01            16610 	.byte	1
00000256 00000000*     16611 	.word	.LDW33
0000025a 00            16612 	.byte	0

                                                                      Page 293
                                                              C:\Users\NIKHIL~1.PAT\AppData\Local\Temp\gh_000aeoo1.s
0000025b 00            16613 	.byte	0
                       16614 .LDW_unq_1a:
                       16615 	.section	.debug_line
000010c9 000502        16616 	.byte	0,5,2
000010cc 00000000*     16617 	.word	_R_TASKS_Start
000010d0 03            16618 	.byte	3
000010d1 8b08          16619 	.byte	139,8
000010d3 02            16620 	.byte	2
000010d4 00            16621 	.byte	0
000010d5 01            16622 	.byte	1
000010d6 06            16623 	.byte	6
000010d7 5d            16624 	.byte	93
000010d8 000502        16625 	.byte	0,5,2
000010db 00000000*     16626 	.word	.LDWlin305
000010df 0b            16627 	.byte	11
000010e0 000502        16628 	.byte	0,5,2
000010e3 00000000*     16629 	.word	.LDWlin306
000010e7 0b            16630 	.byte	11
000010e8 000502        16631 	.byte	0,5,2
000010eb 00000000*     16632 	.word	.LDWlin307
000010ef 0b            16633 	.byte	11
000010f0 000502        16634 	.byte	0,5,2
000010f3 00000000*     16635 	.word	.LDWlin308
000010f7 0d            16636 	.byte	13
000010f8 000502        16637 	.byte	0,5,2
000010fb 00000000*     16638 	.word	.LDWlin309
000010ff 0b            16639 	.byte	11
00001100 000502        16640 	.byte	0,5,2
00001103 00000000*     16641 	.word	.LDWlin310
00001107 0c            16642 	.byte	12
00001108 000502        16643 	.byte	0,5,2
0000110b 00000000*     16644 	.word	.LDWlin311
0000110f 0b            16645 	.byte	11
00001110 000502        16646 	.byte	0,5,2
00001113 00000000*     16647 	.word	.LDWlin312
00001117 0c            16648 	.byte	12
00001118 000502        16649 	.byte	0,5,2
0000111b 00000000*     16650 	.word	.LDWlin313
0000111f 0b            16651 	.byte	11
00001120 000502        16652 	.byte	0,5,2
00001123 00000000*     16653 	.word	.LDWlin314
00001127 0b            16654 	.byte	11
00001128 000502        16655 	.byte	0,5,2
0000112b 00000000*     16656 	.word	.LDWlin315
0000112f 0b            16657 	.byte	11
00001130 000502        16658 	.byte	0,5,2
00001133 00000000*     16659 	.word	.LDWlin316
00001137 0b            16660 	.byte	11
00001138 000502        16661 	.byte	0,5,2
0000113b 00000000*     16662 	.word	.LDWlin317
0000113f 0b            16663 	.byte	11
00001140 000502        16664 	.byte	0,5,2
00001143 00000000*     16665 	.word	.LDWlin318
00001147 0c            16666 	.byte	12
00001148 000502        16667 	.byte	0,5,2
0000114b 00000000*     16668 	.word	.LDWlin319
0000114f 0b            16669 	.byte	11
00001150 000502        16670 	.byte	0,5,2
00001153 00000000*     16671 	.word	.LDWlin320
00001157 0c            16672 	.byte	12
00001158 000502        16673 	.byte	0,5,2

                                                                      Page 294
                                                              C:\Users\NIKHIL~1.PAT\AppData\Local\Temp\gh_000aeoo1.s
0000115b 00000000*     16674 	.word	.LDWlin321
0000115f 0d            16675 	.byte	13
00001160 000502        16676 	.byte	0,5,2
00001163 00000000*     16677 	.word	.LDWlin322
00001167 0c            16678 	.byte	12
00001168 000502        16679 	.byte	0,5,2
0000116b 00000000*     16680 	.word	.LDWlin323
0000116f 0b            16681 	.byte	11
00001170 0c            16682 	.byte	12
00001171 000502        16683 	.byte	0,5,2
00001174 00000000*     16684 	.word	.LDWlin324
00001178 0d            16685 	.byte	13
00001179 23            16686 	.byte	35
0000117a 1b            16687 	.byte	27
0000117b 24            16688 	.byte	36
0000117c 000502        16689 	.byte	0,5,2
0000117f 00000000*     16690 	.word	.LDWlin325
00001183 0b            16691 	.byte	11
00001184 0d            16692 	.byte	13
00001185 0b            16693 	.byte	11
00001186 000502        16694 	.byte	0,5,2
00001189 00000000*     16695 	.word	.LDWlin326
0000118d 0b            16696 	.byte	11
0000118e 0b            16697 	.byte	11
0000118f 000502        16698 	.byte	0,5,2
00001192 00000000*     16699 	.word	.LDWlin327
00001196 0b            16700 	.byte	11
00001197 02            16701 	.byte	2
00001198 00            16702 	.byte	0
00001199 0c            16703 	.byte	12
0000119a 000502        16704 	.byte	0,5,2
0000119d 00000000*     16705 	.word	.LDWlin328
000011a1 0b            16706 	.byte	11
000011a2 0b            16707 	.byte	11
000011a3 000502        16708 	.byte	0,5,2
000011a6 00000000*     16709 	.word	.LDWlin329
000011aa 0b            16710 	.byte	11
000011ab 02            16711 	.byte	2
000011ac 00            16712 	.byte	0
000011ad 0c            16713 	.byte	12
000011ae 000502        16714 	.byte	0,5,2
000011b1 00000000*     16715 	.word	.LDWlin330
000011b5 0b            16716 	.byte	11
000011b6 0b            16717 	.byte	11
000011b7 000502        16718 	.byte	0,5,2
000011ba 00000000*     16719 	.word	.LDWlin331
000011be 0b            16720 	.byte	11
000011bf 02            16721 	.byte	2
000011c0 00            16722 	.byte	0
000011c1 0c            16723 	.byte	12
000011c2 000502        16724 	.byte	0,5,2
000011c5 00000000*     16725 	.word	.LDWlin332
000011c9 0b            16726 	.byte	11
000011ca 0b            16727 	.byte	11
000011cb 000502        16728 	.byte	0,5,2
000011ce 00000000*     16729 	.word	.LDWlin333
000011d2 0b            16730 	.byte	11
000011d3 02            16731 	.byte	2
000011d4 00            16732 	.byte	0
000011d5 0c            16733 	.byte	12
000011d6 000502        16734 	.byte	0,5,2

                                                                      Page 295
                                                              C:\Users\NIKHIL~1.PAT\AppData\Local\Temp\gh_000aeoo1.s
000011d9 00000000*     16735 	.word	.LDWlin334
000011dd 0b            16736 	.byte	11
000011de 0b            16737 	.byte	11
000011df 000502        16738 	.byte	0,5,2
000011e2 00000000*     16739 	.word	.LDWlin335
000011e6 0b            16740 	.byte	11
000011e7 02            16741 	.byte	2
000011e8 00            16742 	.byte	0
000011e9 03            16743 	.byte	3
000011ea 06            16744 	.byte	6
000011eb 02            16745 	.byte	2
000011ec 00            16746 	.byte	0
000011ed 01            16747 	.byte	1
000011ee 000502        16748 	.byte	0,5,2
000011f1 00000000*     16749 	.word	.LDWlin336
000011f5 0d            16750 	.byte	13
000011f6 02            16751 	.byte	2
000011f7 00            16752 	.byte	0
000011f8 000502        16753 	.byte	0,5,2
000011fb 00000000*     16754 	.word	.LDWlin337
000011ff 0b            16755 	.byte	11
00001200 000502        16756 	.byte	0,5,2
00001203 00000000*     16757 	.word	.LDWlin338
00001207 0d            16758 	.byte	13
00001208 02            16759 	.byte	2
00001209 00            16760 	.byte	0
0000120a 000502        16761 	.byte	0,5,2
0000120d 00000000*     16762 	.word	.LDWlin339
00001211 0b            16763 	.byte	11
00001212 000502        16764 	.byte	0,5,2
00001215 00000000*     16765 	.word	.LDWlin340
00001219 0c            16766 	.byte	12
0000121a 0b            16767 	.byte	11
0000121b 13            16768 	.byte	19
0000121c 0c            16769 	.byte	12
0000121d 2b            16770 	.byte	43
0000121e 25            16771 	.byte	37
0000121f 000502        16772 	.byte	0,5,2
00001222 00000000*     16773 	.word	.LDWlin341
00001226 0b            16774 	.byte	11
00001227 0b            16775 	.byte	11
00001228 000502        16776 	.byte	0,5,2
0000122b 00000000*     16777 	.word	.LDWlin342
0000122f 0b            16778 	.byte	11
00001230 02            16779 	.byte	2
00001231 00            16780 	.byte	0
00001232 0d            16781 	.byte	13
00001233 000502        16782 	.byte	0,5,2
00001236 00000000*     16783 	.word	.LDWlin343
0000123a 0b            16784 	.byte	11
0000123b 02            16785 	.byte	2
0000123c 00            16786 	.byte	0
0000123d 03            16787 	.byte	3
0000123e 04            16788 	.byte	4
0000123f 02            16789 	.byte	2
00001240 00            16790 	.byte	0
00001241 01            16791 	.byte	1
00001242 14            16792 	.byte	20
00001243 000502        16793 	.byte	0,5,2
00001246 00000000*     16794 	.word	.LDWlin344
0000124a 0d            16795 	.byte	13

                                                                      Page 296
                                                              C:\Users\NIKHIL~1.PAT\AppData\Local\Temp\gh_000aeoo1.s
0000124b 02            16796 	.byte	2
0000124c 00            16797 	.byte	0
0000124d 000502        16798 	.byte	0,5,2
00001250 00000000*     16799 	.word	.LDWlin345
00001254 0b            16800 	.byte	11
00001255 000502        16801 	.byte	0,5,2
00001258 00000000*     16802 	.word	.LDWlin346
0000125c 0d            16803 	.byte	13
0000125d 02            16804 	.byte	2
0000125e 00            16805 	.byte	0
0000125f 000502        16806 	.byte	0,5,2
00001262 00000000*     16807 	.word	.LDWlin347
00001266 0b            16808 	.byte	11
00001267 000502        16809 	.byte	0,5,2
0000126a 00000000*     16810 	.word	.LDWlin348
0000126e 0d            16811 	.byte	13
0000126f 02            16812 	.byte	2
00001270 00            16813 	.byte	0
00001271 000502        16814 	.byte	0,5,2
00001274 00000000*     16815 	.word	.LDWlin349
00001278 0b            16816 	.byte	11
00001279 000502        16817 	.byte	0,5,2
0000127c 00000000*     16818 	.word	.LDWlin350
00001280 0c            16819 	.byte	12
00001281 0b            16820 	.byte	11
00001282 13            16821 	.byte	19
00001283 0b            16822 	.byte	11
00001284 000502        16823 	.byte	0,5,2
00001287 00000000*     16824 	.word	___ghs_eofn_R_TASKS_Start
0000128b 02            16825 	.byte	2
0000128c 00            16826 	.byte	0
0000128d 000101        16827 	.byte	0,1,1
                       16828 	.section	.debug_info
                       16829 .LDW_3db2870:
000014c7 1d            16830 	.byte	29
000014c8 00000000*     16831 	.word	.LDW23
000014cc 00000000*     16832 	.word	.LDW33
                       16833 
                       16834 .LDW_3db0400:
000014d0 04            16835 	.byte	4
000014d1 6c6f635f5761  16836 	.strz	"loc_WakeUpFactor"
000014d7 6b6555704661 
000014dd 63746f7200 
000014e2 8d08          16837 	.byte	141,8
000014e4 0e            16838 	.byte	14
000014e5 01            16839 	.byte	1
000014e6 00000000*     16840 	.word	.LDW_47f4438
000014ea 00            16841 	.byte	0
000014eb 00            16842 	.byte	0
000014ec 016c          16843 	.byte	1,108
                       16844 
000014ee 00            16845 	.byte	0
                       16846 
000014ef 00            16847 	.byte	0
                       16848 
000014f0 00            16849 	.byte	0
                       16850 
                       16851 	.section	.debug_line
                       16852 .Ldw_line_end:
                       16853 	.section	.debug_macinfo
00000000 01            16854 	.byte	1

                                                                      Page 297
                                                              C:\Users\NIKHIL~1.PAT\AppData\Local\Temp\gh_000aeoo1.s
00000001 00            16855 	.byte	0
00000002 5f5f474e555f  16856 	.strz	"__GNU_ASM_SUPPORT__ 1"
00000008 41534d5f5355 
0000000e 50504f52545f 
00000014 5f203100 
00000018 01            16857 	.byte	1
00000019 00            16858 	.byte	0
0000001a 5f5f67687320  16859 	.strz	"__ghs 1"
00000020 3100 
00000022 01            16860 	.byte	1
00000023 00            16861 	.byte	0
00000024 5f5f6768735f  16862 	.strz	"__ghs__ 1"
0000002a 5f203100 
0000002e 01            16863 	.byte	1
0000002f 00            16864 	.byte	0
00000030 5f5f50524f54  16865 	.strz	"__PROTOTYPES__ 1"
00000036 4f5459504553 
0000003c 5f5f203100 
00000041 01            16866 	.byte	1
00000042 00            16867 	.byte	0
00000043 5f5f53544443  16868 	.strz	"__STDC__ 0"
00000049 5f5f203000 
0000004e 01            16869 	.byte	1
0000004f 00            16870 	.byte	0
00000050 5f5f53544443  16871 	.strz	"__STDC_VERSION__ 199409L"
00000056 5f5645525349 
0000005c 4f4e5f5f2031 
00000062 39393430394c 
00000068 00 
00000069 01            16872 	.byte	1
0000006a 00            16873 	.byte	0
0000006b 5f5f41545452  16874 	.strz	"__ATTRIBUTES 1"
00000071 494255544553 
00000077 203100 
0000007a 01            16875 	.byte	1
0000007b 00            16876 	.byte	0
0000007c 5f5f4544475f  16877 	.strz	"__EDG__ 1"
00000082 5f203100 
00000086 01            16878 	.byte	1
00000087 00            16879 	.byte	0
00000088 5f5f536f6674  16880 	.strz	"__SoftwareFloat 1"
0000008e 77617265466c 
00000094 6f6174203100 
0000009a 01            16881 	.byte	1
0000009b 00            16882 	.byte	0
0000009c 5f5f536f6674  16883 	.strz	"__SoftwareFloat__ 1"
000000a2 77617265466c 
000000a8 6f61745f5f20 
000000ae 3100 
000000b0 01            16884 	.byte	1
000000b1 00            16885 	.byte	0
000000b2 5f5f434f5245  16886 	.strz	"__CORE_V850E3V5__ 1"
000000b8 5f5638353045 
000000be 3356355f5f20 
000000c4 3100 
000000c6 01            16887 	.byte	1
000000c7 00            16888 	.byte	0
000000c8 5f5f56383530  16889 	.strz	"__V850E__ 1"
000000ce 455f5f203100 
000000d4 01            16890 	.byte	1
000000d5 00            16891 	.byte	0

                                                                      Page 298
                                                              C:\Users\NIKHIL~1.PAT\AppData\Local\Temp\gh_000aeoo1.s
000000d6 5f5f56383530  16892 	.strz	"__V850E2__ 1"
000000dc 45325f5f2031 
000000e2 00 
000000e3 01            16893 	.byte	1
000000e4 00            16894 	.byte	0
000000e5 5f5f56383530  16895 	.strz	"__V850E2R__ 1"
000000eb 4532525f5f20 
000000f1 3100 
000000f3 01            16896 	.byte	1
000000f4 00            16897 	.byte	0
000000f5 5f5f56383530  16898 	.strz	"__V850E2V3__ 1"
000000fb 453256335f5f 
00000101 203100 
00000104 01            16899 	.byte	1
00000105 00            16900 	.byte	0
00000106 5f5f56383530  16901 	.strz	"__V850E3__ 1"
0000010c 45335f5f2031 
00000112 00 
00000113 01            16902 	.byte	1
00000114 00            16903 	.byte	0
00000115 5f5f56383530  16904 	.strz	"__V850 1"
0000011b 203100 
0000011e 01            16905 	.byte	1
0000011f 00            16906 	.byte	0
00000120 5f5f56383030  16907 	.strz	"__V800_registermode 32"
00000126 5f7265676973 
0000012c 7465726d6f64 
00000132 6520333200 
00000137 01            16908 	.byte	1
00000138 00            16909 	.byte	0
00000139 5f5f6768735f  16910 	.strz	"__ghs_max_pack_value 8"
0000013f 6d61785f7061 
00000145 636b5f76616c 
0000014b 7565203800 
00000150 01            16911 	.byte	1
00000151 00            16912 	.byte	0
00000152 5f5f43484152  16913 	.strz	"__CHAR_BIT 8"
00000158 5f4249542038 
0000015e 00 
0000015f 01            16914 	.byte	1
00000160 00            16915 	.byte	0
00000161 5f5f53485254  16916 	.strz	"__SHRT_BIT 16"
00000167 5f4249542031 
0000016d 3600 
0000016f 01            16917 	.byte	1
00000170 00            16918 	.byte	0
00000171 5f5f494e545f  16919 	.strz	"__INT_BIT 32"
00000177 424954203332 
0000017d 00 
0000017e 01            16920 	.byte	1
0000017f 00            16921 	.byte	0
00000180 5f5f5054525f  16922 	.strz	"__PTR_BIT 32"
00000186 424954203332 
0000018c 00 
0000018d 01            16923 	.byte	1
0000018e 00            16924 	.byte	0
0000018f 5f5f4748535f  16925 	.strz	"__GHS__ 1"
00000195 5f203100 
00000199 03            16926 	.byte	3
0000019a 00            16927 	.byte	0
0000019b 01            16928 	.byte	1

                                                                      Page 299
                                                              C:\Users\NIKHIL~1.PAT\AppData\Local\Temp\gh_000aeoo1.s
0000019c 03            16929 	.byte	3
0000019d 41            16930 	.byte	65
0000019e 02            16931 	.byte	2
0000019f 03            16932 	.byte	3
000001a0 34            16933 	.byte	52
000001a1 03            16934 	.byte	3
000001a2 01            16935 	.byte	1
000001a3 e623          16936 	.byte	230,35
000001a5 494341444341  16937 	.strz	"ICADCA0ERR (*(volatile uint16 *)0xFFFFA05E)"
000001ab 304552522028 
000001b1 2a28766f6c61 
000001b7 74696c652075 
000001bd 696e74313620 
000001c3 2a2930784646 
000001c9 464641303545 
000001cf 2900 
000001d1 01            16938 	.byte	1
000001d2 e025          16939 	.byte	224,37
000001d4 49435441554a  16940 	.strz	"ICTAUJ0I1 (*(volatile uint16 *)0xFFFFA092)"
000001da 30493120282a 
000001e0 28766f6c6174 
000001e6 696c65207569 
000001ec 6e743136202a 
000001f2 293078464646 
000001f8 464130393229 
000001fe 00 
000001ff 04            16941 	.byte	4
00000200 03            16942 	.byte	3
00000201 35            16943 	.byte	53
00000202 04            16944 	.byte	4
00000203 01            16945 	.byte	1
00000204 3c            16946 	.byte	60
00000205 5f5f4841535f  16947 	.strz	"__HAS_FPU__ "
0000020b 4650555f5f20 
00000211 00 
00000212 04            16948 	.byte	4
00000213 03            16949 	.byte	3
00000214 36            16950 	.byte	54
00000215 05            16951 	.byte	5
00000216 01            16952 	.byte	1
00000217 37            16953 	.byte	55
00000218 5f494e4c494e  16954 	.strz	"_INLINE_ __inline"
0000021e 455f205f5f69 
00000224 6e6c696e6500 
0000022a 03            16955 	.byte	3
0000022b 3f            16956 	.byte	63
0000022c 06            16957 	.byte	6
0000022d 01            16958 	.byte	1
0000022e 0f            16959 	.byte	15
0000022f 5f5f41545452  16960 	.strz	"__ATTRIBUTE(x) __attribute__(x)"
00000235 494255544528 
0000023b 7829205f5f61 
00000241 747472696275 
00000247 74655f5f2878 
0000024d 2900 
0000024f 01            16961 	.byte	1
00000250 9101          16962 	.byte	145,1
00000252 5f5f47455453  16963 	.strz	"__GETSP_macro() asm (\"mov sp, %0\" : \"=r\" (result));"
00000258 505f6d616372 
0000025e 6f2829206173 
00000264 6d2028226d6f 

                                                                      Page 300
                                                              C:\Users\NIKHIL~1.PAT\AppData\Local\Temp\gh_000aeoo1.s
0000026a 762073702c20 
00000270 253022203a20 
00000276 223d72222028 
0000027c 726573756c74 
00000282 29293b00 
00000286 04            16964 	.byte	4
00000287 01            16965 	.byte	1
00000288 46            16966 	.byte	70
00000289 7533325f5420  16967 	.strz	"u32_T unsigned long"
0000028f 756e7369676e 
00000295 6564206c6f6e 
0000029b 6700 
0000029d 01            16968 	.byte	1
0000029e 8803          16969 	.byte	136,3
000002a0 50535720352c  16970 	.strz	"PSW 5, 0"
000002a6 203000 
000002a9 01            16971 	.byte	1
000002aa 9203          16972 	.byte	146,3
000002ac 4d4346473020  16973 	.strz	"MCFG0 0, 1"
000002b2 302c203100 
000002b7 01            16974 	.byte	1
000002b8 9403          16975 	.byte	148,3
000002ba 454241534520  16976 	.strz	"EBASE 3, 1"
000002c0 332c203100 
000002c5 01            16977 	.byte	1
000002c6 9503          16978 	.byte	149,3
000002c8 494e54425020  16979 	.strz	"INTBP 4, 1"
000002ce 342c203100 
000002d3 01            16980 	.byte	1
000002d4 9603          16981 	.byte	150,3
000002d6 4d43544c2035  16982 	.strz	"MCTL 5, 1"
000002dc 2c203100 
000002e0 01            16983 	.byte	1
000002e1 9703          16984 	.byte	151,3
000002e3 50494420362c  16985 	.strz	"PID 6, 1"
000002e9 203100 
000002ec 01            16986 	.byte	1
000002ed 9803          16987 	.byte	152,3
000002ef 534343464720  16988 	.strz	"SCCFG 11, 1"
000002f5 31312c203100 
000002fb 01            16989 	.byte	1
000002fc 9d03          16990 	.byte	157,3
000002fe 415349442037  16991 	.strz	"ASID 7, 2"
00000304 2c203200 
00000308 01            16992 	.byte	1
00000309 9f03          16993 	.byte	159,3
0000030b 495350522031  16994 	.strz	"ISPR 10, 2"
00000311 302c203200 
00000316 01            16995 	.byte	1
00000317 a003          16996 	.byte	160,3
00000319 504d52203131  16997 	.strz	"PMR 11, 2"
0000031f 2c203200 
00000323 01            16998 	.byte	1
00000324 a103          16999 	.byte	161,3
00000326 494353522031  17000 	.strz	"ICSR 12, 2"
0000032c 322c203200 
00000331 01            17001 	.byte	1
00000332 a203          17002 	.byte	162,3
00000334 494e54434647  17003 	.strz	"INTCFG 13, 2"
0000033a 2031332c2032 
00000340 00 

                                                                      Page 301
                                                              C:\Users\NIKHIL~1.PAT\AppData\Local\Temp\gh_000aeoo1.s
00000341 01            17004 	.byte	1
00000342 a403          17005 	.byte	164,3
00000344 4d504d20302c  17006 	.strz	"MPM 0, 5"
0000034a 203500 
0000034d 01            17007 	.byte	1
0000034e a503          17008 	.byte	165,3
00000350 4d5052432031  17009 	.strz	"MPRC 1, 5"
00000356 2c203500 
0000035a 01            17010 	.byte	1
0000035b a603          17011 	.byte	166,3
0000035d 4d504252474e  17012 	.strz	"MPBRGN 4, 5"
00000363 20342c203500 
00000369 01            17013 	.byte	1
0000036a a703          17014 	.byte	167,3
0000036c 4d505452474e  17015 	.strz	"MPTRGN 5, 5"
00000372 20352c203500 
00000378 01            17016 	.byte	1
00000379 a803          17017 	.byte	168,3
0000037b 4d434120382c  17018 	.strz	"MCA 8, 5"
00000381 203500 
00000384 01            17019 	.byte	1
00000385 a903          17020 	.byte	169,3
00000387 4d435320392c  17021 	.strz	"MCS 9, 5"
0000038d 203500 
00000390 01            17022 	.byte	1
00000391 aa03          17023 	.byte	170,3
00000393 4d4343203130  17024 	.strz	"MCC 10, 5"
00000399 2c203500 
0000039d 01            17025 	.byte	1
0000039e ab03          17026 	.byte	171,3
000003a0 4d4352203131  17027 	.strz	"MCR 11, 5"
000003a6 2c203500 
000003aa 01            17028 	.byte	1
000003ab ad03          17029 	.byte	173,3
000003ad 4d504c413020  17030 	.strz	"MPLA0 0, 6"
000003b3 302c203600 
000003b8 01            17031 	.byte	1
000003b9 ae03          17032 	.byte	174,3
000003bb 4d5055413020  17033 	.strz	"MPUA0 1, 6"
000003c1 312c203600 
000003c6 01            17034 	.byte	1
000003c7 af03          17035 	.byte	175,3
000003c9 4d5041543020  17036 	.strz	"MPAT0 2, 6"
000003cf 322c203600 
000003d4 01            17037 	.byte	1
000003d5 b003          17038 	.byte	176,3
000003d7 4d504c413120  17039 	.strz	"MPLA1 4, 6"
000003dd 342c203600 
000003e2 01            17040 	.byte	1
000003e3 b103          17041 	.byte	177,3
000003e5 4d5055413120  17042 	.strz	"MPUA1 5, 6"
000003eb 352c203600 
000003f0 01            17043 	.byte	1
000003f1 b203          17044 	.byte	178,3
000003f3 4d5041543120  17045 	.strz	"MPAT1 6, 6"
000003f9 362c203600 
000003fe 01            17046 	.byte	1
000003ff b303          17047 	.byte	179,3
00000401 4d504c413220  17048 	.strz	"MPLA2 8, 6"
00000407 382c203600 
0000040c 01            17049 	.byte	1

                                                                      Page 302
                                                              C:\Users\NIKHIL~1.PAT\AppData\Local\Temp\gh_000aeoo1.s
0000040d b403          17050 	.byte	180,3
0000040f 4d5055413220  17051 	.strz	"MPUA2 9, 6"
00000415 392c203600 
0000041a 01            17052 	.byte	1
0000041b b503          17053 	.byte	181,3
0000041d 4d5041543220  17054 	.strz	"MPAT2 10, 6"
00000423 31302c203600 
00000429 01            17055 	.byte	1
0000042a b603          17056 	.byte	182,3
0000042c 4d504c413320  17057 	.strz	"MPLA3 12, 6"
00000432 31322c203600 
00000438 01            17058 	.byte	1
00000439 b703          17059 	.byte	183,3
0000043b 4d5055413320  17060 	.strz	"MPUA3 13, 6"
00000441 31332c203600 
00000447 01            17061 	.byte	1
00000448 b803          17062 	.byte	184,3
0000044a 4d5041543320  17063 	.strz	"MPAT3 14, 6"
00000450 31342c203600 
00000456 01            17064 	.byte	1
00000457 b903          17065 	.byte	185,3
00000459 4d504c413420  17066 	.strz	"MPLA4 16, 6"
0000045f 31362c203600 
00000465 01            17067 	.byte	1
00000466 ba03          17068 	.byte	186,3
00000468 4d5055413420  17069 	.strz	"MPUA4 17, 6"
0000046e 31372c203600 
00000474 01            17070 	.byte	1
00000475 bb03          17071 	.byte	187,3
00000477 4d5041543420  17072 	.strz	"MPAT4 18, 6"
0000047d 31382c203600 
00000483 01            17073 	.byte	1
00000484 bc03          17074 	.byte	188,3
00000486 4d504c413520  17075 	.strz	"MPLA5 20, 6"
0000048c 32302c203600 
00000492 01            17076 	.byte	1
00000493 bd03          17077 	.byte	189,3
00000495 4d5055413520  17078 	.strz	"MPUA5 21, 6"
0000049b 32312c203600 
000004a1 01            17079 	.byte	1
000004a2 be03          17080 	.byte	190,3
000004a4 4d5041543520  17081 	.strz	"MPAT5 22, 6"
000004aa 32322c203600 
000004b0 01            17082 	.byte	1
000004b1 bf03          17083 	.byte	191,3
000004b3 4d504c413620  17084 	.strz	"MPLA6 24, 6"
000004b9 32342c203600 
000004bf 01            17085 	.byte	1
000004c0 c003          17086 	.byte	192,3
000004c2 4d5055413620  17087 	.strz	"MPUA6 25, 6"
000004c8 32352c203600 
000004ce 01            17088 	.byte	1
000004cf c103          17089 	.byte	193,3
000004d1 4d5041543620  17090 	.strz	"MPAT6 26, 6"
000004d7 32362c203600 
000004dd 01            17091 	.byte	1
000004de c203          17092 	.byte	194,3
000004e0 4d4c55413720  17093 	.strz	"MLUA7 28, 6"
000004e6 32382c203600 
000004ec 01            17094 	.byte	1
000004ed c303          17095 	.byte	195,3

                                                                      Page 303
                                                              C:\Users\NIKHIL~1.PAT\AppData\Local\Temp\gh_000aeoo1.s
000004ef 4d5055413720  17096 	.strz	"MPUA7 29, 6"
000004f5 32392c203600 
000004fb 01            17097 	.byte	1
000004fc c403          17098 	.byte	196,3
000004fe 4d5041543720  17099 	.strz	"MPAT7 30, 6"
00000504 33302c203600 
0000050a 01            17100 	.byte	1
0000050b c503          17101 	.byte	197,3
0000050d 4d504c413820  17102 	.strz	"MPLA8 0, 7"
00000513 302c203700 
00000518 01            17103 	.byte	1
00000519 c603          17104 	.byte	198,3
0000051b 4d5055413820  17105 	.strz	"MPUA8 1, 7"
00000521 312c203700 
00000526 01            17106 	.byte	1
00000527 c703          17107 	.byte	199,3
00000529 4d5041543820  17108 	.strz	"MPAT8 2, 7"
0000052f 322c203700 
00000534 01            17109 	.byte	1
00000535 c803          17110 	.byte	200,3
00000537 4d504c413920  17111 	.strz	"MPLA9 4, 7"
0000053d 342c203700 
00000542 01            17112 	.byte	1
00000543 c903          17113 	.byte	201,3
00000545 4d5055413920  17114 	.strz	"MPUA9 5, 7"
0000054b 352c203700 
00000550 01            17115 	.byte	1
00000551 ca03          17116 	.byte	202,3
00000553 4d5041543920  17117 	.strz	"MPAT9 6, 7"
00000559 362c203700 
0000055e 01            17118 	.byte	1
0000055f cb03          17119 	.byte	203,3
00000561 4d504c413130  17120 	.strz	"MPLA10 8, 7"
00000567 20382c203700 
0000056d 01            17121 	.byte	1
0000056e cc03          17122 	.byte	204,3
00000570 4d5055413130  17123 	.strz	"MPUA10 9, 7"
00000576 20392c203700 
0000057c 01            17124 	.byte	1
0000057d cd03          17125 	.byte	205,3
0000057f 4d5041543130  17126 	.strz	"MPAT10 10, 7"
00000585 2031302c2037 
0000058b 00 
0000058c 01            17127 	.byte	1
0000058d ce03          17128 	.byte	206,3
0000058f 4d504c413131  17129 	.strz	"MPLA11 12, 7"
00000595 2031322c2037 
0000059b 00 
0000059c 01            17130 	.byte	1
0000059d cf03          17131 	.byte	207,3
0000059f 4d5055413131  17132 	.strz	"MPUA11 13, 7"
000005a5 2031332c2037 
000005ab 00 
000005ac 01            17133 	.byte	1
000005ad d003          17134 	.byte	208,3
000005af 4d5041543131  17135 	.strz	"MPAT11 14, 7"
000005b5 2031342c2037 
000005bb 00 
000005bc 01            17136 	.byte	1
000005bd d103          17137 	.byte	209,3
000005bf 4d504c413132  17138 	.strz	"MPLA12 16, 7"

                                                                      Page 304
                                                              C:\Users\NIKHIL~1.PAT\AppData\Local\Temp\gh_000aeoo1.s
000005c5 2031362c2037 
000005cb 00 
000005cc 01            17139 	.byte	1
000005cd d203          17140 	.byte	210,3
000005cf 4d5055413132  17141 	.strz	"MPUA12 17, 7"
000005d5 2031372c2037 
000005db 00 
000005dc 01            17142 	.byte	1
000005dd d303          17143 	.byte	211,3
000005df 4d5041543132  17144 	.strz	"MPAT12 18, 7"
000005e5 2031382c2037 
000005eb 00 
000005ec 01            17145 	.byte	1
000005ed d403          17146 	.byte	212,3
000005ef 4d504c413133  17147 	.strz	"MPLA13 20, 7"
000005f5 2032302c2037 
000005fb 00 
000005fc 01            17148 	.byte	1
000005fd d503          17149 	.byte	213,3
000005ff 4d5055413133  17150 	.strz	"MPUA13 21, 7"
00000605 2032312c2037 
0000060b 00 
0000060c 01            17151 	.byte	1
0000060d d603          17152 	.byte	214,3
0000060f 4d5041543133  17153 	.strz	"MPAT13 22, 7"
00000615 2032322c2037 
0000061b 00 
0000061c 01            17154 	.byte	1
0000061d d703          17155 	.byte	215,3
0000061f 4d504c413134  17156 	.strz	"MPLA14 24, 7"
00000625 2032342c2037 
0000062b 00 
0000062c 01            17157 	.byte	1
0000062d d803          17158 	.byte	216,3
0000062f 4d5055413134  17159 	.strz	"MPUA14 25, 7"
00000635 2032352c2037 
0000063b 00 
0000063c 01            17160 	.byte	1
0000063d d903          17161 	.byte	217,3
0000063f 4d5041543134  17162 	.strz	"MPAT14 26, 7"
00000645 2032362c2037 
0000064b 00 
0000064c 01            17163 	.byte	1
0000064d da03          17164 	.byte	218,3
0000064f 4d504c413135  17165 	.strz	"MPLA15 28, 7"
00000655 2032382c2037 
0000065b 00 
0000065c 01            17166 	.byte	1
0000065d db03          17167 	.byte	219,3
0000065f 4d5055413135  17168 	.strz	"MPUA15 29, 7"
00000665 2032392c2037 
0000066b 00 
0000066c 01            17169 	.byte	1
0000066d dc03          17170 	.byte	220,3
0000066f 4d5041543135  17171 	.strz	"MPAT15 30, 7"
00000675 2033302c2037 
0000067b 00 
0000067c 04            17172 	.byte	4
0000067d 03            17173 	.byte	3
0000067e 47            17174 	.byte	71
0000067f 07            17175 	.byte	7

                                                                      Page 305
                                                              C:\Users\NIKHIL~1.PAT\AppData\Local\Temp\gh_000aeoo1.s
00000680 01            17176 	.byte	1
00000681 8d01          17177 	.byte	141,1
00000683 525f4e554c4c  17178 	.strz	"R_NULL ((void*)0)"
00000689 202828766f69 
0000068f 642a29302900 
00000695 04            17179 	.byte	4
00000696 04            17180 	.byte	4
00000697 03            17181 	.byte	3
00000698 42            17182 	.byte	66
00000699 08            17183 	.byte	8
0000069a 04            17184 	.byte	4
0000069b 03            17185 	.byte	3
0000069c 43            17186 	.byte	67
0000069d 09            17187 	.byte	9
0000069e 01            17188 	.byte	1
0000069f 11            17189 	.byte	17
000006a0 5f535444494f  17190 	.strz	"_STDIO_H "
000006a6 5f482000 
000006aa 03            17191 	.byte	3
000006ab 12            17192 	.byte	18
000006ac 0a            17193 	.byte	10
000006ad 04            17194 	.byte	4
000006ae 03            17195 	.byte	3
000006af 23            17196 	.byte	35
000006b0 0b            17197 	.byte	11
000006b1 01            17198 	.byte	1
000006b2 11            17199 	.byte	17
000006b3 5f5354444152  17200 	.strz	"_STDARG_H "
000006b9 475f482000 
000006be 03            17201 	.byte	3
000006bf 23            17202 	.byte	35
000006c0 0c            17203 	.byte	12
000006c1 01            17204 	.byte	1
000006c2 1c            17205 	.byte	28
000006c3 5f5f5f676873  17206 	.strz	"___ghs_did_pack "
000006c9 5f6469645f70 
000006cf 61636b2000 
000006d4 01            17207 	.byte	1
000006d5 21            17208 	.byte	33
000006d6 5f5f46505f55  17209 	.strz	"__FP_USES_IREGS "
000006dc 5345535f4952 
000006e2 4547532000 
000006e7 04            17210 	.byte	4
000006e8 01            17211 	.byte	1
000006e9 33            17212 	.byte	51
000006ea 5f5f41524753  17213 	.strz	"__ARGS(x) x"
000006f0 287829207800 
000006f6 01            17214 	.byte	1
000006f7 52            17215 	.byte	82
000006f8 5f5f46505f55  17216 	.strz	"__FP_USES_IREGS "
000006fe 5345535f4952 
00000704 4547532000 
00000709 04            17217 	.byte	4
0000070a 01            17218 	.byte	1
0000070b 9e01          17219 	.byte	158,1
0000070d 5f5f52657374  17220 	.strz	"__Restrict "
00000713 726963742000 
00000719 01            17221 	.byte	1
0000071a 9802          17222 	.byte	152,2
0000071c 5f5f41524753  17223 	.strz	"__ARGS(x) x"
00000722 287829207800 

                                                                      Page 306
                                                              C:\Users\NIKHIL~1.PAT\AppData\Local\Temp\gh_000aeoo1.s
00000728 04            17224 	.byte	4
00000729 03            17225 	.byte	3
0000072a 46            17226 	.byte	70
0000072b 0d            17227 	.byte	13
0000072c 04            17228 	.byte	4
0000072d 03            17229 	.byte	3
0000072e 49            17230 	.byte	73
0000072f 0e            17231 	.byte	14
00000730 04            17232 	.byte	4
00000731 03            17233 	.byte	3
00000732 4a            17234 	.byte	74
00000733 0f            17235 	.byte	15
00000734 04            17236 	.byte	4
00000735 03            17237 	.byte	3
00000736 4b            17238 	.byte	75
00000737 10            17239 	.byte	16
00000738 04            17240 	.byte	4
00000739 03            17241 	.byte	3
0000073a 4c            17242 	.byte	76
0000073b 11            17243 	.byte	17
0000073c 04            17244 	.byte	4
0000073d 03            17245 	.byte	3
0000073e 4d            17246 	.byte	77
0000073f 12            17247 	.byte	18
00000740 01            17248 	.byte	1
00000741 40            17249 	.byte	64
00000742 525f5755465f  17250 	.strz	"R_WUF_RESET (uint32_t)0x00"
00000748 524553455420 
0000074e 2875696e7433 
00000754 325f74293078 
0000075a 303000 
0000075d 01            17251 	.byte	1
0000075e 41            17252 	.byte	65
0000075f 525f5755465f  17253 	.strz	"R_WUF_LPS_AI (uint32_t)(1<<14)"
00000765 4c50535f4149 
0000076b 202875696e74 
00000771 33325f742928 
00000777 313c3c313429 
0000077d 00 
0000077e 01            17254 	.byte	1
0000077f 42            17255 	.byte	66
00000780 525f5755465f  17256 	.strz	"R_WUF_LPS_DI (uint32_t)(1<<19)"
00000786 4c50535f4449 
0000078c 202875696e74 
00000792 33325f742928 
00000798 313c3c313929 
0000079e 00 
0000079f 01            17257 	.byte	1
000007a0 43            17258 	.byte	67
000007a1 525f5755465f  17259 	.strz	"R_WUF_INTP12 (uint32_t)(1<<23)"
000007a7 494e54503132 
000007ad 202875696e74 
000007b3 33325f742928 
000007b9 313c3c323329 
000007bf 00 
000007c0 01            17260 	.byte	1
000007c1 44            17261 	.byte	68
000007c2 525f5755465f  17262 	.strz	"R_WUF_INTP15 (uint32_t)(1<<27)"
000007c8 494e54503135 
000007ce 202875696e74 
000007d4 33325f742928 

                                                                      Page 307
                                                              C:\Users\NIKHIL~1.PAT\AppData\Local\Temp\gh_000aeoo1.s
000007da 313c3c323729 
000007e0 00 
000007e1 01            17263 	.byte	1
000007e2 45            17264 	.byte	69
000007e3 525f5755465f  17265 	.strz	"R_WUF_DCUTDI (uint32_t)(1<<31)"
000007e9 444355544449 
000007ef 202875696e74 
000007f5 33325f742928 
000007fb 313c3c333129 
00000801 00 
00000802 01            17266 	.byte	1
00000803 57            17267 	.byte	87
00000804 444545505354  17268 	.strz	"DEEPSTOP_POTI_SENSE 256u"
0000080a 4f505f504f54 
00000810 495f53454e53 
00000816 452032353675 
0000081c 00 
0000081d 04            17269 	.byte	4
0000081e 03            17270 	.byte	3
0000081f 4e            17271 	.byte	78
00000820 13            17272 	.byte	19
00000821 04            17273 	.byte	4
00000822 03            17274 	.byte	3
00000823 4f            17275 	.byte	79
00000824 14            17276 	.byte	20
00000825 04            17277 	.byte	4
00000826 03            17278 	.byte	3
00000827 52            17279 	.byte	82
00000828 15            17280 	.byte	21
00000829 01            17281 	.byte	1
0000082a 3f            17282 	.byte	63
0000082b 525f454e4341  17283 	.strz	"R_ENCA_DOWN_COUNT 0x04"
00000831 5f444f574e5f 
00000837 434f554e5420 
0000083d 3078303400 
00000842 04            17284 	.byte	4
00000843 03            17285 	.byte	3
00000844 53            17286 	.byte	83
00000845 16            17287 	.byte	22
00000846 01            17288 	.byte	1
00000847 41            17289 	.byte	65
00000848 525f49435441  17290 	.strz	"R_ICTAUJ0I1 &ICTAUJ0I1"
0000084e 554a30493120 
00000854 264943544155 
0000085a 4a30493100 
0000085f 01            17291 	.byte	1
00000860 42            17292 	.byte	66
00000861 525f49434144  17293 	.strz	"R_ICADCA0ERR &ICADCA0ERR"
00000867 434130455252 
0000086d 202649434144 
00000873 434130455252 
00000879 00 
0000087a 04            17294 	.byte	4
0000087b 03            17295 	.byte	3
0000087c 54            17296 	.byte	84
0000087d 17            17297 	.byte	23
0000087e 04            17298 	.byte	4
0000087f 03            17299 	.byte	3
00000880 55            17300 	.byte	85
00000881 18            17301 	.byte	24
00000882 01            17302 	.byte	1

                                                                      Page 308
                                                              C:\Users\NIKHIL~1.PAT\AppData\Local\Temp\gh_000aeoo1.s
00000883 40            17303 	.byte	64
00000884 5441554a3043  17304 	.strz	"TAUJ0C1 0x02"
0000088a 312030783032 
00000890 00 
00000891 04            17305 	.byte	4
00000892 03            17306 	.byte	3
00000893 56            17307 	.byte	86
00000894 19            17308 	.byte	25
00000895 04            17309 	.byte	4
00000896 03            17310 	.byte	3
00000897 57            17311 	.byte	87
00000898 1a            17312 	.byte	26
00000899 04            17313 	.byte	4
0000089a 03            17314 	.byte	3
0000089b 58            17315 	.byte	88
0000089c 1b            17316 	.byte	27
0000089d 01            17317 	.byte	1
0000089e 44            17318 	.byte	68
0000089f 524c494e5f42  17319 	.strz	"RLIN_BUSY 4"
000008a5 555359203400 
000008ab 04            17320 	.byte	4
000008ac 01            17321 	.byte	1
000008ad 5f            17322 	.byte	95
000008ae 525f4c45445f  17323 	.strz	"R_LED_WAVE_DOWN 0"
000008b4 574156455f44 
000008ba 4f574e203000 
000008c0 01            17324 	.byte	1
000008c1 60            17325 	.byte	96
000008c2 525f4c45445f  17326 	.strz	"R_LED_WAVE_UP 1"
000008c8 574156455f55 
000008ce 50203100 
000008d2 01            17327 	.byte	1
000008d3 61            17328 	.byte	97
000008d4 525f4c454431  17329 	.strz	"R_LED1_WAVE 0"
000008da 5f5741564520 
000008e0 3000 
000008e2 01            17330 	.byte	1
000008e3 62            17331 	.byte	98
000008e4 525f4c454432  17332 	.strz	"R_LED2_WAVE 1"
000008ea 5f5741564520 
000008f0 3100 
000008f2 01            17333 	.byte	1
000008f3 65            17334 	.byte	101
000008f4 444545505354  17335 	.strz	"DEEPSTOP_COUNT_DOWN 30000u"
000008fa 4f505f434f55 
00000900 4e545f444f57 
00000906 4e2033303030 
0000090c 307500 
0000090f 01            17336 	.byte	1
00000910 68            17337 	.byte	104
00000911 535441545553  17338 	.strz	"STATUS_UPDATE_INTERVAL 100u"
00000917 5f5550444154 
0000091d 455f494e5445 
00000923 5256414c2031 
00000929 30307500 
0000092d 04            17339 	.byte	4
0000092e 00            17340 	.byte	0
                       17341 	.section	.debug_abbrev
00000181 00            17342 	.byte	0
                       17343 	.section	.debug_info
                       17344 .Ldw_end:

                                                                      Page 309
                                                              C:\Users\NIKHIL~1.PAT\AppData\Local\Temp\gh_000aeoo1.s
                       17345 .rh850_flags REGMODE32,DATA_ALIGN8,GP_FIX,EP_NONFIX,TP_FIX,REG2_NONRESERVE,G3K,SDA_EXTRA_REGS_0
